   1              		.syntax unified
   2              		.cpu cortex-m4
   3              		.eabi_attribute 27, 3
   4              		.fpu fpv4-sp-d16
   5              		.eabi_attribute 20, 1
   6              		.eabi_attribute 21, 1
   7              		.eabi_attribute 23, 3
   8              		.eabi_attribute 24, 1
   9              		.eabi_attribute 25, 1
  10              		.eabi_attribute 26, 1
  11              		.eabi_attribute 30, 2
  12              		.eabi_attribute 34, 1
  13              		.eabi_attribute 18, 4
  14              		.thumb
  15              		.file	"IO004.c"
  16              		.text
  17              	.Ltext0:
  18              		.cfi_sections	.debug_frame
  19              		.section	.text.IO004_Init,"ax",%progbits
  20              		.align	2
  21              		.global	IO004_Init
  22              		.thumb
  23              		.thumb_func
  25              	IO004_Init:
  26              	.LFB112:
  27              		.file 1 "../Dave/Generated/src/IO004/IO004.c"
   1:../Dave/Generated/src/IO004/IO004.c **** /*******************************************************************************
   2:../Dave/Generated/src/IO004/IO004.c **** **  DAVE App Name : IO004       App Version: 1.0.22               
   3:../Dave/Generated/src/IO004/IO004.c **** **  This file is generated by DAVE, User modification to this file will be    **
   4:../Dave/Generated/src/IO004/IO004.c **** **  overwritten at the next code generation.                                  **
   5:../Dave/Generated/src/IO004/IO004.c **** *******************************************************************************/
   6:../Dave/Generated/src/IO004/IO004.c **** 
   7:../Dave/Generated/src/IO004/IO004.c **** 
   8:../Dave/Generated/src/IO004/IO004.c **** /*CODE_BLOCK_BEGIN[IO004.c]*/
   9:../Dave/Generated/src/IO004/IO004.c **** /*******************************************************************************
  10:../Dave/Generated/src/IO004/IO004.c ****  Copyright (c) 2012, Infineon Technologies AG                                 **
  11:../Dave/Generated/src/IO004/IO004.c ****  All rights reserved.                                                         **
  12:../Dave/Generated/src/IO004/IO004.c ****                                                                               **
  13:../Dave/Generated/src/IO004/IO004.c ****  Redistribution and use in source and binary forms, with or without           **
  14:../Dave/Generated/src/IO004/IO004.c ****  modification,are permitted provided that the following conditions are met:   **
  15:../Dave/Generated/src/IO004/IO004.c ****                                                                               **
  16:../Dave/Generated/src/IO004/IO004.c ****  *Redistributions of source code must retain the above copyright notice,      **
  17:../Dave/Generated/src/IO004/IO004.c ****  this list of conditions and the following disclaimer.                        **
  18:../Dave/Generated/src/IO004/IO004.c ****  *Redistributions in binary form must reproduce the above copyright notice,   **
  19:../Dave/Generated/src/IO004/IO004.c ****  this list of conditions and the following disclaimer in the documentation    **
  20:../Dave/Generated/src/IO004/IO004.c ****  and/or other materials provided with the distribution.                       **
  21:../Dave/Generated/src/IO004/IO004.c ****  *Neither the name of the copyright holders nor the names of its contributors **
  22:../Dave/Generated/src/IO004/IO004.c ****  may be used to endorse or promote products derived from this software without**
  23:../Dave/Generated/src/IO004/IO004.c ****  specific prior written permission.                                           **
  24:../Dave/Generated/src/IO004/IO004.c ****                                                                               **
  25:../Dave/Generated/src/IO004/IO004.c ****  THIS SOFTWARE IS PROVIDED BY THE COPYRIGHT HOLDERS AND CONTRIBUTORS "AS IS"  **
  26:../Dave/Generated/src/IO004/IO004.c ****  AND ANY EXPRESS OR IMPLIED WARRANTIES, INCLUDING, BUT NOT LIMITED TO, THE    **
  27:../Dave/Generated/src/IO004/IO004.c ****  IMPLIED WARRANTIES OF MERCHANTABILITY AND FITNESS FOR A PARTICULAR PURPOSE   **
  28:../Dave/Generated/src/IO004/IO004.c ****  ARE  DISCLAIMED. IN NO EVENT SHALL THE COPYRIGHT HOLDER OR CONTRIBUTORS BE   **
  29:../Dave/Generated/src/IO004/IO004.c ****  LIABLE  FOR ANY DIRECT, INDIRECT, INCIDENTAL, SPECIAL, EXEMPLARY, OR         **
  30:../Dave/Generated/src/IO004/IO004.c ****  CONSEQUENTIAL DAMAGES (INCLUDING, BUT NOT LIMITED TO, PROCUREMENT OF         **
  31:../Dave/Generated/src/IO004/IO004.c ****  SUBSTITUTE GOODS OR  SERVICES; LOSS OF USE, DATA, OR PROFITS; OR BUSINESS    **
  32:../Dave/Generated/src/IO004/IO004.c ****  INTERRUPTION) HOWEVER CAUSED AND ON ANY THEORY OF LIABILITY, WHETHER IN      **
  33:../Dave/Generated/src/IO004/IO004.c ****  CONTRACT, STRICT LIABILITY,OR TORT (INCLUDING NEGLIGENCE OR OTHERWISE)       **
  34:../Dave/Generated/src/IO004/IO004.c ****  ARISING IN ANY WAY OUT OF THE USE OF THIS SOFTWARE, EVEN IF ADVISED OF THE   **
  35:../Dave/Generated/src/IO004/IO004.c ****  POSSIBILITY OF SUCH DAMAGE.                                                  **
  36:../Dave/Generated/src/IO004/IO004.c ****                                                                               **
  37:../Dave/Generated/src/IO004/IO004.c ****  To improve the quality of the software, users are encouraged to share        **
  38:../Dave/Generated/src/IO004/IO004.c ****  modifications, enhancements or bug fixes with Infineon Technologies AG       **
  39:../Dave/Generated/src/IO004/IO004.c ****  dave@infineon.com).                                                          **
  40:../Dave/Generated/src/IO004/IO004.c ****                                                                               **
  41:../Dave/Generated/src/IO004/IO004.c **** ********************************************************************************
  42:../Dave/Generated/src/IO004/IO004.c **** **                                                                            **
  43:../Dave/Generated/src/IO004/IO004.c **** **                                                                            **
  44:../Dave/Generated/src/IO004/IO004.c **** ** PLATFORM : Infineon XMC4000/XMC1000 Series                                 **
  45:../Dave/Generated/src/IO004/IO004.c **** **                                                                            **
  46:../Dave/Generated/src/IO004/IO004.c **** ** COMPILER : Compiler Independent                                            **
  47:../Dave/Generated/src/IO004/IO004.c **** **                                                                            **
  48:../Dave/Generated/src/IO004/IO004.c **** ** AUTHOR   : App Developer                                                   **
  49:../Dave/Generated/src/IO004/IO004.c **** **                                                                            **
  50:../Dave/Generated/src/IO004/IO004.c **** ** MAY BE CHANGED BY USER [yes/no]: Yes                                       **
  51:../Dave/Generated/src/IO004/IO004.c **** **                                                                            **
  52:../Dave/Generated/src/IO004/IO004.c **** ** MODIFICATION DATE : Mar 16, 2013                                           **
  53:../Dave/Generated/src/IO004/IO004.c **** **                                                                            **
  54:../Dave/Generated/src/IO004/IO004.c **** *******************************************************************************/
  55:../Dave/Generated/src/IO004/IO004.c **** /*******************************************************************************
  56:../Dave/Generated/src/IO004/IO004.c **** **                      Author(s) Identity                                    **
  57:../Dave/Generated/src/IO004/IO004.c **** ********************************************************************************
  58:../Dave/Generated/src/IO004/IO004.c **** **                                                                            **
  59:../Dave/Generated/src/IO004/IO004.c **** ** Initials     Name                                                          **
  60:../Dave/Generated/src/IO004/IO004.c **** ** ---------------------------------------------------------------------------**
  61:../Dave/Generated/src/IO004/IO004.c **** ** PAE        App Developer                                                   **
  62:../Dave/Generated/src/IO004/IO004.c **** *******************************************************************************/
  63:../Dave/Generated/src/IO004/IO004.c **** /**
  64:../Dave/Generated/src/IO004/IO004.c ****  * @file   IO004.c
  65:../Dave/Generated/src/IO004/IO004.c ****  *
  66:../Dave/Generated/src/IO004/IO004.c ****  * @brief  IO_Digital _IO004 App
  67:../Dave/Generated/src/IO004/IO004.c ****  *
  68:../Dave/Generated/src/IO004/IO004.c ****  * This app can be used to configure a IO Pin when the output shall be 
  69:../Dave/Generated/src/IO004/IO004.c ****  * controlled by software or when it required  just as a input I/O.IO002 App can 
  70:../Dave/Generated/src/IO004/IO004.c ****  * be used in any case except when the output shall be controlled by software.			
  71:../Dave/Generated/src/IO004/IO004.c ****  *
  72:../Dave/Generated/src/IO004/IO004.c ****  *	Note: 
  73:../Dave/Generated/src/IO004/IO004.c ****  *	The App GUI configures the Port Pin as GPIO in input mode by default.
  74:../Dave/Generated/src/IO004/IO004.c ****  */
  75:../Dave/Generated/src/IO004/IO004.c **** /* Revision History 
  76:../Dave/Generated/src/IO004/IO004.c ****  *
  77:../Dave/Generated/src/IO004/IO004.c ****  * 01 Jan 2013  v1.0.12  Disabled Pad Class & Pad driver configuration for 
  78:../Dave/Generated/src/IO004/IO004.c ****  *                       XMC1000.
  79:../Dave/Generated/src/IO004/IO004.c ****  * 16 Mar 2013  v1.0.14  Modified OMR register configuration (Direct assignment 
  80:../Dave/Generated/src/IO004/IO004.c ****  *                       without reading) to upgrade performance.
  81:../Dave/Generated/src/IO004/IO004.c ****  *
  82:../Dave/Generated/src/IO004/IO004.c ****  */
  83:../Dave/Generated/src/IO004/IO004.c **** /*******************************************************************************
  84:../Dave/Generated/src/IO004/IO004.c ****  ** INCLUDE FILES                                                             **
  85:../Dave/Generated/src/IO004/IO004.c ****  ******************************************************************************/
  86:../Dave/Generated/src/IO004/IO004.c **** 
  87:../Dave/Generated/src/IO004/IO004.c **** /** Inclusion of header file */
  88:../Dave/Generated/src/IO004/IO004.c **** #include <DAVE3.h>
  89:../Dave/Generated/src/IO004/IO004.c **** 
  90:../Dave/Generated/src/IO004/IO004.c **** /*******************************************************************************
  91:../Dave/Generated/src/IO004/IO004.c **** **                      Private Macro Definitions                             **
  92:../Dave/Generated/src/IO004/IO004.c **** *******************************************************************************/
  93:../Dave/Generated/src/IO004/IO004.c **** 
  94:../Dave/Generated/src/IO004/IO004.c **** /*******************************************************************************
  95:../Dave/Generated/src/IO004/IO004.c **** **                      Private Type Definitions                              **
  96:../Dave/Generated/src/IO004/IO004.c **** *******************************************************************************/
  97:../Dave/Generated/src/IO004/IO004.c **** 
  98:../Dave/Generated/src/IO004/IO004.c **** /*******************************************************************************
  99:../Dave/Generated/src/IO004/IO004.c **** **                 Private Function Declarations:
 100:../Dave/Generated/src/IO004/IO004.c **** *******************************************************************************/
 101:../Dave/Generated/src/IO004/IO004.c **** 
 102:../Dave/Generated/src/IO004/IO004.c **** /*******************************************************************************
 103:../Dave/Generated/src/IO004/IO004.c **** **                      Global Constant Definitions                           **
 104:../Dave/Generated/src/IO004/IO004.c **** *******************************************************************************/
 105:../Dave/Generated/src/IO004/IO004.c **** 
 106:../Dave/Generated/src/IO004/IO004.c **** /*******************************************************************************
 107:../Dave/Generated/src/IO004/IO004.c **** **                      Global Variable Definitions                           **
 108:../Dave/Generated/src/IO004/IO004.c **** *******************************************************************************/
 109:../Dave/Generated/src/IO004/IO004.c **** 
 110:../Dave/Generated/src/IO004/IO004.c **** /*******************************************************************************
 111:../Dave/Generated/src/IO004/IO004.c **** **                      Private Constant Definitions                          **
 112:../Dave/Generated/src/IO004/IO004.c **** *******************************************************************************/
 113:../Dave/Generated/src/IO004/IO004.c **** 
 114:../Dave/Generated/src/IO004/IO004.c **** /*******************************************************************************
 115:../Dave/Generated/src/IO004/IO004.c **** **                 Function like macro definitions                            **
 116:../Dave/Generated/src/IO004/IO004.c **** *******************************************************************************/
 117:../Dave/Generated/src/IO004/IO004.c **** /*******************************************************************************
 118:../Dave/Generated/src/IO004/IO004.c **** **                      Private Function Definitions                          **
 119:../Dave/Generated/src/IO004/IO004.c **** *******************************************************************************/
 120:../Dave/Generated/src/IO004/IO004.c **** 
 121:../Dave/Generated/src/IO004/IO004.c **** /*******************************************************************************
 122:../Dave/Generated/src/IO004/IO004.c **** **                      Public Function Definitions                           **
 123:../Dave/Generated/src/IO004/IO004.c **** *******************************************************************************/
 124:../Dave/Generated/src/IO004/IO004.c **** /** @ingroup IO004_Func
 125:../Dave/Generated/src/IO004/IO004.c ****  * @{
 126:../Dave/Generated/src/IO004/IO004.c ****  */
 127:../Dave/Generated/src/IO004/IO004.c **** 
 128:../Dave/Generated/src/IO004/IO004.c **** void IO004_Init(void)
 129:../Dave/Generated/src/IO004/IO004.c **** {
  28              		.loc 1 129 0
  29              		.cfi_startproc
  30              		@ args = 0, pretend = 0, frame = 0
  31              		@ frame_needed = 0, uses_anonymous_args = 0
  32              		@ link register save eliminated.
 130:../Dave/Generated/src/IO004/IO004.c ****    /* <<<DD_IO004_API_1>>> */
 131:../Dave/Generated/src/IO004/IO004.c **** 
 132:../Dave/Generated/src/IO004/IO004.c **** 	   
 133:../Dave/Generated/src/IO004/IO004.c **** 
 134:../Dave/Generated/src/IO004/IO004.c ****   /* Configuration of 1 Port 14 based on User configuration */
 135:../Dave/Generated/src/IO004/IO004.c ****   IO004_Handle0.PortRegs->OMR = 0U<< 14;
  33              		.loc 1 135 0
  34 0000 40F20003 		movw	r3, #:lower16:IO004_Handle0
  35 0004 C0F20003 		movt	r3, #:upper16:IO004_Handle0
  36 0008 0021     		movs	r1, #0
  37 000a 5B68     		ldr	r3, [r3, #4]
  38 000c 5960     		str	r1, [r3, #4]
 136:../Dave/Generated/src/IO004/IO004.c ****   
 137:../Dave/Generated/src/IO004/IO004.c ****   IO004_Handle0.PortRegs->PDR1  &= (uint32_t)(~(PORT1_PDR1_PD14_Msk));
  39              		.loc 1 137 0
  40 000e 5A6C     		ldr	r2, [r3, #68]
  41 0010 22F0E060 		bic	r0, r2, #117440512
  42 0014 5864     		str	r0, [r3, #68]
 138:../Dave/Generated/src/IO004/IO004.c ****   IO004_Handle0.PortRegs->PDR1  |= (uint32_t)((4UL << PORT1_PDR1_PD14_Pos) & \
  43              		.loc 1 138 0
  44 0016 586C     		ldr	r0, [r3, #68]
 139:../Dave/Generated/src/IO004/IO004.c ****                                      PORT1_PDR1_PD14_Msk);
 140:../Dave/Generated/src/IO004/IO004.c ****   IO004_Handle0.PortRegs->IOCR12 |= (0U << 19);   
 141:../Dave/Generated/src/IO004/IO004.c **** 
 142:../Dave/Generated/src/IO004/IO004.c ****   /* Configuration of 1 Port 15 based on User configuration */
 143:../Dave/Generated/src/IO004/IO004.c ****   IO004_Handle1.PortRegs->OMR = 0U<< 15;
  45              		.loc 1 143 0
  46 0018 40F20002 		movw	r2, #:lower16:IO004_Handle1
 138:../Dave/Generated/src/IO004/IO004.c ****   IO004_Handle0.PortRegs->PDR1  |= (uint32_t)((4UL << PORT1_PDR1_PD14_Pos) & \
  47              		.loc 1 138 0
  48 001c 40F08060 		orr	r0, r0, #67108864
  49              		.loc 1 143 0
  50 0020 C0F20002 		movt	r2, #:upper16:IO004_Handle1
 138:../Dave/Generated/src/IO004/IO004.c ****   IO004_Handle0.PortRegs->PDR1  |= (uint32_t)((4UL << PORT1_PDR1_PD14_Pos) & \
  51              		.loc 1 138 0
  52 0024 5864     		str	r0, [r3, #68]
 140:../Dave/Generated/src/IO004/IO004.c ****   IO004_Handle0.PortRegs->IOCR12 |= (0U << 19);   
  53              		.loc 1 140 0
  54 0026 D869     		ldr	r0, [r3, #28]
  55              		.loc 1 143 0
  56 0028 5268     		ldr	r2, [r2, #4]
 140:../Dave/Generated/src/IO004/IO004.c ****   IO004_Handle0.PortRegs->IOCR12 |= (0U << 19);   
  57              		.loc 1 140 0
  58 002a D861     		str	r0, [r3, #28]
  59              		.loc 1 143 0
  60 002c 5160     		str	r1, [r2, #4]
 144:../Dave/Generated/src/IO004/IO004.c ****   
 145:../Dave/Generated/src/IO004/IO004.c ****   IO004_Handle1.PortRegs->PDR1  &= (uint32_t)(~(PORT1_PDR1_PD15_Msk));
  61              		.loc 1 145 0
  62 002e 536C     		ldr	r3, [r2, #68]
  63 0030 23F0E040 		bic	r0, r3, #1879048192
  64 0034 5064     		str	r0, [r2, #68]
 146:../Dave/Generated/src/IO004/IO004.c ****   IO004_Handle1.PortRegs->PDR1  |= (uint32_t)((4UL << PORT1_PDR1_PD15_Pos) & \
  65              		.loc 1 146 0
  66 0036 506C     		ldr	r0, [r2, #68]
 147:../Dave/Generated/src/IO004/IO004.c ****                                      PORT1_PDR1_PD15_Msk);
 148:../Dave/Generated/src/IO004/IO004.c ****   IO004_Handle1.PortRegs->IOCR12 |= (0U << 27);   
 149:../Dave/Generated/src/IO004/IO004.c **** 
 150:../Dave/Generated/src/IO004/IO004.c ****   /* Configuration of 0 Port 4 based on User configuration */
 151:../Dave/Generated/src/IO004/IO004.c ****   IO004_Handle2.PortRegs->OMR = 0U<< 4;
  67              		.loc 1 151 0
  68 0038 40F20003 		movw	r3, #:lower16:IO004_Handle2
 146:../Dave/Generated/src/IO004/IO004.c ****   IO004_Handle1.PortRegs->PDR1  |= (uint32_t)((4UL << PORT1_PDR1_PD15_Pos) & \
  69              		.loc 1 146 0
  70 003c 40F08040 		orr	r0, r0, #1073741824
  71              		.loc 1 151 0
  72 0040 C0F20003 		movt	r3, #:upper16:IO004_Handle2
 146:../Dave/Generated/src/IO004/IO004.c ****   IO004_Handle1.PortRegs->PDR1  |= (uint32_t)((4UL << PORT1_PDR1_PD15_Pos) & \
  73              		.loc 1 146 0
  74 0044 5064     		str	r0, [r2, #68]
 148:../Dave/Generated/src/IO004/IO004.c ****   IO004_Handle1.PortRegs->IOCR12 |= (0U << 27);   
  75              		.loc 1 148 0
  76 0046 D069     		ldr	r0, [r2, #28]
  77              		.loc 1 151 0
  78 0048 5B68     		ldr	r3, [r3, #4]
 148:../Dave/Generated/src/IO004/IO004.c ****   IO004_Handle1.PortRegs->IOCR12 |= (0U << 27);   
  79              		.loc 1 148 0
  80 004a D061     		str	r0, [r2, #28]
  81              		.loc 1 151 0
  82 004c 5960     		str	r1, [r3, #4]
 152:../Dave/Generated/src/IO004/IO004.c ****   
 153:../Dave/Generated/src/IO004/IO004.c ****   IO004_Handle2.PortRegs->PDR0   &= (uint32_t)(~(PORT0_PDR0_PD4_Msk));
  83              		.loc 1 153 0
  84 004e 196C     		ldr	r1, [r3, #64]
  85 0050 21F4E022 		bic	r2, r1, #458752
  86 0054 1A64     		str	r2, [r3, #64]
 154:../Dave/Generated/src/IO004/IO004.c ****   IO004_Handle2.PortRegs->PDR0   |= (uint32_t)((4UL << PORT0_PDR0_PD4_Pos) & \
  87              		.loc 1 154 0
  88 0056 186C     		ldr	r0, [r3, #64]
  89 0058 40F48021 		orr	r1, r0, #262144
  90 005c 1964     		str	r1, [r3, #64]
 155:../Dave/Generated/src/IO004/IO004.c ****                                           PORT0_PDR0_PD4_Msk);
 156:../Dave/Generated/src/IO004/IO004.c ****   IO004_Handle2.PortRegs->IOCR4 |= (0U << 3);
  91              		.loc 1 156 0
  92 005e 5A69     		ldr	r2, [r3, #20]
  93 0060 5A61     		str	r2, [r3, #20]
  94 0062 7047     		bx	lr
  95              		.cfi_endproc
  96              	.LFE112:
  98              		.section	.text.IO004_DisableOutputDriver,"ax",%progbits
  99              		.align	2
 100              		.global	IO004_DisableOutputDriver
 101              		.thumb
 102              		.thumb_func
 104              	IO004_DisableOutputDriver:
 105              	.LFB113:
 157:../Dave/Generated/src/IO004/IO004.c **** }
 158:../Dave/Generated/src/IO004/IO004.c **** 
 159:../Dave/Generated/src/IO004/IO004.c **** void IO004_DisableOutputDriver(const IO004_HandleType* Handle,IO004_InputModeType Mode)
 160:../Dave/Generated/src/IO004/IO004.c **** {
 106              		.loc 1 160 0
 107              		.cfi_startproc
 108              		@ args = 0, pretend = 0, frame = 0
 109              		@ frame_needed = 0, uses_anonymous_args = 0
 110              		@ link register save eliminated.
 111              	.LVL0:
 112 0000 10B4     		push	{r4}
 113              	.LCFI0:
 114              		.cfi_def_cfa_offset 4
 115              		.cfi_offset 4, -4
 161:../Dave/Generated/src/IO004/IO004.c ****   uint8_t Pin = Handle->PortPin;
 116              		.loc 1 161 0
 117 0002 4378     		ldrb	r3, [r0, #1]	@ zero_extendqisi2
 118              	.LVL1:
 162:../Dave/Generated/src/IO004/IO004.c ****   /* <<<DD_IO004_API_2>>> */
 163:../Dave/Generated/src/IO004/IO004.c ****   if(Pin < 4U)
 119              		.loc 1 163 0
 120 0004 032B     		cmp	r3, #3
 121 0006 31D9     		bls	.L8
 164:../Dave/Generated/src/IO004/IO004.c ****   {
 165:../Dave/Generated/src/IO004/IO004.c ****     Handle->PortRegs->IOCR0  =  (uint32_t)(Handle->PortRegs->IOCR0 & ~(0x0000001FUL << (3U+(Pin*8U)
 166:../Dave/Generated/src/IO004/IO004.c ****     Handle->PortRegs->IOCR0 |= (uint32_t)(((uint32_t)Mode & 0x1FUL) << (3U+(Pin*8U)));
 167:../Dave/Generated/src/IO004/IO004.c ****   } else if ((Pin >= 4U) && (Pin <= 7U))
 122              		.loc 1 167 0
 123 0008 1A1F     		subs	r2, r3, #4
 124 000a D2B2     		uxtb	r2, r2
 125 000c 032A     		cmp	r2, #3
 126 000e 1AD9     		bls	.L9
 168:../Dave/Generated/src/IO004/IO004.c ****   {
 169:../Dave/Generated/src/IO004/IO004.c ****     Pin = Pin - 4U;
 170:../Dave/Generated/src/IO004/IO004.c ****     Handle->PortRegs->IOCR4  =  (uint32_t)(Handle->PortRegs->IOCR4 & ~(0x0000001FUL << (3U+(Pin*8U)
 171:../Dave/Generated/src/IO004/IO004.c ****     Handle->PortRegs->IOCR4 |=  (uint32_t)(((uint32_t)Mode & 0x1FUL) << (3U+(Pin*8U)));
 172:../Dave/Generated/src/IO004/IO004.c ****   } else if ((Pin >= 8U) && (Pin <= 11U))
 127              		.loc 1 172 0
 128 0010 A3F10802 		sub	r2, r3, #8
 129 0014 D2B2     		uxtb	r2, r2
 130 0016 032A     		cmp	r2, #3
 131 0018 3AD9     		bls	.L10
 173:../Dave/Generated/src/IO004/IO004.c ****   {
 174:../Dave/Generated/src/IO004/IO004.c ****     Pin = Pin - 8U;
 175:../Dave/Generated/src/IO004/IO004.c ****     Handle->PortRegs->IOCR8  =  (uint32_t)(Handle->PortRegs->IOCR8 & ~(0x0000001FUL << (3U+(Pin*8U)
 176:../Dave/Generated/src/IO004/IO004.c ****     Handle->PortRegs->IOCR8 |=  (uint32_t)(((uint32_t)Mode & 0x1FUL) << (3U+(Pin*8U)));
 177:../Dave/Generated/src/IO004/IO004.c ****   } else if ((Pin >= 12U) && (Pin <= 15U))
 132              		.loc 1 177 0
 133 001a 0C3B     		subs	r3, r3, #12
 134 001c DBB2     		uxtb	r3, r3
 135 001e 032B     		cmp	r3, #3
 136 0020 22D8     		bhi	.L2
 137              	.LVL2:
 178:../Dave/Generated/src/IO004/IO004.c ****   {
 179:../Dave/Generated/src/IO004/IO004.c ****     Pin = Pin - 12U;
 180:../Dave/Generated/src/IO004/IO004.c ****     Handle->PortRegs->IOCR12  =  (uint32_t)(Handle->PortRegs->IOCR12 & ~(0x0000001FUL << (3U+(Pin*8
 138              		.loc 1 180 0
 139 0022 4268     		ldr	r2, [r0, #4]
 140 0024 D800     		lsls	r0, r3, #3
 141              	.LVL3:
 142 0026 D469     		ldr	r4, [r2, #28]
 143 0028 C31C     		adds	r3, r0, #3
 144              	.LVL4:
 145 002a 1F20     		movs	r0, #31
 146 002c 00FA03F0 		lsl	r0, r0, r3
 147 0030 24EA0000 		bic	r0, r4, r0
 148 0034 D061     		str	r0, [r2, #28]
 181:../Dave/Generated/src/IO004/IO004.c ****     Handle->PortRegs->IOCR12 |=  (uint32_t)(((uint32_t)Mode & 0x1FUL) << (3U+(Pin*8U)));
 149              		.loc 1 181 0
 150 0036 D069     		ldr	r0, [r2, #28]
 151 0038 01F01F01 		and	r1, r1, #31
 152              	.LVL5:
 153 003c 01FA03F3 		lsl	r3, r1, r3
 154 0040 0343     		orrs	r3, r3, r0
 155 0042 D361     		str	r3, [r2, #28]
 156 0044 10E0     		b	.L2
 157              	.LVL6:
 158              	.L9:
 170:../Dave/Generated/src/IO004/IO004.c ****     Handle->PortRegs->IOCR4  =  (uint32_t)(Handle->PortRegs->IOCR4 & ~(0x0000001FUL << (3U+(Pin*8U)
 159              		.loc 1 170 0
 160 0046 4368     		ldr	r3, [r0, #4]
 161 0048 D000     		lsls	r0, r2, #3
 162              	.LVL7:
 163 004a 5C69     		ldr	r4, [r3, #20]
 164 004c C21C     		adds	r2, r0, #3
 165              	.LVL8:
 166 004e 1F20     		movs	r0, #31
 167 0050 00FA02F0 		lsl	r0, r0, r2
 168 0054 24EA0000 		bic	r0, r4, r0
 169 0058 5861     		str	r0, [r3, #20]
 171:../Dave/Generated/src/IO004/IO004.c ****     Handle->PortRegs->IOCR4 |=  (uint32_t)(((uint32_t)Mode & 0x1FUL) << (3U+(Pin*8U)));
 170              		.loc 1 171 0
 171 005a 5869     		ldr	r0, [r3, #20]
 172 005c 01F01F01 		and	r1, r1, #31
 173              	.LVL9:
 174 0060 01FA02F2 		lsl	r2, r1, r2
 175 0064 0243     		orrs	r2, r2, r0
 176 0066 5A61     		str	r2, [r3, #20]
 177              	.LVL10:
 178              	.L2:
 182:../Dave/Generated/src/IO004/IO004.c ****   }
 183:../Dave/Generated/src/IO004/IO004.c ****   else
 184:../Dave/Generated/src/IO004/IO004.c ****   {
 185:../Dave/Generated/src/IO004/IO004.c **** 	  /*Not supposed to be here */
 186:../Dave/Generated/src/IO004/IO004.c ****   }
 187:../Dave/Generated/src/IO004/IO004.c **** 
 188:../Dave/Generated/src/IO004/IO004.c **** }
 179              		.loc 1 188 0
 180 0068 10BC     		pop	{r4}
 181 006a 7047     		bx	lr
 182              	.LVL11:
 183              	.L8:
 165:../Dave/Generated/src/IO004/IO004.c ****     Handle->PortRegs->IOCR0  =  (uint32_t)(Handle->PortRegs->IOCR0 & ~(0x0000001FUL << (3U+(Pin*8U)
 184              		.loc 1 165 0
 185 006c 4268     		ldr	r2, [r0, #4]
 186 006e DB00     		lsls	r3, r3, #3
 187 0070 1469     		ldr	r4, [r2, #16]
 188 0072 0333     		adds	r3, r3, #3
 189 0074 1F20     		movs	r0, #31
 190              	.LVL12:
 191 0076 00FA03F0 		lsl	r0, r0, r3
 192 007a 24EA0000 		bic	r0, r4, r0
 193 007e 1061     		str	r0, [r2, #16]
 166:../Dave/Generated/src/IO004/IO004.c ****     Handle->PortRegs->IOCR0 |= (uint32_t)(((uint32_t)Mode & 0x1FUL) << (3U+(Pin*8U)));
 194              		.loc 1 166 0
 195 0080 1069     		ldr	r0, [r2, #16]
 196 0082 01F01F01 		and	r1, r1, #31
 197              	.LVL13:
 198 0086 01FA03F3 		lsl	r3, r1, r3
 199 008a 0343     		orrs	r3, r3, r0
 200 008c 1361     		str	r3, [r2, #16]
 201 008e EBE7     		b	.L2
 202              	.LVL14:
 203              	.L10:
 175:../Dave/Generated/src/IO004/IO004.c ****     Handle->PortRegs->IOCR8  =  (uint32_t)(Handle->PortRegs->IOCR8 & ~(0x0000001FUL << (3U+(Pin*8U)
 204              		.loc 1 175 0
 205 0090 4368     		ldr	r3, [r0, #4]
 206 0092 D200     		lsls	r2, r2, #3
 207              	.LVL15:
 208 0094 9C69     		ldr	r4, [r3, #24]
 209 0096 0332     		adds	r2, r2, #3
 210 0098 1F20     		movs	r0, #31
 211              	.LVL16:
 212 009a 00FA02F0 		lsl	r0, r0, r2
 213 009e 24EA0000 		bic	r0, r4, r0
 214 00a2 9861     		str	r0, [r3, #24]
 176:../Dave/Generated/src/IO004/IO004.c ****     Handle->PortRegs->IOCR8 |=  (uint32_t)(((uint32_t)Mode & 0x1FUL) << (3U+(Pin*8U)));
 215              		.loc 1 176 0
 216 00a4 9869     		ldr	r0, [r3, #24]
 217 00a6 01F01F01 		and	r1, r1, #31
 218              	.LVL17:
 219 00aa 01FA02F2 		lsl	r2, r1, r2
 220 00ae 0243     		orrs	r2, r2, r0
 221 00b0 9A61     		str	r2, [r3, #24]
 222 00b2 D9E7     		b	.L2
 223              		.cfi_endproc
 224              	.LFE113:
 226              		.section	.text.IO004_EnableOutputDriver,"ax",%progbits
 227              		.align	2
 228              		.global	IO004_EnableOutputDriver
 229              		.thumb
 230              		.thumb_func
 232              	IO004_EnableOutputDriver:
 233              	.LFB114:
 189:../Dave/Generated/src/IO004/IO004.c **** 
 190:../Dave/Generated/src/IO004/IO004.c **** void IO004_EnableOutputDriver(const IO004_HandleType* Handle,IO004_OutputModeType Mode)
 191:../Dave/Generated/src/IO004/IO004.c **** {
 234              		.loc 1 191 0
 235              		.cfi_startproc
 236              		@ args = 0, pretend = 0, frame = 0
 237              		@ frame_needed = 0, uses_anonymous_args = 0
 238              		@ link register save eliminated.
 239              	.LVL18:
 240 0000 10B4     		push	{r4}
 241              	.LCFI1:
 242              		.cfi_def_cfa_offset 4
 243              		.cfi_offset 4, -4
 192:../Dave/Generated/src/IO004/IO004.c **** 
 193:../Dave/Generated/src/IO004/IO004.c ****   uint8_t Pin = Handle->PortPin;
 244              		.loc 1 193 0
 245 0002 4378     		ldrb	r3, [r0, #1]	@ zero_extendqisi2
 246              	.LVL19:
 194:../Dave/Generated/src/IO004/IO004.c ****   /* <<<DD_IO004_API_2>>> */
 195:../Dave/Generated/src/IO004/IO004.c ****   if(Pin < 4U)
 247              		.loc 1 195 0
 248 0004 032B     		cmp	r3, #3
 249 0006 31D9     		bls	.L16
 196:../Dave/Generated/src/IO004/IO004.c ****   {
 197:../Dave/Generated/src/IO004/IO004.c ****     Handle->PortRegs->IOCR0  =  (uint32_t)(Handle->PortRegs->IOCR0 & ~(0x0000001FUL << (3U+(Pin*8U)
 198:../Dave/Generated/src/IO004/IO004.c ****     Handle->PortRegs->IOCR0 |=  (uint32_t)(((uint32_t)Mode & 0x1FUL) << (3U+(Pin*8U)));
 199:../Dave/Generated/src/IO004/IO004.c ****   } else if ((Pin >= 4U) && (Pin <= 7U))
 250              		.loc 1 199 0
 251 0008 1A1F     		subs	r2, r3, #4
 252 000a D2B2     		uxtb	r2, r2
 253 000c 032A     		cmp	r2, #3
 254 000e 1AD9     		bls	.L17
 200:../Dave/Generated/src/IO004/IO004.c ****   {
 201:../Dave/Generated/src/IO004/IO004.c ****     Pin = Pin - 4U;
 202:../Dave/Generated/src/IO004/IO004.c ****     Handle->PortRegs->IOCR4  =  (uint32_t)(Handle->PortRegs->IOCR4 & ~(0x0000001FUL << (3U+(Pin*8U)
 203:../Dave/Generated/src/IO004/IO004.c ****     Handle->PortRegs->IOCR4 |=  (uint32_t)(((uint32_t)Mode & 0x1FUL) << (3U+(Pin*8U)));
 204:../Dave/Generated/src/IO004/IO004.c ****   } else if ((Pin >= 8U) && (Pin <= 11U))
 255              		.loc 1 204 0
 256 0010 A3F10802 		sub	r2, r3, #8
 257 0014 D2B2     		uxtb	r2, r2
 258 0016 032A     		cmp	r2, #3
 259 0018 3AD9     		bls	.L18
 205:../Dave/Generated/src/IO004/IO004.c ****   {
 206:../Dave/Generated/src/IO004/IO004.c ****     Pin = Pin - 8U;
 207:../Dave/Generated/src/IO004/IO004.c ****     Handle->PortRegs->IOCR8  =  (uint32_t)(Handle->PortRegs->IOCR8 & ~(0x0000001FUL << (3U+(Pin*8U)
 208:../Dave/Generated/src/IO004/IO004.c ****     Handle->PortRegs->IOCR8 |=  (uint32_t)(((uint32_t)Mode & 0x1FUL) << (3U+(Pin*8U)));
 209:../Dave/Generated/src/IO004/IO004.c ****   } else if ((Pin >= 12U) && (Pin <= 15U))
 260              		.loc 1 209 0
 261 001a 0C3B     		subs	r3, r3, #12
 262 001c DBB2     		uxtb	r3, r3
 263 001e 032B     		cmp	r3, #3
 264 0020 22D8     		bhi	.L11
 265              	.LVL20:
 210:../Dave/Generated/src/IO004/IO004.c ****   {
 211:../Dave/Generated/src/IO004/IO004.c ****     Pin = Pin - 12U;
 212:../Dave/Generated/src/IO004/IO004.c ****     Handle->PortRegs->IOCR12  =  (uint32_t)(Handle->PortRegs->IOCR12 & ~(0x0000001FUL << (3U+(Pin*8
 266              		.loc 1 212 0
 267 0022 4268     		ldr	r2, [r0, #4]
 268 0024 D800     		lsls	r0, r3, #3
 269              	.LVL21:
 270 0026 D469     		ldr	r4, [r2, #28]
 271 0028 C31C     		adds	r3, r0, #3
 272              	.LVL22:
 273 002a 1F20     		movs	r0, #31
 274 002c 00FA03F0 		lsl	r0, r0, r3
 275 0030 24EA0000 		bic	r0, r4, r0
 276 0034 D061     		str	r0, [r2, #28]
 213:../Dave/Generated/src/IO004/IO004.c ****     Handle->PortRegs->IOCR12 |=  (uint32_t)(((uint32_t)Mode & 0x1FUL) << (3U+(Pin*8U)));
 277              		.loc 1 213 0
 278 0036 D069     		ldr	r0, [r2, #28]
 279 0038 01F01F01 		and	r1, r1, #31
 280              	.LVL23:
 281 003c 01FA03F3 		lsl	r3, r1, r3
 282 0040 0343     		orrs	r3, r3, r0
 283 0042 D361     		str	r3, [r2, #28]
 284 0044 10E0     		b	.L11
 285              	.LVL24:
 286              	.L17:
 202:../Dave/Generated/src/IO004/IO004.c ****     Handle->PortRegs->IOCR4  =  (uint32_t)(Handle->PortRegs->IOCR4 & ~(0x0000001FUL << (3U+(Pin*8U)
 287              		.loc 1 202 0
 288 0046 4368     		ldr	r3, [r0, #4]
 289 0048 D000     		lsls	r0, r2, #3
 290              	.LVL25:
 291 004a 5C69     		ldr	r4, [r3, #20]
 292 004c C21C     		adds	r2, r0, #3
 293              	.LVL26:
 294 004e 1F20     		movs	r0, #31
 295 0050 00FA02F0 		lsl	r0, r0, r2
 296 0054 24EA0000 		bic	r0, r4, r0
 297 0058 5861     		str	r0, [r3, #20]
 203:../Dave/Generated/src/IO004/IO004.c ****     Handle->PortRegs->IOCR4 |=  (uint32_t)(((uint32_t)Mode & 0x1FUL) << (3U+(Pin*8U)));
 298              		.loc 1 203 0
 299 005a 5869     		ldr	r0, [r3, #20]
 300 005c 01F01F01 		and	r1, r1, #31
 301              	.LVL27:
 302 0060 01FA02F2 		lsl	r2, r1, r2
 303 0064 0243     		orrs	r2, r2, r0
 304 0066 5A61     		str	r2, [r3, #20]
 305              	.LVL28:
 306              	.L11:
 214:../Dave/Generated/src/IO004/IO004.c ****   }
 215:../Dave/Generated/src/IO004/IO004.c ****   else
 216:../Dave/Generated/src/IO004/IO004.c ****   {
 217:../Dave/Generated/src/IO004/IO004.c **** 	  /*Not supposed to be here */
 218:../Dave/Generated/src/IO004/IO004.c ****   }
 219:../Dave/Generated/src/IO004/IO004.c **** }
 307              		.loc 1 219 0
 308 0068 10BC     		pop	{r4}
 309 006a 7047     		bx	lr
 310              	.LVL29:
 311              	.L16:
 197:../Dave/Generated/src/IO004/IO004.c ****     Handle->PortRegs->IOCR0  =  (uint32_t)(Handle->PortRegs->IOCR0 & ~(0x0000001FUL << (3U+(Pin*8U)
 312              		.loc 1 197 0
 313 006c 4268     		ldr	r2, [r0, #4]
 314 006e DB00     		lsls	r3, r3, #3
 315 0070 1469     		ldr	r4, [r2, #16]
 316 0072 0333     		adds	r3, r3, #3
 317 0074 1F20     		movs	r0, #31
 318              	.LVL30:
 319 0076 00FA03F0 		lsl	r0, r0, r3
 320 007a 24EA0000 		bic	r0, r4, r0
 321 007e 1061     		str	r0, [r2, #16]
 198:../Dave/Generated/src/IO004/IO004.c ****     Handle->PortRegs->IOCR0 |=  (uint32_t)(((uint32_t)Mode & 0x1FUL) << (3U+(Pin*8U)));
 322              		.loc 1 198 0
 323 0080 1069     		ldr	r0, [r2, #16]
 324 0082 01F01F01 		and	r1, r1, #31
 325              	.LVL31:
 326 0086 01FA03F3 		lsl	r3, r1, r3
 327 008a 0343     		orrs	r3, r3, r0
 328 008c 1361     		str	r3, [r2, #16]
 329 008e EBE7     		b	.L11
 330              	.LVL32:
 331              	.L18:
 207:../Dave/Generated/src/IO004/IO004.c ****     Handle->PortRegs->IOCR8  =  (uint32_t)(Handle->PortRegs->IOCR8 & ~(0x0000001FUL << (3U+(Pin*8U)
 332              		.loc 1 207 0
 333 0090 4368     		ldr	r3, [r0, #4]
 334 0092 D200     		lsls	r2, r2, #3
 335              	.LVL33:
 336 0094 9C69     		ldr	r4, [r3, #24]
 337 0096 0332     		adds	r2, r2, #3
 338 0098 1F20     		movs	r0, #31
 339              	.LVL34:
 340 009a 00FA02F0 		lsl	r0, r0, r2
 341 009e 24EA0000 		bic	r0, r4, r0
 342 00a2 9861     		str	r0, [r3, #24]
 208:../Dave/Generated/src/IO004/IO004.c ****     Handle->PortRegs->IOCR8 |=  (uint32_t)(((uint32_t)Mode & 0x1FUL) << (3U+(Pin*8U)));
 343              		.loc 1 208 0
 344 00a4 9869     		ldr	r0, [r3, #24]
 345 00a6 01F01F01 		and	r1, r1, #31
 346              	.LVL35:
 347 00aa 01FA02F2 		lsl	r2, r1, r2
 348 00ae 0243     		orrs	r2, r2, r0
 349 00b0 9A61     		str	r2, [r3, #24]
 350 00b2 D9E7     		b	.L11
 351              		.cfi_endproc
 352              	.LFE114:
 354              		.text
 355              	.Letext0:
 356              		.file 2 "c:\\dave-3.1.10\\arm-gcc\\bin\\../lib/gcc/arm-none-eabi/4.7.4/../../../../arm-none-eabi/i
 357              		.file 3 "C:\\DAVE3_workspace\\ws3.1.10\\PWMSP001_Example1_RelaxKit\\Dave\\Generated\\inc\\DAVESupp
 358              		.file 4 "C:\\DAVE-3.1.10\\eclipse\\/../CMSIS/Include/core_cm4.h"
 359              		.file 5 "C:\\DAVE3_workspace\\ws3.1.10\\PWMSP001_Example1_RelaxKit\\Dave\\Generated\\inc\\DAVESupp