   1              		.syntax unified
   2              		.cpu cortex-m4
   3              		.eabi_attribute 27, 3
   4              		.fpu fpv4-sp-d16
   5              		.eabi_attribute 20, 1
   6              		.eabi_attribute 21, 1
   7              		.eabi_attribute 23, 3
   8              		.eabi_attribute 24, 1
   9              		.eabi_attribute 25, 1
  10              		.eabi_attribute 26, 1
  11              		.eabi_attribute 30, 4
  12              		.eabi_attribute 34, 1
  13              		.eabi_attribute 18, 4
  14              		.thumb
  15              		.file	"SYSTM002.c"
  16              		.section	.text.SYSTM002_lInsertTimerList,"ax",%progbits
  17              		.align	1
  18              		.thumb
  19              		.thumb_func
  21              	SYSTM002_lInsertTimerList:
  22              		@ args = 0, pretend = 0, frame = 8
  23              		@ frame_needed = 0, uses_anonymous_args = 0
  24 0000 37B5     		push	{r0, r1, r2, r4, r5, lr}
  25 0002 1F4B     		ldr	r3, .L11
  26 0004 1F49     		ldr	r1, .L11+4
  27 0006 1A68     		ldr	r2, [r3, #0]
  28 0008 01EB4011 		add	r1, r1, r0, lsl #5
  29 000c 8C68     		ldr	r4, [r1, #8]
  30 000e 0AB9     		cbnz	r2, .L2
  31 0010 1960     		str	r1, [r3, #0]
  32 0012 33E0     		b	.L1
  33              	.L2:
  34 0014 0194     		str	r4, [sp, #4]
  35 0016 1346     		mov	r3, r2
  36              	.L8:
  37 0018 019C     		ldr	r4, [sp, #4]
  38 001a 9968     		ldr	r1, [r3, #8]
  39 001c 611A     		subs	r1, r4, r1
  40 001e 0191     		str	r1, [sp, #4]
  41 0020 0199     		ldr	r1, [sp, #4]
  42 0022 0029     		cmp	r1, #0
  43 0024 1ADA     		bge	.L4
  44 0026 D969     		ldr	r1, [r3, #28]
  45 0028 164D     		ldr	r5, .L11+4
  46 002a 4401     		lsls	r4, r0, #5
  47 002c 29B1     		cbz	r1, .L5
  48 002e 2A19     		adds	r2, r5, r4
  49 0030 8A61     		str	r2, [r1, #24]
  50 0032 D161     		str	r1, [r2, #28]
  51 0034 9361     		str	r3, [r2, #24]
  52 0036 DA61     		str	r2, [r3, #28]
  53 0038 04E0     		b	.L6
  54              	.L5:
  55 003a 2B19     		adds	r3, r5, r4
  56 003c D361     		str	r3, [r2, #28]
  57 003e 9A61     		str	r2, [r3, #24]
  58 0040 0F4A     		ldr	r2, .L11
  59 0042 1360     		str	r3, [r2, #0]
  60              	.L6:
  61 0044 0F4B     		ldr	r3, .L11+4
  62 0046 0199     		ldr	r1, [sp, #4]
  63 0048 03EB4010 		add	r0, r3, r0, lsl #5
  64 004c 8369     		ldr	r3, [r0, #24]
  65 004e 9A68     		ldr	r2, [r3, #8]
  66 0050 8A18     		adds	r2, r1, r2
  67 0052 8260     		str	r2, [r0, #8]
  68 0054 9968     		ldr	r1, [r3, #8]
  69 0056 881A     		subs	r0, r1, r2
  70 0058 9860     		str	r0, [r3, #8]
  71 005a 0FE0     		b	.L1
  72              	.L4:
  73 005c 0199     		ldr	r1, [sp, #4]
  74 005e 0029     		cmp	r1, #0
  75 0060 9969     		ldr	r1, [r3, #24]
  76 0062 08DB     		blt	.L7
  77 0064 39B9     		cbnz	r1, .L7
  78 0066 074A     		ldr	r2, .L11+4
  79 0068 0199     		ldr	r1, [sp, #4]
  80 006a 02EB4010 		add	r0, r2, r0, lsl #5
  81 006e 9861     		str	r0, [r3, #24]
  82 0070 C361     		str	r3, [r0, #28]
  83 0072 8160     		str	r1, [r0, #8]
  84 0074 02E0     		b	.L1
  85              	.L7:
  86 0076 0B46     		mov	r3, r1
  87 0078 0029     		cmp	r1, #0
  88 007a CDD1     		bne	.L8
  89              	.L1:
  90 007c 3EBD     		pop	{r1, r2, r3, r4, r5, pc}
  91              	.L12:
  92 007e 00BF     		.align	2
  93              	.L11:
  94 0080 00000000 		.word	.LANCHOR0
  95 0084 00000000 		.word	TimerTbl
  97              		.section	.text.SYSTM002_lRemoveTimerList,"ax",%progbits
  98              		.align	1
  99              		.thumb
 100              		.thumb_func
 102              	SYSTM002_lRemoveTimerList:
 103              		@ args = 0, pretend = 0, frame = 0
 104              		@ frame_needed = 0, uses_anonymous_args = 0
 105 0000 0E4B     		ldr	r3, .L19
 106 0002 03EB4010 		add	r0, r3, r0, lsl #5
 107 0006 10B5     		push	{r4, lr}
 108 0008 C269     		ldr	r2, [r0, #28]
 109 000a 8369     		ldr	r3, [r0, #24]
 110 000c 52B9     		cbnz	r2, .L14
 111 000e 0C49     		ldr	r1, .L19+4
 112 0010 0B60     		str	r3, [r1, #0]
 113 0012 03B9     		cbnz	r3, .L15
 114 0014 10BD     		pop	{r4, pc}
 115              	.L15:
 116 0016 9C68     		ldr	r4, [r3, #8]
 117 0018 8168     		ldr	r1, [r0, #8]
 118 001a DA61     		str	r2, [r3, #28]
 119 001c 6118     		adds	r1, r4, r1
 120 001e 9960     		str	r1, [r3, #8]
 121 0020 8261     		str	r2, [r0, #24]
 122 0022 10BD     		pop	{r4, pc}
 123              	.L14:
 124 0024 9361     		str	r3, [r2, #24]
 125 0026 3BB1     		cbz	r3, .L18
 126              	.L17:
 127 0028 8369     		ldr	r3, [r0, #24]
 128 002a 9968     		ldr	r1, [r3, #8]
 129 002c DA61     		str	r2, [r3, #28]
 130 002e 8268     		ldr	r2, [r0, #8]
 131 0030 8918     		adds	r1, r1, r2
 132 0032 9960     		str	r1, [r3, #8]
 133 0034 0023     		movs	r3, #0
 134 0036 8361     		str	r3, [r0, #24]
 135              	.L18:
 136 0038 C361     		str	r3, [r0, #28]
 137 003a 10BD     		pop	{r4, pc}
 138              	.L20:
 139              		.align	2
 140              	.L19:
 141 003c 00000000 		.word	TimerTbl
 142 0040 00000000 		.word	.LANCHOR0
 144              		.section	.text.SysTick_Handler,"ax",%progbits
 145              		.align	1
 146              		.global	SysTick_Handler
 147              		.thumb
 148              		.thumb_func
 150              	SysTick_Handler:
 151              		@ args = 0, pretend = 0, frame = 0
 152              		@ frame_needed = 0, uses_anonymous_args = 0
 153 0000 154B     		ldr	r3, .L34
 154 0002 5A68     		ldr	r2, [r3, #4]
 155 0004 10B5     		push	{r4, lr}
 156 0006 1C68     		ldr	r4, [r3, #0]
 157 0008 501C     		adds	r0, r2, #1
 158 000a 5860     		str	r0, [r3, #4]
 159 000c 14B3     		cbz	r4, .L21
 160 000e A168     		ldr	r1, [r4, #8]
 161 0010 0129     		cmp	r1, #1
 162 0012 02D9     		bls	.L24
 163 0014 481E     		subs	r0, r1, #1
 164 0016 A060     		str	r0, [r4, #8]
 165 0018 10BD     		pop	{r4, pc}
 166              	.L24:
 167 001a 0023     		movs	r3, #0
 168 001c A360     		str	r3, [r4, #8]
 169              	.L25:
 170 001e A268     		ldr	r2, [r4, #8]
 171 0020 C2B9     		cbnz	r2, .L21
 172              	.L29:
 173 0022 2079     		ldrb	r0, [r4, #4]	@ zero_extendqisi2
 174 0024 28B9     		cbnz	r0, .L26
 175 0026 2068     		ldr	r0, [r4, #0]
 176 0028 FFF7FEFF 		bl	SYSTM002_lRemoveTimerList
 177 002c 0123     		movs	r3, #1
 178 002e 6371     		strb	r3, [r4, #5]
 179 0030 09E0     		b	.L33
 180              	.L26:
 181 0032 0128     		cmp	r0, #1
 182 0034 0ED1     		bne	.L21
 183 0036 2068     		ldr	r0, [r4, #0]
 184 0038 FFF7FEFF 		bl	SYSTM002_lRemoveTimerList
 185 003c E168     		ldr	r1, [r4, #12]
 186 003e 2068     		ldr	r0, [r4, #0]
 187 0040 A160     		str	r1, [r4, #8]
 188 0042 FFF7FEFF 		bl	SYSTM002_lInsertTimerList
 189              	.L33:
 190 0046 2269     		ldr	r2, [r4, #16]
 191 0048 6069     		ldr	r0, [r4, #20]
 192 004a 034C     		ldr	r4, .L34
 193 004c 9047     		blx	r2
 194 004e 2468     		ldr	r4, [r4, #0]
 195 0050 002C     		cmp	r4, #0
 196 0052 E4D1     		bne	.L25
 197              	.L21:
 198 0054 10BD     		pop	{r4, pc}
 199              	.L35:
 200 0056 00BF     		.align	2
 201              	.L34:
 202 0058 00000000 		.word	.LANCHOR0
 204              		.section	.text.SYSTM002_Init,"ax",%progbits
 205              		.align	1
 206              		.global	SYSTM002_Init
 207              		.thumb
 208              		.thumb_func
 210              	SYSTM002_Init:
 211              		@ args = 0, pretend = 0, frame = 8
 212              		@ frame_needed = 0, uses_anonymous_args = 0
 213              		@ link register save eliminated.
 214 0000 174A     		ldr	r2, .L43
 215 0002 0023     		movs	r3, #0
 216 0004 1360     		str	r3, [r2, #0]
 217 0006 82B0     		sub	sp, sp, #8
 218 0008 164A     		ldr	r2, .L43+4
 219 000a 0193     		str	r3, [sp, #4]
 220 000c 42F6DF61 		movw	r1, #11999
 221 0010 5160     		str	r1, [r2, #4]
 222 0012 1549     		ldr	r1, .L43+8
 223 0014 FC20     		movs	r0, #252
 224 0016 81F82300 		strb	r0, [r1, #35]
 225 001a 0720     		movs	r0, #7
 226 001c 9360     		str	r3, [r2, #8]
 227 001e 1060     		str	r0, [r2, #0]
 228 0020 0193     		str	r3, [sp, #4]
 229 0022 019B     		ldr	r3, [sp, #4]
 230 0024 012B     		cmp	r3, #1
 231 0026 18D0     		beq	.L36
 232 0028 CA68     		ldr	r2, [r1, #12]
 233 002a C2F30223 		ubfx	r3, r2, #8, #3
 234 002e C01A     		subs	r0, r0, r3
 235 0030 0628     		cmp	r0, #6
 236 0032 28BF     		it	cs
 237 0034 0620     		movcs	r0, #6
 238 0036 03B1     		cbz	r3, .L38
 239 0038 013B     		subs	r3, r3, #1
 240              	.L38:
 241 003a 0121     		movs	r1, #1
 242 003c 01FA00F2 		lsl	r2, r1, r0
 243 0040 501E     		subs	r0, r2, #1
 244 0042 00F00A01 		and	r1, r0, #10
 245 0046 01FA03F3 		lsl	r3, r1, r3
 246 004a 9A00     		lsls	r2, r3, #2
 247 004c 0649     		ldr	r1, .L43+8
 248 004e 044B     		ldr	r3, .L43
 249 0050 D0B2     		uxtb	r0, r2
 250 0052 0022     		movs	r2, #0
 251 0054 81F82300 		strb	r0, [r1, #35]
 252 0058 9A60     		str	r2, [r3, #8]
 253              	.L36:
 254 005a 02B0     		add	sp, sp, #8
 255 005c 7047     		bx	lr
 256              	.L44:
 257 005e 00BF     		.align	2
 258              	.L43:
 259 0060 00000000 		.word	.LANCHOR0
 260 0064 10E000E0 		.word	-536813552
 261 0068 00ED00E0 		.word	-536810240
 263              		.section	.text.SYSTM002_CreateTimer,"ax",%progbits
 264              		.align	1
 265              		.global	SYSTM002_CreateTimer
 266              		.thumb
 267              		.thumb_func
 269              	SYSTM002_CreateTimer:
 270              		@ args = 0, pretend = 0, frame = 0
 271              		@ frame_needed = 0, uses_anonymous_args = 0
 272 0000 6328     		cmp	r0, #99
 273 0002 2DE9F041 		push	{r4, r5, r6, r7, r8, lr}
 274 0006 04D9     		bls	.L46
 275 0008 0129     		cmp	r1, #1
 276 000a 94BF     		ite	ls
 277 000c 0024     		movls	r4, #0
 278 000e 0124     		movhi	r4, #1
 279 0010 02E0     		b	.L47
 280              	.L46:
 281 0012 0028     		cmp	r0, #0
 282 0014 30D0     		beq	.L48
 283 0016 0124     		movs	r4, #1
 284              	.L47:
 285 0018 52B3     		cbz	r2, .L52
 286 001a 64BB     		cbnz	r4, .L53
 287 001c 174E     		ldr	r6, .L55
 288 001e B568     		ldr	r5, [r6, #8]
 289 0020 B446     		mov	ip, r6
 290              	.L50:
 291 0022 25FA04F6 		lsr	r6, r5, r4
 292 0026 16F00106 		ands	r6, r6, #1
 293 002a 1DD1     		bne	.L49
 294 002c 0127     		movs	r7, #1
 295 002e 07FA04F8 		lsl	r8, r7, r4
 296 0032 48EA0505 		orr	r5, r8, r5
 297 0036 DFF84880 		ldr	r8, .L55+4
 298 003a CCF80850 		str	r5, [ip, #8]
 299 003e 4FEA441C 		lsl	ip, r4, #5
 300 0042 08EB0C05 		add	r5, r8, ip
 301 0046 48F80C40 		str	r4, [r8, ip]
 302 004a 2971     		strb	r1, [r5, #4]
 303 004c 6421     		movs	r1, #100
 304 004e B0FBF1F0 		udiv	r0, r0, r1
 305 0052 C119     		adds	r1, r0, r7
 306 0054 E860     		str	r0, [r5, #12]
 307 0056 6F71     		strb	r7, [r5, #5]
 308 0058 A960     		str	r1, [r5, #8]
 309 005a 2A61     		str	r2, [r5, #16]
 310 005c 6B61     		str	r3, [r5, #20]
 311 005e EE61     		str	r6, [r5, #28]
 312 0060 AE61     		str	r6, [r5, #24]
 313 0062 E019     		adds	r0, r4, r7
 314 0064 BDE8F081 		pop	{r4, r5, r6, r7, r8, pc}
 315              	.L49:
 316 0068 0134     		adds	r4, r4, #1
 317 006a 202C     		cmp	r4, #32
 318 006c D9D1     		bne	.L50
 319 006e 02E0     		b	.L53
 320              	.L52:
 321 0070 1046     		mov	r0, r2
 322 0072 BDE8F081 		pop	{r4, r5, r6, r7, r8, pc}
 323              	.L53:
 324 0076 0020     		movs	r0, #0
 325              	.L48:
 326 0078 BDE8F081 		pop	{r4, r5, r6, r7, r8, pc}
 327              	.L56:
 328              		.align	2
 329              	.L55:
 330 007c 00000000 		.word	.LANCHOR0
 331 0080 00000000 		.word	TimerTbl
 333              		.section	.text.SYSTM002_StartTimer,"ax",%progbits
 334              		.align	1
 335              		.global	SYSTM002_StartTimer
 336              		.thumb
 337              		.thumb_func
 339              	SYSTM002_StartTimer:
 340              		@ args = 0, pretend = 0, frame = 0
 341              		@ frame_needed = 0, uses_anonymous_args = 0
 342 0000 0E4A     		ldr	r2, .L66
 343 0002 9168     		ldr	r1, [r2, #8]
 344 0004 431E     		subs	r3, r0, #1
 345 0006 21FA03F1 		lsr	r1, r1, r3
 346 000a CA07     		lsls	r2, r1, #31
 347 000c 10B5     		push	{r4, lr}
 348 000e 04D5     		bpl	.L60
 349 0010 2028     		cmp	r0, #32
 350 0012 94BF     		ite	ls
 351 0014 0024     		movls	r4, #0
 352 0016 0124     		movhi	r4, #1
 353 0018 00E0     		b	.L58
 354              	.L60:
 355 001a 0124     		movs	r4, #1
 356              	.L58:
 357 001c 0848     		ldr	r0, .L66+4
 358 001e 00EB4312 		add	r2, r0, r3, lsl #5
 359 0022 9168     		ldr	r1, [r2, #8]
 360 0024 39B1     		cbz	r1, .L62
 361 0026 34B9     		cbnz	r4, .L62
 362 0028 5079     		ldrb	r0, [r2, #5]	@ zero_extendqisi2
 363 002a 28B1     		cbz	r0, .L59
 364 002c 5471     		strb	r4, [r2, #5]
 365 002e 1846     		mov	r0, r3
 366 0030 FFF7FEFF 		bl	SYSTM002_lInsertTimerList
 367 0034 00E0     		b	.L59
 368              	.L62:
 369 0036 0124     		movs	r4, #1
 370              	.L59:
 371 0038 2046     		mov	r0, r4
 372 003a 10BD     		pop	{r4, pc}
 373              	.L67:
 374              		.align	2
 375              	.L66:
 376 003c 00000000 		.word	.LANCHOR0
 377 0040 00000000 		.word	TimerTbl
 379              		.section	.text.SYSTM002_StopTimer,"ax",%progbits
 380              		.align	1
 381              		.global	SYSTM002_StopTimer
 382              		.thumb
 383              		.thumb_func
 385              	SYSTM002_StopTimer:
 386              		@ args = 0, pretend = 0, frame = 0
 387              		@ frame_needed = 0, uses_anonymous_args = 0
 388 0000 0C4A     		ldr	r2, .L73
 389 0002 9168     		ldr	r1, [r2, #8]
 390 0004 431E     		subs	r3, r0, #1
 391 0006 21FA03F1 		lsr	r1, r1, r3
 392 000a C907     		lsls	r1, r1, #31
 393 000c 10B5     		push	{r4, lr}
 394 000e 0DD5     		bpl	.L71
 395 0010 2028     		cmp	r0, #32
 396 0012 0BD8     		bhi	.L71
 397 0014 084C     		ldr	r4, .L73+4
 398 0016 04EB4314 		add	r4, r4, r3, lsl #5
 399 001a 6079     		ldrb	r0, [r4, #5]	@ zero_extendqisi2
 400 001c 0128     		cmp	r0, #1
 401 001e 07D0     		beq	.L72
 402 0020 1846     		mov	r0, r3
 403 0022 FFF7FEFF 		bl	SYSTM002_lRemoveTimerList
 404 0026 0123     		movs	r3, #1
 405 0028 6371     		strb	r3, [r4, #5]
 406 002a 01E0     		b	.L72
 407              	.L71:
 408 002c 0120     		movs	r0, #1
 409 002e 10BD     		pop	{r4, pc}
 410              	.L72:
 411 0030 0020     		movs	r0, #0
 412 0032 10BD     		pop	{r4, pc}
 413              	.L74:
 414              		.align	2
 415              	.L73:
 416 0034 00000000 		.word	.LANCHOR0
 417 0038 00000000 		.word	TimerTbl
 419              		.section	.text.SYSTM002_DeleteTimer,"ax",%progbits
 420              		.align	1
 421              		.global	SYSTM002_DeleteTimer
 422              		.thumb
 423              		.thumb_func
 425              	SYSTM002_DeleteTimer:
 426              		@ args = 0, pretend = 0, frame = 0
 427              		@ frame_needed = 0, uses_anonymous_args = 0
 428 0000 0E4B     		ldr	r3, .L80
 429 0002 9968     		ldr	r1, [r3, #8]
 430 0004 10B5     		push	{r4, lr}
 431 0006 441E     		subs	r4, r0, #1
 432 0008 21FA04F1 		lsr	r1, r1, r4
 433 000c CB07     		lsls	r3, r1, #31
 434 000e 13D5     		bpl	.L79
 435 0010 2028     		cmp	r0, #32
 436 0012 11D8     		bhi	.L79
 437 0014 0A48     		ldr	r0, .L80+4
 438 0016 00EB4412 		add	r2, r0, r4, lsl #5
 439 001a 5379     		ldrb	r3, [r2, #5]	@ zero_extendqisi2
 440 001c 13B9     		cbnz	r3, .L77
 441 001e 2046     		mov	r0, r4
 442 0020 FFF7FEFF 		bl	SYSTM002_lRemoveTimerList
 443              	.L77:
 444 0024 0549     		ldr	r1, .L80
 445 0026 0120     		movs	r0, #1
 446 0028 8A68     		ldr	r2, [r1, #8]
 447 002a 00FA04F4 		lsl	r4, r0, r4
 448 002e 22EA0402 		bic	r2, r2, r4
 449 0032 8A60     		str	r2, [r1, #8]
 450 0034 0020     		movs	r0, #0
 451 0036 10BD     		pop	{r4, pc}
 452              	.L79:
 453 0038 0120     		movs	r0, #1
 454 003a 10BD     		pop	{r4, pc}
 455              	.L81:
 456              		.align	2
 457              	.L80:
 458 003c 00000000 		.word	.LANCHOR0
 459 0040 00000000 		.word	TimerTbl
 461              		.section	.text.SYSTM002_GetTime,"ax",%progbits
 462              		.align	1
 463              		.global	SYSTM002_GetTime
 464              		.thumb
 465              		.thumb_func
 467              	SYSTM002_GetTime:
 468              		@ args = 0, pretend = 0, frame = 0
 469              		@ frame_needed = 0, uses_anonymous_args = 0
 470              		@ link register save eliminated.
 471 0000 024B     		ldr	r3, .L83
 472 0002 5968     		ldr	r1, [r3, #4]
 473 0004 6420     		movs	r0, #100
 474 0006 4843     		muls	r0, r1, r0
 475 0008 7047     		bx	lr
 476              	.L84:
 477 000a 00BF     		.align	2
 478              	.L83:
 479 000c 00000000 		.word	.LANCHOR0
 481              		.global	SysTickCount
 482              		.global	TimerTracker
 483              		.global	TimerList
 484              		.comm	TimerTbl,1024,4
 485              		.bss
 486              		.align	2
 487              		.set	.LANCHOR0,. + 0
 490              	TimerList:
 491 0000 00000000 		.space	4
 494              	SysTickCount:
 495 0004 00000000 		.space	4
 498              	TimerTracker:
 499 0008 00000000 		.space	4
 500              		.ident	"GCC: (GNU Tools for ARM Embedded Processors) 4.7.4 20130913 (release) [ARM/embedded-4_7-br