
Joystick.elf:     file format elf32-littlearm

Sections:
Idx Name          Size      VMA       LMA       File off  Algn
  0 .text         00002e74  08000000  0c000000  00008000  2**2
                  CONTENTS, ALLOC, LOAD, READONLY, CODE
  1 .ARM.exidx    00000010  08002e74  0c002e74  0000ae74  2**2
                  CONTENTS, ALLOC, LOAD, READONLY, DATA
  2 .rodata       00000120  08002e84  0c002e84  0000ae84  2**2
                  CONTENTS, ALLOC, LOAD, READONLY, DATA
  3 Stack         00000800  10000000  10000000  00018000  2**0
                  ALLOC
  4 .data         00000014  20000000  0c002fb0  00010000  2**2
                  CONTENTS, ALLOC, LOAD, DATA
  5 .bss          000000b4  20000014  0c002fc4  00010014  2**2
                  ALLOC
  6 .debug_frame  00000030  00000000  00000000  00010014  2**2
                  CONTENTS, READONLY, DEBUGGING
  7 .build_attributes 00000574  00000000  00000000  00010044  2**0
                  CONTENTS, READONLY

Disassembly of section .text:

08000000 <__Xmc4500_interrupt_vector_cortex_m>:
 8000000:	00 08 00 10 01 02 00 08 c9 02 00 08 cb 02 00 08     ................
 8000010:	cd 02 00 08 cf 02 00 08 d1 02 00 08 00 00 00 00     ................
	...
 800002c:	d3 02 00 08 d5 02 00 08 00 00 00 00 d7 02 00 08     ................
 800003c:	d9 02 00 08 db 02 00 08 dd 02 00 08 df 02 00 08     ................
 800004c:	e1 02 00 08 e3 02 00 08 e5 02 00 08 e7 02 00 08     ................
 800005c:	e9 02 00 08 eb 02 00 08 00 00 00 00 00 00 00 00     ................
 800006c:	00 00 00 00 ed 02 00 08 00 00 00 00 ef 02 00 08     ................
 800007c:	f1 02 00 08 79 0b 00 08 f5 02 00 08 f7 02 00 08     ....y...........
 800008c:	f9 02 00 08 fb 02 00 08 fd 02 00 08 ff 02 00 08     ................
 800009c:	01 03 00 08 03 03 00 08 05 03 00 08 07 03 00 08     ................
 80000ac:	09 03 00 08 0b 03 00 08 0d 03 00 08 0f 03 00 08     ................
 80000bc:	11 03 00 08 13 03 00 08 15 03 00 08 17 03 00 08     ................
 80000cc:	19 03 00 08 1b 03 00 08 1d 03 00 08 1f 03 00 08     ................
 80000dc:	21 03 00 08 23 03 00 08 25 03 00 08 27 03 00 08     !...#...%...'...
 80000ec:	29 03 00 08 2b 03 00 08 2d 03 00 08 2f 03 00 08     )...+...-.../...
 80000fc:	31 03 00 08 33 03 00 08 35 03 00 08 37 03 00 08     1...3...5...7...
 800010c:	39 03 00 08 3b 03 00 08 3d 03 00 08 3f 03 00 08     9...;...=...?...
 800011c:	41 03 00 08 43 03 00 08 45 03 00 08 47 03 00 08     A...C...E...G...
 800012c:	49 03 00 08 4b 03 00 08 4d 03 00 08 4f 03 00 08     I...K...M...O...
 800013c:	51 03 00 08 53 03 00 08 55 03 00 08 57 03 00 08     Q...S...U...W...
 800014c:	59 03 00 08 5b 03 00 08 5d 03 00 08 5f 03 00 08     Y...[...]..._...
 800015c:	61 03 00 08 00 00 00 00 00 00 00 00 00 00 00 00     a...............
 800016c:	00 00 00 00 63 03 00 08 65 03 00 08 67 03 00 08     ....c...e...g...
 800017c:	69 03 00 08 6b 03 00 08 6d 03 00 08 6f 03 00 08     i...k...m...o...
 800018c:	71 03 00 08 73 03 00 08 75 03 00 08 77 03 00 08     q...s...u...w...
 800019c:	79 03 00 08 7b 03 00 08 7d 03 00 08 7f 03 00 08     y...{...}.......
 80001ac:	81 03 00 08 83 03 00 08 85 03 00 08 87 03 00 08     ................
 80001bc:	89 03 00 08 8b 03 00 08 8d 03 00 08 8f 03 00 08     ................
 80001cc:	91 03 00 08 93 03 00 08 95 03 00 08 97 03 00 08     ................
 80001dc:	00 00 00 00 99 03 00 08 9b 03 00 08 9d 03 00 08     ................
 80001ec:	9f 03 00 08 a1 03 00 08 00 00 00 00 a3 03 00 08     ................
 80001fc:	00 00 00 00                                         ....

08000200 <__Xmc4500_reset_cortex_m>:
 8000200:	f8df d00c 	ldr.w	sp, [pc, #12]	; 8000210 <__Xmc4500_reset_cortex_m+0x10>
 8000204:	4803      	ldr	r0, [pc, #12]	; (8000214 <__Xmc4500_reset_cortex_m+0x14>)
 8000206:	4780      	blx	r0
 8000208:	4803      	ldr	r0, [pc, #12]	; (8000218 <__Xmc4500_reset_cortex_m+0x18>)
 800020a:	4780      	blx	r0
 800020c:	f000 b817 	b.w	800023e <__Xmc4500_Program_Loader>
 8000210:	10000800 	.word	0x10000800
 8000214:	0800041d 	.word	0x0800041d
 8000218:	08001979 	.word	0x08001979

0800021c <__COPY_FLASH2RAM>:
 800021c:	2a00      	cmp	r2, #0
 800021e:	f000 800d 	beq.w	800023c <SKIPCOPY>

08000222 <STARTCOPY>:
 8000222:	ea4f 0292 	mov.w	r2, r2, lsr #2

08000226 <COPYLOOP>:
 8000226:	6803      	ldr	r3, [r0, #0]
 8000228:	600b      	str	r3, [r1, #0]
 800022a:	3a01      	subs	r2, #1
 800022c:	f000 8006 	beq.w	800023c <SKIPCOPY>
 8000230:	f100 0004 	add.w	r0, r0, #4
 8000234:	f101 0104 	add.w	r1, r1, #4
 8000238:	f7ff bff5 	b.w	8000226 <COPYLOOP>

0800023c <SKIPCOPY>:
 800023c:	4770      	bx	lr

0800023e <__Xmc4500_Program_Loader>:
 800023e:	4814      	ldr	r0, [pc, #80]	; (8000290 <SKIPCLEAR+0x1c>)
 8000240:	4914      	ldr	r1, [pc, #80]	; (8000294 <SKIPCLEAR+0x20>)
 8000242:	4a15      	ldr	r2, [pc, #84]	; (8000298 <SKIPCLEAR+0x24>)
 8000244:	f7ff ffea 	bl	800021c <__COPY_FLASH2RAM>
 8000248:	4814      	ldr	r0, [pc, #80]	; (800029c <SKIPCLEAR+0x28>)
 800024a:	4915      	ldr	r1, [pc, #84]	; (80002a0 <SKIPCLEAR+0x2c>)
 800024c:	4a15      	ldr	r2, [pc, #84]	; (80002a4 <SKIPCLEAR+0x30>)
 800024e:	f7ff ffe5 	bl	800021c <__COPY_FLASH2RAM>
 8000252:	4815      	ldr	r0, [pc, #84]	; (80002a8 <SKIPCLEAR+0x34>)
 8000254:	4915      	ldr	r1, [pc, #84]	; (80002ac <SKIPCLEAR+0x38>)
 8000256:	2900      	cmp	r1, #0
 8000258:	f000 800c 	beq.w	8000274 <SKIPCLEAR>

0800025c <STARTCLEAR>:
 800025c:	ea4f 0191 	mov.w	r1, r1, lsr #2
 8000260:	f04f 0200 	mov.w	r2, #0

08000264 <CLEARLOOP>:
 8000264:	6002      	str	r2, [r0, #0]
 8000266:	3901      	subs	r1, #1
 8000268:	f000 8004 	beq.w	8000274 <SKIPCLEAR>
 800026c:	f100 0004 	add.w	r0, r0, #4
 8000270:	f7ff bff8 	b.w	8000264 <CLEARLOOP>

08000274 <SKIPCLEAR>:
 8000274:	480e      	ldr	r0, [pc, #56]	; (80002b0 <SKIPCLEAR+0x3c>)
 8000276:	490f      	ldr	r1, [pc, #60]	; (80002b4 <SKIPCLEAR+0x40>)
 8000278:	6008      	str	r0, [r1, #0]
 800027a:	480f      	ldr	r0, [pc, #60]	; (80002b8 <SKIPCLEAR+0x44>)
 800027c:	4780      	blx	r0
 800027e:	f8df d03c 	ldr.w	sp, [pc, #60]	; 80002bc <SKIPCLEAR+0x48>
 8000282:	f04f 0000 	mov.w	r0, #0
 8000286:	f04f 0100 	mov.w	r1, #0
 800028a:	f8df f034 	ldr.w	pc, [pc, #52]	; 80002c0 <SKIPCLEAR+0x4c>
 800028e:	0000      	.short	0x0000
 8000290:	0c002fb0 	.word	0x0c002fb0
 8000294:	20000000 	.word	0x20000000
 8000298:	00000014 	.word	0x00000014
 800029c:	0c002fc4 	.word	0x0c002fc4
 80002a0:	10000800 	.word	0x10000800
 80002a4:	00000000 	.word	0x00000000
 80002a8:	20000014 	.word	0x20000014
 80002ac:	000000b4 	.word	0x000000b4
 80002b0:	08000000 	.word	0x08000000
 80002b4:	e000ed08 	.word	0xe000ed08
 80002b8:	08002de1 	.word	0x08002de1
 80002bc:	10000800 	.word	0x10000800
 80002c0:	08000bf5 	.word	0x08000bf5
 80002c4:	bf00      	nop
 80002c6:	4770      	bx	lr

080002c8 <NMI_Handler>:
 80002c8:	e7fe      	b.n	80002c8 <NMI_Handler>

080002ca <HardFault_Handler>:
 80002ca:	e7fe      	b.n	80002ca <HardFault_Handler>

080002cc <MemManage_Handler>:
 80002cc:	e7fe      	b.n	80002cc <MemManage_Handler>

080002ce <BusFault_Handler>:
 80002ce:	e7fe      	b.n	80002ce <BusFault_Handler>

080002d0 <UsageFault_Handler>:
 80002d0:	e7fe      	b.n	80002d0 <UsageFault_Handler>

080002d2 <SVC_Handler>:
 80002d2:	e7fe      	b.n	80002d2 <SVC_Handler>

080002d4 <DebugMon_Handler>:
 80002d4:	e7fe      	b.n	80002d4 <DebugMon_Handler>

080002d6 <PendSV_Handler>:
 80002d6:	e7fe      	b.n	80002d6 <PendSV_Handler>

080002d8 <SysTick_Handler>:
 80002d8:	e7fe      	b.n	80002d8 <SysTick_Handler>

080002da <SCU_0_IRQHandler>:
 80002da:	e7fe      	b.n	80002da <SCU_0_IRQHandler>

080002dc <ERU0_0_IRQHandler>:
 80002dc:	e7fe      	b.n	80002dc <ERU0_0_IRQHandler>

080002de <ERU0_1_IRQHandler>:
 80002de:	e7fe      	b.n	80002de <ERU0_1_IRQHandler>

080002e0 <ERU0_2_IRQHandler>:
 80002e0:	e7fe      	b.n	80002e0 <ERU0_2_IRQHandler>

080002e2 <ERU0_3_IRQHandler>:
 80002e2:	e7fe      	b.n	80002e2 <ERU0_3_IRQHandler>

080002e4 <ERU1_0_IRQHandler>:
 80002e4:	e7fe      	b.n	80002e4 <ERU1_0_IRQHandler>

080002e6 <ERU1_1_IRQHandler>:
 80002e6:	e7fe      	b.n	80002e6 <ERU1_1_IRQHandler>

080002e8 <ERU1_2_IRQHandler>:
 80002e8:	e7fe      	b.n	80002e8 <ERU1_2_IRQHandler>

080002ea <ERU1_3_IRQHandler>:
 80002ea:	e7fe      	b.n	80002ea <ERU1_3_IRQHandler>

080002ec <PMU0_0_IRQHandler>:
 80002ec:	e7fe      	b.n	80002ec <PMU0_0_IRQHandler>

080002ee <VADC0_C0_0_IRQHandler>:
 80002ee:	e7fe      	b.n	80002ee <VADC0_C0_0_IRQHandler>

080002f0 <VADC0_C0_1_IRQHandler>:
 80002f0:	e7fe      	b.n	80002f0 <VADC0_C0_1_IRQHandler>
 80002f2:	e7fe      	b.n	80002f2 <VADC0_C0_1_IRQHandler+0x2>

080002f4 <VADC0_C0_3_IRQHandler>:
 80002f4:	e7fe      	b.n	80002f4 <VADC0_C0_3_IRQHandler>

080002f6 <VADC0_G0_0_IRQHandler>:
 80002f6:	e7fe      	b.n	80002f6 <VADC0_G0_0_IRQHandler>

080002f8 <VADC0_G0_1_IRQHandler>:
 80002f8:	e7fe      	b.n	80002f8 <VADC0_G0_1_IRQHandler>

080002fa <VADC0_G0_2_IRQHandler>:
 80002fa:	e7fe      	b.n	80002fa <VADC0_G0_2_IRQHandler>

080002fc <VADC0_G0_3_IRQHandler>:
 80002fc:	e7fe      	b.n	80002fc <VADC0_G0_3_IRQHandler>

080002fe <VADC0_G1_0_IRQHandler>:
 80002fe:	e7fe      	b.n	80002fe <VADC0_G1_0_IRQHandler>

08000300 <VADC0_G1_1_IRQHandler>:
 8000300:	e7fe      	b.n	8000300 <VADC0_G1_1_IRQHandler>

08000302 <VADC0_G1_2_IRQHandler>:
 8000302:	e7fe      	b.n	8000302 <VADC0_G1_2_IRQHandler>

08000304 <VADC0_G1_3_IRQHandler>:
 8000304:	e7fe      	b.n	8000304 <VADC0_G1_3_IRQHandler>

08000306 <VADC0_G2_0_IRQHandler>:
 8000306:	e7fe      	b.n	8000306 <VADC0_G2_0_IRQHandler>

08000308 <VADC0_G2_1_IRQHandler>:
 8000308:	e7fe      	b.n	8000308 <VADC0_G2_1_IRQHandler>

0800030a <VADC0_G2_2_IRQHandler>:
 800030a:	e7fe      	b.n	800030a <VADC0_G2_2_IRQHandler>

0800030c <VADC0_G2_3_IRQHandler>:
 800030c:	e7fe      	b.n	800030c <VADC0_G2_3_IRQHandler>

0800030e <VADC0_G3_0_IRQHandler>:
 800030e:	e7fe      	b.n	800030e <VADC0_G3_0_IRQHandler>

08000310 <VADC0_G3_1_IRQHandler>:
 8000310:	e7fe      	b.n	8000310 <VADC0_G3_1_IRQHandler>

08000312 <VADC0_G3_2_IRQHandler>:
 8000312:	e7fe      	b.n	8000312 <VADC0_G3_2_IRQHandler>

08000314 <VADC0_G3_3_IRQHandler>:
 8000314:	e7fe      	b.n	8000314 <VADC0_G3_3_IRQHandler>

08000316 <DSD0_0_IRQHandler>:
 8000316:	e7fe      	b.n	8000316 <DSD0_0_IRQHandler>

08000318 <DSD0_1_IRQHandler>:
 8000318:	e7fe      	b.n	8000318 <DSD0_1_IRQHandler>

0800031a <DSD0_2_IRQHandler>:
 800031a:	e7fe      	b.n	800031a <DSD0_2_IRQHandler>

0800031c <DSD0_3_IRQHandler>:
 800031c:	e7fe      	b.n	800031c <DSD0_3_IRQHandler>

0800031e <DSD0_4_IRQHandler>:
 800031e:	e7fe      	b.n	800031e <DSD0_4_IRQHandler>

08000320 <DSD0_5_IRQHandler>:
 8000320:	e7fe      	b.n	8000320 <DSD0_5_IRQHandler>

08000322 <DSD0_6_IRQHandler>:
 8000322:	e7fe      	b.n	8000322 <DSD0_6_IRQHandler>

08000324 <DSD0_7_IRQHandler>:
 8000324:	e7fe      	b.n	8000324 <DSD0_7_IRQHandler>

08000326 <DAC0_0_IRQHandler>:
 8000326:	e7fe      	b.n	8000326 <DAC0_0_IRQHandler>

08000328 <DAC0_1_IRQHandler>:
 8000328:	e7fe      	b.n	8000328 <DAC0_1_IRQHandler>

0800032a <CCU40_0_IRQHandler>:
 800032a:	e7fe      	b.n	800032a <CCU40_0_IRQHandler>

0800032c <CCU40_1_IRQHandler>:
 800032c:	e7fe      	b.n	800032c <CCU40_1_IRQHandler>

0800032e <CCU40_2_IRQHandler>:
 800032e:	e7fe      	b.n	800032e <CCU40_2_IRQHandler>

08000330 <CCU40_3_IRQHandler>:
 8000330:	e7fe      	b.n	8000330 <CCU40_3_IRQHandler>

08000332 <CCU41_0_IRQHandler>:
 8000332:	e7fe      	b.n	8000332 <CCU41_0_IRQHandler>

08000334 <CCU41_1_IRQHandler>:
 8000334:	e7fe      	b.n	8000334 <CCU41_1_IRQHandler>

08000336 <CCU41_2_IRQHandler>:
 8000336:	e7fe      	b.n	8000336 <CCU41_2_IRQHandler>

08000338 <CCU41_3_IRQHandler>:
 8000338:	e7fe      	b.n	8000338 <CCU41_3_IRQHandler>

0800033a <CCU42_0_IRQHandler>:
 800033a:	e7fe      	b.n	800033a <CCU42_0_IRQHandler>

0800033c <CCU42_1_IRQHandler>:
 800033c:	e7fe      	b.n	800033c <CCU42_1_IRQHandler>

0800033e <CCU42_2_IRQHandler>:
 800033e:	e7fe      	b.n	800033e <CCU42_2_IRQHandler>

08000340 <CCU42_3_IRQHandler>:
 8000340:	e7fe      	b.n	8000340 <CCU42_3_IRQHandler>

08000342 <CCU43_0_IRQHandler>:
 8000342:	e7fe      	b.n	8000342 <CCU43_0_IRQHandler>

08000344 <CCU43_1_IRQHandler>:
 8000344:	e7fe      	b.n	8000344 <CCU43_1_IRQHandler>

08000346 <CCU43_2_IRQHandler>:
 8000346:	e7fe      	b.n	8000346 <CCU43_2_IRQHandler>

08000348 <CCU43_3_IRQHandler>:
 8000348:	e7fe      	b.n	8000348 <CCU43_3_IRQHandler>

0800034a <CCU80_0_IRQHandler>:
 800034a:	e7fe      	b.n	800034a <CCU80_0_IRQHandler>

0800034c <CCU80_1_IRQHandler>:
 800034c:	e7fe      	b.n	800034c <CCU80_1_IRQHandler>

0800034e <CCU80_2_IRQHandler>:
 800034e:	e7fe      	b.n	800034e <CCU80_2_IRQHandler>

08000350 <CCU80_3_IRQHandler>:
 8000350:	e7fe      	b.n	8000350 <CCU80_3_IRQHandler>

08000352 <CCU81_0_IRQHandler>:
 8000352:	e7fe      	b.n	8000352 <CCU81_0_IRQHandler>

08000354 <CCU81_1_IRQHandler>:
 8000354:	e7fe      	b.n	8000354 <CCU81_1_IRQHandler>

08000356 <CCU81_2_IRQHandler>:
 8000356:	e7fe      	b.n	8000356 <CCU81_2_IRQHandler>

08000358 <CCU81_3_IRQHandler>:
 8000358:	e7fe      	b.n	8000358 <CCU81_3_IRQHandler>

0800035a <POSIF0_0_IRQHandler>:
 800035a:	e7fe      	b.n	800035a <POSIF0_0_IRQHandler>

0800035c <POSIF0_1_IRQHandler>:
 800035c:	e7fe      	b.n	800035c <POSIF0_1_IRQHandler>

0800035e <POSIF1_0_IRQHandler>:
 800035e:	e7fe      	b.n	800035e <POSIF1_0_IRQHandler>

08000360 <POSIF1_1_IRQHandler>:
 8000360:	e7fe      	b.n	8000360 <POSIF1_1_IRQHandler>

08000362 <CAN0_0_IRQHandler>:
 8000362:	e7fe      	b.n	8000362 <CAN0_0_IRQHandler>

08000364 <CAN0_1_IRQHandler>:
 8000364:	e7fe      	b.n	8000364 <CAN0_1_IRQHandler>

08000366 <CAN0_2_IRQHandler>:
 8000366:	e7fe      	b.n	8000366 <CAN0_2_IRQHandler>

08000368 <CAN0_3_IRQHandler>:
 8000368:	e7fe      	b.n	8000368 <CAN0_3_IRQHandler>

0800036a <CAN0_4_IRQHandler>:
 800036a:	e7fe      	b.n	800036a <CAN0_4_IRQHandler>

0800036c <CAN0_5_IRQHandler>:
 800036c:	e7fe      	b.n	800036c <CAN0_5_IRQHandler>

0800036e <CAN0_6_IRQHandler>:
 800036e:	e7fe      	b.n	800036e <CAN0_6_IRQHandler>

08000370 <CAN0_7_IRQHandler>:
 8000370:	e7fe      	b.n	8000370 <CAN0_7_IRQHandler>

08000372 <USIC0_0_IRQHandler>:
 8000372:	e7fe      	b.n	8000372 <USIC0_0_IRQHandler>

08000374 <USIC0_1_IRQHandler>:
 8000374:	e7fe      	b.n	8000374 <USIC0_1_IRQHandler>

08000376 <USIC0_2_IRQHandler>:
 8000376:	e7fe      	b.n	8000376 <USIC0_2_IRQHandler>

08000378 <USIC0_3_IRQHandler>:
 8000378:	e7fe      	b.n	8000378 <USIC0_3_IRQHandler>

0800037a <USIC0_4_IRQHandler>:
 800037a:	e7fe      	b.n	800037a <USIC0_4_IRQHandler>

0800037c <USIC0_5_IRQHandler>:
 800037c:	e7fe      	b.n	800037c <USIC0_5_IRQHandler>

0800037e <USIC1_0_IRQHandler>:
 800037e:	e7fe      	b.n	800037e <USIC1_0_IRQHandler>

08000380 <USIC1_1_IRQHandler>:
 8000380:	e7fe      	b.n	8000380 <USIC1_1_IRQHandler>

08000382 <USIC1_2_IRQHandler>:
 8000382:	e7fe      	b.n	8000382 <USIC1_2_IRQHandler>

08000384 <USIC1_3_IRQHandler>:
 8000384:	e7fe      	b.n	8000384 <USIC1_3_IRQHandler>

08000386 <USIC1_4_IRQHandler>:
 8000386:	e7fe      	b.n	8000386 <USIC1_4_IRQHandler>

08000388 <USIC1_5_IRQHandler>:
 8000388:	e7fe      	b.n	8000388 <USIC1_5_IRQHandler>

0800038a <USIC2_0_IRQHandler>:
 800038a:	e7fe      	b.n	800038a <USIC2_0_IRQHandler>

0800038c <USIC2_1_IRQHandler>:
 800038c:	e7fe      	b.n	800038c <USIC2_1_IRQHandler>

0800038e <USIC2_2_IRQHandler>:
 800038e:	e7fe      	b.n	800038e <USIC2_2_IRQHandler>

08000390 <USIC2_3_IRQHandler>:
 8000390:	e7fe      	b.n	8000390 <USIC2_3_IRQHandler>

08000392 <USIC2_4_IRQHandler>:
 8000392:	e7fe      	b.n	8000392 <USIC2_4_IRQHandler>

08000394 <USIC2_5_IRQHandler>:
 8000394:	e7fe      	b.n	8000394 <USIC2_5_IRQHandler>

08000396 <LEDTS0_0_IRQHandler>:
 8000396:	e7fe      	b.n	8000396 <LEDTS0_0_IRQHandler>

08000398 <FCE0_0_IRQHandler>:
 8000398:	e7fe      	b.n	8000398 <FCE0_0_IRQHandler>

0800039a <GPDMA0_0_IRQHandler>:
 800039a:	e7fe      	b.n	800039a <GPDMA0_0_IRQHandler>

0800039c <SDMMC0_0_IRQHandler>:
 800039c:	e7fe      	b.n	800039c <SDMMC0_0_IRQHandler>

0800039e <USB0_0_IRQHandler>:
 800039e:	e7fe      	b.n	800039e <USB0_0_IRQHandler>

080003a0 <ETH0_0_IRQHandler>:
 80003a0:	e7fe      	b.n	80003a0 <ETH0_0_IRQHandler>

080003a2 <GPDMA1_0_IRQHandler>:
 80003a2:	e7fe      	b.n	80003a2 <GPDMA1_0_IRQHandler>
 80003a4:	f04f 0001 	mov.w	r0, #1
 80003a8:	4770      	bx	lr
	...

080003ac <SystemCoreClockUpdate>:
 80003ac:	4a16      	ldr	r2, [pc, #88]	; (8000408 <SystemCoreClockUpdate+0x5c>)
 80003ae:	68d3      	ldr	r3, [r2, #12]
 80003b0:	f5b3 3f80 	cmp.w	r3, #65536	; 0x10000
 80003b4:	b530      	push	{r4, r5, lr}
 80003b6:	d122      	bne.n	80003fe <SystemCoreClockUpdate+0x52>
 80003b8:	4b14      	ldr	r3, [pc, #80]	; (800040c <SystemCoreClockUpdate+0x60>)
 80003ba:	6818      	ldr	r0, [r3, #0]
 80003bc:	0741      	lsls	r1, r0, #29
 80003be:	d521      	bpl.n	8000404 <SystemCoreClockUpdate+0x58>
 80003c0:	689c      	ldr	r4, [r3, #8]
 80003c2:	6898      	ldr	r0, [r3, #8]
 80003c4:	f3c4 6103 	ubfx	r1, r4, #24, #4
 80003c8:	1c4c      	adds	r4, r1, #1
 80003ca:	f3c0 2106 	ubfx	r1, r0, #8, #7
 80003ce:	1c48      	adds	r0, r1, #1
 80003d0:	6899      	ldr	r1, [r3, #8]
 80003d2:	68db      	ldr	r3, [r3, #12]
 80003d4:	68d2      	ldr	r2, [r2, #12]
 80003d6:	f3c1 4106 	ubfx	r1, r1, #16, #7
 80003da:	3101      	adds	r1, #1
 80003dc:	f013 0f01 	tst.w	r3, #1
 80003e0:	bf14      	ite	ne
 80003e2:	4d0b      	ldrne	r5, [pc, #44]	; (8000410 <SystemCoreClockUpdate+0x64>)
 80003e4:	4d0b      	ldreq	r5, [pc, #44]	; (8000414 <SystemCoreClockUpdate+0x68>)
 80003e6:	4b0c      	ldr	r3, [pc, #48]	; (8000418 <SystemCoreClockUpdate+0x6c>)
 80003e8:	fbb5 f4f4 	udiv	r4, r5, r4
 80003ec:	4360      	muls	r0, r4
 80003ee:	fbb0 f0f1 	udiv	r0, r0, r1
 80003f2:	b2d1      	uxtb	r1, r2
 80003f4:	1c4a      	adds	r2, r1, #1
 80003f6:	fbb0 f0f2 	udiv	r0, r0, r2
 80003fa:	6018      	str	r0, [r3, #0]
 80003fc:	bd30      	pop	{r4, r5, pc}
 80003fe:	4804      	ldr	r0, [pc, #16]	; (8000410 <SystemCoreClockUpdate+0x64>)
 8000400:	4905      	ldr	r1, [pc, #20]	; (8000418 <SystemCoreClockUpdate+0x6c>)
 8000402:	6008      	str	r0, [r1, #0]
 8000404:	bd30      	pop	{r4, r5, pc}
 8000406:	bf00      	nop
 8000408:	50004600 	.word	0x50004600
 800040c:	50004710 	.word	0x50004710
 8000410:	016e3600 	.word	0x016e3600
 8000414:	00b71b00 	.word	0x00b71b00
 8000418:	20000000 	.word	0x20000000

0800041c <SystemInit>:
 800041c:	4b73      	ldr	r3, [pc, #460]	; (80005ec <SystemInit+0x1d0>)
 800041e:	f8d3 2088 	ldr.w	r2, [r3, #136]	; 0x88
 8000422:	f442 0070 	orr.w	r0, r2, #15728640	; 0xf00000
 8000426:	b510      	push	{r4, lr}
 8000428:	f8c3 0088 	str.w	r0, [r3, #136]	; 0x88
 800042c:	6959      	ldr	r1, [r3, #20]
 800042e:	f021 0208 	bic.w	r2, r1, #8
 8000432:	615a      	str	r2, [r3, #20]
 8000434:	4b6e      	ldr	r3, [pc, #440]	; (80005f0 <SystemInit+0x1d4>)
 8000436:	6858      	ldr	r0, [r3, #4]
 8000438:	f020 0101 	bic.w	r1, r0, #1
 800043c:	6059      	str	r1, [r3, #4]
 800043e:	4b6d      	ldr	r3, [pc, #436]	; (80005f4 <SystemInit+0x1d8>)
 8000440:	695a      	ldr	r2, [r3, #20]
 8000442:	f022 000f 	bic.w	r0, r2, #15
 8000446:	f040 0103 	orr.w	r1, r0, #3
 800044a:	6159      	str	r1, [r3, #20]
 800044c:	f001 fbea 	bl	8001c24 <AllowPLLInitByStartup>
 8000450:	2800      	cmp	r0, #0
 8000452:	f000 80c7 	beq.w	80005e4 <SystemInit+0x1c8>
 8000456:	4b68      	ldr	r3, [pc, #416]	; (80005f8 <SystemInit+0x1dc>)
 8000458:	4a68      	ldr	r2, [pc, #416]	; (80005fc <SystemInit+0x1e0>)
 800045a:	6858      	ldr	r0, [r3, #4]
 800045c:	4002      	ands	r2, r0
 800045e:	b12a      	cbz	r2, 800046c <SystemInit+0x50>
 8000460:	6859      	ldr	r1, [r3, #4]
 8000462:	f421 3080 	bic.w	r0, r1, #65536	; 0x10000
 8000466:	f020 0202 	bic.w	r2, r0, #2
 800046a:	605a      	str	r2, [r3, #4]
 800046c:	4b64      	ldr	r3, [pc, #400]	; (8000600 <SystemInit+0x1e4>)
 800046e:	6859      	ldr	r1, [r3, #4]
 8000470:	f011 0f30 	tst.w	r1, #48	; 0x30
 8000474:	d104      	bne.n	8000480 <SystemInit+0x64>
 8000476:	4b60      	ldr	r3, [pc, #384]	; (80005f8 <SystemInit+0x1dc>)
 8000478:	6818      	ldr	r0, [r3, #0]
 800047a:	0740      	lsls	r0, r0, #29
 800047c:	d531      	bpl.n	80004e2 <SystemInit+0xc6>
 800047e:	e0b1      	b.n	80005e4 <SystemInit+0x1c8>
 8000480:	6858      	ldr	r0, [r3, #4]
 8000482:	f020 02f0 	bic.w	r2, r0, #240	; 0xf0
 8000486:	605a      	str	r2, [r3, #4]
 8000488:	6859      	ldr	r1, [r3, #4]
 800048a:	f441 3000 	orr.w	r0, r1, #131072	; 0x20000
 800048e:	6058      	str	r0, [r3, #4]
 8000490:	4b59      	ldr	r3, [pc, #356]	; (80005f8 <SystemInit+0x1dc>)
 8000492:	68da      	ldr	r2, [r3, #12]
 8000494:	f022 0101 	bic.w	r1, r2, #1
 8000498:	60d9      	str	r1, [r3, #12]
 800049a:	6858      	ldr	r0, [r3, #4]
 800049c:	4959      	ldr	r1, [pc, #356]	; (8000604 <SystemInit+0x1e8>)
 800049e:	f420 3200 	bic.w	r2, r0, #131072	; 0x20000
 80004a2:	605a      	str	r2, [r3, #4]
 80004a4:	4b58      	ldr	r3, [pc, #352]	; (8000608 <SystemInit+0x1ec>)
 80004a6:	2000      	movs	r0, #0
 80004a8:	2205      	movs	r2, #5
 80004aa:	6059      	str	r1, [r3, #4]
 80004ac:	6098      	str	r0, [r3, #8]
 80004ae:	601a      	str	r2, [r3, #0]
 80004b0:	4b51      	ldr	r3, [pc, #324]	; (80005f8 <SystemInit+0x1dc>)
 80004b2:	6819      	ldr	r1, [r3, #0]
 80004b4:	4b54      	ldr	r3, [pc, #336]	; (8000608 <SystemInit+0x1ec>)
 80004b6:	f401 7060 	and.w	r0, r1, #896	; 0x380
 80004ba:	f5b0 7f60 	cmp.w	r0, #896	; 0x380
 80004be:	d003      	beq.n	80004c8 <SystemInit+0xac>
 80004c0:	689a      	ldr	r2, [r3, #8]
 80004c2:	f5b2 7ffa 	cmp.w	r2, #500	; 0x1f4
 80004c6:	d2f3      	bcs.n	80004b0 <SystemInit+0x94>
 80004c8:	6819      	ldr	r1, [r3, #0]
 80004ca:	f021 0001 	bic.w	r0, r1, #1
 80004ce:	6018      	str	r0, [r3, #0]
 80004d0:	4b49      	ldr	r3, [pc, #292]	; (80005f8 <SystemInit+0x1dc>)
 80004d2:	681a      	ldr	r2, [r3, #0]
 80004d4:	f402 7160 	and.w	r1, r2, #896	; 0x380
 80004d8:	f5b1 7f60 	cmp.w	r1, #896	; 0x380
 80004dc:	f040 8082 	bne.w	80005e4 <SystemInit+0x1c8>
 80004e0:	e7c9      	b.n	8000476 <SystemInit+0x5a>
 80004e2:	4a4a      	ldr	r2, [pc, #296]	; (800060c <SystemInit+0x1f0>)
 80004e4:	68d1      	ldr	r1, [r2, #12]
 80004e6:	03c9      	lsls	r1, r1, #15
 80004e8:	d503      	bpl.n	80004f2 <SystemInit+0xd6>
 80004ea:	68d0      	ldr	r0, [r2, #12]
 80004ec:	f420 3180 	bic.w	r1, r0, #65536	; 0x10000
 80004f0:	60d1      	str	r1, [r2, #12]
 80004f2:	685a      	ldr	r2, [r3, #4]
 80004f4:	f042 0001 	orr.w	r0, r2, #1
 80004f8:	6058      	str	r0, [r3, #4]
 80004fa:	6859      	ldr	r1, [r3, #4]
 80004fc:	4844      	ldr	r0, [pc, #272]	; (8000610 <SystemInit+0x1f4>)
 80004fe:	f041 0210 	orr.w	r2, r1, #16
 8000502:	605a      	str	r2, [r3, #4]
 8000504:	6098      	str	r0, [r3, #8]
 8000506:	6859      	ldr	r1, [r3, #4]
 8000508:	f041 0240 	orr.w	r2, r1, #64	; 0x40
 800050c:	605a      	str	r2, [r3, #4]
 800050e:	6858      	ldr	r0, [r3, #4]
 8000510:	f020 0110 	bic.w	r1, r0, #16
 8000514:	6059      	str	r1, [r3, #4]
 8000516:	685a      	ldr	r2, [r3, #4]
 8000518:	493a      	ldr	r1, [pc, #232]	; (8000604 <SystemInit+0x1e8>)
 800051a:	f442 2080 	orr.w	r0, r2, #262144	; 0x40000
 800051e:	6058      	str	r0, [r3, #4]
 8000520:	4b39      	ldr	r3, [pc, #228]	; (8000608 <SystemInit+0x1ec>)
 8000522:	2200      	movs	r2, #0
 8000524:	2005      	movs	r0, #5
 8000526:	6059      	str	r1, [r3, #4]
 8000528:	609a      	str	r2, [r3, #8]
 800052a:	6018      	str	r0, [r3, #0]
 800052c:	4b32      	ldr	r3, [pc, #200]	; (80005f8 <SystemInit+0x1dc>)
 800052e:	6819      	ldr	r1, [r3, #0]
 8000530:	4b35      	ldr	r3, [pc, #212]	; (8000608 <SystemInit+0x1ec>)
 8000532:	f011 0f04 	tst.w	r1, #4
 8000536:	d103      	bne.n	8000540 <SystemInit+0x124>
 8000538:	689a      	ldr	r2, [r3, #8]
 800053a:	f5b2 7ffa 	cmp.w	r2, #500	; 0x1f4
 800053e:	d2f5      	bcs.n	800052c <SystemInit+0x110>
 8000540:	6819      	ldr	r1, [r3, #0]
 8000542:	4831      	ldr	r0, [pc, #196]	; (8000608 <SystemInit+0x1ec>)
 8000544:	f021 0201 	bic.w	r2, r1, #1
 8000548:	601a      	str	r2, [r3, #0]
 800054a:	4b2b      	ldr	r3, [pc, #172]	; (80005f8 <SystemInit+0x1dc>)
 800054c:	6819      	ldr	r1, [r3, #0]
 800054e:	074a      	lsls	r2, r1, #29
 8000550:	d548      	bpl.n	80005e4 <SystemInit+0x1c8>
 8000552:	685c      	ldr	r4, [r3, #4]
 8000554:	f024 0201 	bic.w	r2, r4, #1
 8000558:	605a      	str	r2, [r3, #4]
 800055a:	4a2c      	ldr	r2, [pc, #176]	; (800060c <SystemInit+0x1f0>)
 800055c:	2100      	movs	r1, #0
 800055e:	6111      	str	r1, [r2, #16]
 8000560:	6151      	str	r1, [r2, #20]
 8000562:	6211      	str	r1, [r2, #32]
 8000564:	68d4      	ldr	r4, [r2, #12]
 8000566:	f444 3480 	orr.w	r4, r4, #65536	; 0x10000
 800056a:	60d4      	str	r4, [r2, #12]
 800056c:	685a      	ldr	r2, [r3, #4]
 800056e:	f022 0240 	bic.w	r2, r2, #64	; 0x40
 8000572:	605a      	str	r2, [r3, #4]
 8000574:	f240 5345 	movw	r3, #1349	; 0x545
 8000578:	6043      	str	r3, [r0, #4]
 800057a:	6081      	str	r1, [r0, #8]
 800057c:	2105      	movs	r1, #5
 800057e:	6001      	str	r1, [r0, #0]
 8000580:	4821      	ldr	r0, [pc, #132]	; (8000608 <SystemInit+0x1ec>)
 8000582:	6882      	ldr	r2, [r0, #8]
 8000584:	2a63      	cmp	r2, #99	; 0x63
 8000586:	d8fb      	bhi.n	8000580 <SystemInit+0x164>
 8000588:	6803      	ldr	r3, [r0, #0]
 800058a:	4a1b      	ldr	r2, [pc, #108]	; (80005f8 <SystemInit+0x1dc>)
 800058c:	f023 0101 	bic.w	r1, r3, #1
 8000590:	4b20      	ldr	r3, [pc, #128]	; (8000614 <SystemInit+0x1f8>)
 8000592:	6001      	str	r1, [r0, #0]
 8000594:	f640 411b 	movw	r1, #3099	; 0xc1b
 8000598:	6093      	str	r3, [r2, #8]
 800059a:	6041      	str	r1, [r0, #4]
 800059c:	2300      	movs	r3, #0
 800059e:	2105      	movs	r1, #5
 80005a0:	6083      	str	r3, [r0, #8]
 80005a2:	6001      	str	r1, [r0, #0]
 80005a4:	4818      	ldr	r0, [pc, #96]	; (8000608 <SystemInit+0x1ec>)
 80005a6:	6883      	ldr	r3, [r0, #8]
 80005a8:	2b63      	cmp	r3, #99	; 0x63
 80005aa:	d8fb      	bhi.n	80005a4 <SystemInit+0x188>
 80005ac:	6801      	ldr	r1, [r0, #0]
 80005ae:	f021 0301 	bic.w	r3, r1, #1
 80005b2:	4919      	ldr	r1, [pc, #100]	; (8000618 <SystemInit+0x1fc>)
 80005b4:	6003      	str	r3, [r0, #0]
 80005b6:	6091      	str	r1, [r2, #8]
 80005b8:	2300      	movs	r3, #0
 80005ba:	f241 3223 	movw	r2, #4899	; 0x1323
 80005be:	2105      	movs	r1, #5
 80005c0:	6042      	str	r2, [r0, #4]
 80005c2:	6083      	str	r3, [r0, #8]
 80005c4:	6001      	str	r1, [r0, #0]
 80005c6:	4810      	ldr	r0, [pc, #64]	; (8000608 <SystemInit+0x1ec>)
 80005c8:	6882      	ldr	r2, [r0, #8]
 80005ca:	2a63      	cmp	r2, #99	; 0x63
 80005cc:	d8fb      	bhi.n	80005c6 <SystemInit+0x1aa>
 80005ce:	6803      	ldr	r3, [r0, #0]
 80005d0:	f023 0101 	bic.w	r1, r3, #1
 80005d4:	4b08      	ldr	r3, [pc, #32]	; (80005f8 <SystemInit+0x1dc>)
 80005d6:	6001      	str	r1, [r0, #0]
 80005d8:	4810      	ldr	r0, [pc, #64]	; (800061c <SystemInit+0x200>)
 80005da:	f5a3 61b6 	sub.w	r1, r3, #1456	; 0x5b0
 80005de:	2205      	movs	r2, #5
 80005e0:	6098      	str	r0, [r3, #8]
 80005e2:	60ca      	str	r2, [r1, #12]
 80005e4:	e8bd 4010 	ldmia.w	sp!, {r4, lr}
 80005e8:	f7ff bee0 	b.w	80003ac <SystemCoreClockUpdate>
 80005ec:	e000ed00 	.word	0xe000ed00
 80005f0:	50008000 	.word	0x50008000
 80005f4:	58002000 	.word	0x58002000
 80005f8:	50004710 	.word	0x50004710
 80005fc:	00010002 	.word	0x00010002
 8000600:	50004700 	.word	0x50004700
 8000604:	004c4ba3 	.word	0x004c4ba3
 8000608:	e000e010 	.word	0xe000e010
 800060c:	50004600 	.word	0x50004600
 8000610:	01134f01 	.word	0x01134f01
 8000614:	01074f01 	.word	0x01074f01
 8000618:	01044f01 	.word	0x01044f01
 800061c:	01034f01 	.word	0x01034f01

08000620 <delay>:
 8000620:	f110 30ff 	adds.w	r0, r0, #4294967295
 8000624:	d301      	bcc.n	800062a <delay+0xa>
 8000626:	bf00      	nop
 8000628:	e7fa      	b.n	8000620 <delay>
 800062a:	4770      	bx	lr

0800062c <psxTrocaByte>:
 800062c:	e92d 41f0 	stmdb	sp!, {r4, r5, r6, r7, r8, lr}
 8000630:	2500      	movs	r5, #0
 8000632:	4680      	mov	r8, r0
 8000634:	462c      	mov	r4, r5
 8000636:	4820      	ldr	r0, [pc, #128]	; (80006b8 <psxTrocaByte+0x8c>)
 8000638:	fa48 f304 	asr.w	r3, r8, r4
 800063c:	f013 0f01 	tst.w	r3, #1
 8000640:	6842      	ldr	r2, [r0, #4]
 8000642:	7846      	ldrb	r6, [r0, #1]
 8000644:	d001      	beq.n	800064a <psxTrocaByte+0x1e>
 8000646:	2101      	movs	r1, #1
 8000648:	e001      	b.n	800064e <psxTrocaByte+0x22>
 800064a:	f44f 3180 	mov.w	r1, #65536	; 0x10000
 800064e:	4b1b      	ldr	r3, [pc, #108]	; (80006bc <psxTrocaByte+0x90>)
 8000650:	fa01 f706 	lsl.w	r7, r1, r6
 8000654:	6057      	str	r7, [r2, #4]
 8000656:	785f      	ldrb	r7, [r3, #1]
 8000658:	685e      	ldr	r6, [r3, #4]
 800065a:	f44f 3080 	mov.w	r0, #65536	; 0x10000
 800065e:	fa00 f007 	lsl.w	r0, r0, r7
 8000662:	6070      	str	r0, [r6, #4]
 8000664:	f44f 7096 	mov.w	r0, #300	; 0x12c
 8000668:	f7ff ffda 	bl	8000620 <delay>
 800066c:	4914      	ldr	r1, [pc, #80]	; (80006c0 <psxTrocaByte+0x94>)
 800066e:	684a      	ldr	r2, [r1, #4]
 8000670:	784b      	ldrb	r3, [r1, #1]
 8000672:	6a50      	ldr	r0, [r2, #36]	; 0x24
 8000674:	fa20 f103 	lsr.w	r1, r0, r3
 8000678:	f011 0f01 	tst.w	r1, #1
 800067c:	f04f 0201 	mov.w	r2, #1
 8000680:	bf08      	it	eq
 8000682:	fa02 f004 	lsleq.w	r0, r2, r4
 8000686:	fa02 f707 	lsl.w	r7, r2, r7
 800068a:	bf08      	it	eq
 800068c:	4305      	orreq	r5, r0
 800068e:	6077      	str	r7, [r6, #4]
 8000690:	f44f 7096 	mov.w	r0, #300	; 0x12c
 8000694:	3401      	adds	r4, #1
 8000696:	f7ff ffc3 	bl	8000620 <delay>
 800069a:	2c08      	cmp	r4, #8
 800069c:	d1cb      	bne.n	8000636 <psxTrocaByte+0xa>
 800069e:	4806      	ldr	r0, [pc, #24]	; (80006b8 <psxTrocaByte+0x8c>)
 80006a0:	7843      	ldrb	r3, [r0, #1]
 80006a2:	6842      	ldr	r2, [r0, #4]
 80006a4:	2101      	movs	r1, #1
 80006a6:	fa01 f003 	lsl.w	r0, r1, r3
 80006aa:	6050      	str	r0, [r2, #4]
 80006ac:	2064      	movs	r0, #100	; 0x64
 80006ae:	f7ff ffb7 	bl	8000620 <delay>
 80006b2:	4628      	mov	r0, r5
 80006b4:	e8bd 81f0 	ldmia.w	sp!, {r4, r5, r6, r7, r8, pc}
 80006b8:	08002eec 	.word	0x08002eec
 80006bc:	08002efc 	.word	0x08002efc
 80006c0:	08002ebc 	.word	0x08002ebc

080006c4 <psxHandShake>:
 80006c4:	4b17      	ldr	r3, [pc, #92]	; (8000724 <psxHandShake+0x60>)
 80006c6:	b570      	push	{r4, r5, r6, lr}
 80006c8:	4d17      	ldr	r5, [pc, #92]	; (8000728 <psxHandShake+0x64>)
 80006ca:	7858      	ldrb	r0, [r3, #1]
 80006cc:	685a      	ldr	r2, [r3, #4]
 80006ce:	786b      	ldrb	r3, [r5, #1]
 80006d0:	686e      	ldr	r6, [r5, #4]
 80006d2:	2401      	movs	r4, #1
 80006d4:	fa04 f100 	lsl.w	r1, r4, r0
 80006d8:	4814      	ldr	r0, [pc, #80]	; (800072c <psxHandShake+0x68>)
 80006da:	6051      	str	r1, [r2, #4]
 80006dc:	fa04 f203 	lsl.w	r2, r4, r3
 80006e0:	6072      	str	r2, [r6, #4]
 80006e2:	7846      	ldrb	r6, [r0, #1]
 80006e4:	6845      	ldr	r5, [r0, #4]
 80006e6:	f44f 3180 	mov.w	r1, #65536	; 0x10000
 80006ea:	fa01 f106 	lsl.w	r1, r1, r6
 80006ee:	6069      	str	r1, [r5, #4]
 80006f0:	f44f 7096 	mov.w	r0, #300	; 0x12c
 80006f4:	f7ff ff94 	bl	8000620 <delay>
 80006f8:	4620      	mov	r0, r4
 80006fa:	f7ff ff97 	bl	800062c <psxTrocaByte>
 80006fe:	2042      	movs	r0, #66	; 0x42
 8000700:	f7ff ff94 	bl	800062c <psxTrocaByte>
 8000704:	4b0a      	ldr	r3, [pc, #40]	; (8000730 <psxHandShake+0x6c>)
 8000706:	7018      	strb	r0, [r3, #0]
 8000708:	2000      	movs	r0, #0
 800070a:	f7ff ff8f 	bl	800062c <psxTrocaByte>
 800070e:	2000      	movs	r0, #0
 8000710:	f7ff ff8c 	bl	800062c <psxTrocaByte>
 8000714:	fa04 f406 	lsl.w	r4, r4, r6
 8000718:	2000      	movs	r0, #0
 800071a:	f7ff ff87 	bl	800062c <psxTrocaByte>
 800071e:	606c      	str	r4, [r5, #4]
 8000720:	bd70      	pop	{r4, r5, r6, pc}
 8000722:	bf00      	nop
 8000724:	08002eec 	.word	0x08002eec
 8000728:	08002efc 	.word	0x08002efc
 800072c:	08002ef4 	.word	0x08002ef4
 8000730:	200000a4 	.word	0x200000a4

08000734 <psxLeControle>:
 8000734:	4b19      	ldr	r3, [pc, #100]	; (800079c <psxLeControle+0x68>)
 8000736:	b570      	push	{r4, r5, r6, lr}
 8000738:	4d19      	ldr	r5, [pc, #100]	; (80007a0 <psxLeControle+0x6c>)
 800073a:	7858      	ldrb	r0, [r3, #1]
 800073c:	685a      	ldr	r2, [r3, #4]
 800073e:	786b      	ldrb	r3, [r5, #1]
 8000740:	686e      	ldr	r6, [r5, #4]
 8000742:	2401      	movs	r4, #1
 8000744:	fa04 f100 	lsl.w	r1, r4, r0
 8000748:	4816      	ldr	r0, [pc, #88]	; (80007a4 <psxLeControle+0x70>)
 800074a:	6051      	str	r1, [r2, #4]
 800074c:	fa04 f203 	lsl.w	r2, r4, r3
 8000750:	6072      	str	r2, [r6, #4]
 8000752:	7846      	ldrb	r6, [r0, #1]
 8000754:	6845      	ldr	r5, [r0, #4]
 8000756:	f44f 3180 	mov.w	r1, #65536	; 0x10000
 800075a:	fa01 f106 	lsl.w	r1, r1, r6
 800075e:	6069      	str	r1, [r5, #4]
 8000760:	f44f 7096 	mov.w	r0, #300	; 0x12c
 8000764:	f7ff ff5c 	bl	8000620 <delay>
 8000768:	4620      	mov	r0, r4
 800076a:	f7ff ff5f 	bl	800062c <psxTrocaByte>
 800076e:	2042      	movs	r0, #66	; 0x42
 8000770:	f7ff ff5c 	bl	800062c <psxTrocaByte>
 8000774:	4c0c      	ldr	r4, [pc, #48]	; (80007a8 <psxLeControle+0x74>)
 8000776:	7020      	strb	r0, [r4, #0]
 8000778:	2000      	movs	r0, #0
 800077a:	f7ff ff57 	bl	800062c <psxTrocaByte>
 800077e:	2400      	movs	r4, #0
 8000780:	2000      	movs	r0, #0
 8000782:	f7ff ff53 	bl	800062c <psxTrocaByte>
 8000786:	4b09      	ldr	r3, [pc, #36]	; (80007ac <psxLeControle+0x78>)
 8000788:	5118      	str	r0, [r3, r4]
 800078a:	3404      	adds	r4, #4
 800078c:	2c18      	cmp	r4, #24
 800078e:	d1f7      	bne.n	8000780 <psxLeControle+0x4c>
 8000790:	2201      	movs	r2, #1
 8000792:	fa02 f606 	lsl.w	r6, r2, r6
 8000796:	606e      	str	r6, [r5, #4]
 8000798:	bd70      	pop	{r4, r5, r6, pc}
 800079a:	bf00      	nop
 800079c:	08002eec 	.word	0x08002eec
 80007a0:	08002efc 	.word	0x08002efc
 80007a4:	08002ef4 	.word	0x08002ef4
 80007a8:	200000a4 	.word	0x200000a4
 80007ac:	200000ac 	.word	0x200000ac

080007b0 <psxExitConfigMode>:
 80007b0:	4b1c      	ldr	r3, [pc, #112]	; (8000824 <psxExitConfigMode+0x74>)
 80007b2:	b570      	push	{r4, r5, r6, lr}
 80007b4:	4d1c      	ldr	r5, [pc, #112]	; (8000828 <psxExitConfigMode+0x78>)
 80007b6:	7858      	ldrb	r0, [r3, #1]
 80007b8:	685a      	ldr	r2, [r3, #4]
 80007ba:	786b      	ldrb	r3, [r5, #1]
 80007bc:	686e      	ldr	r6, [r5, #4]
 80007be:	2401      	movs	r4, #1
 80007c0:	fa04 f100 	lsl.w	r1, r4, r0
 80007c4:	4819      	ldr	r0, [pc, #100]	; (800082c <psxExitConfigMode+0x7c>)
 80007c6:	6051      	str	r1, [r2, #4]
 80007c8:	fa04 f203 	lsl.w	r2, r4, r3
 80007cc:	6072      	str	r2, [r6, #4]
 80007ce:	7846      	ldrb	r6, [r0, #1]
 80007d0:	6845      	ldr	r5, [r0, #4]
 80007d2:	f44f 3180 	mov.w	r1, #65536	; 0x10000
 80007d6:	fa01 f106 	lsl.w	r1, r1, r6
 80007da:	6069      	str	r1, [r5, #4]
 80007dc:	f44f 7096 	mov.w	r0, #300	; 0x12c
 80007e0:	f7ff ff1e 	bl	8000620 <delay>
 80007e4:	4620      	mov	r0, r4
 80007e6:	f7ff ff21 	bl	800062c <psxTrocaByte>
 80007ea:	2043      	movs	r0, #67	; 0x43
 80007ec:	f7ff ff1e 	bl	800062c <psxTrocaByte>
 80007f0:	2000      	movs	r0, #0
 80007f2:	f7ff ff1b 	bl	800062c <psxTrocaByte>
 80007f6:	2000      	movs	r0, #0
 80007f8:	f7ff ff18 	bl	800062c <psxTrocaByte>
 80007fc:	205a      	movs	r0, #90	; 0x5a
 80007fe:	f7ff ff15 	bl	800062c <psxTrocaByte>
 8000802:	205a      	movs	r0, #90	; 0x5a
 8000804:	f7ff ff12 	bl	800062c <psxTrocaByte>
 8000808:	205a      	movs	r0, #90	; 0x5a
 800080a:	f7ff ff0f 	bl	800062c <psxTrocaByte>
 800080e:	205a      	movs	r0, #90	; 0x5a
 8000810:	f7ff ff0c 	bl	800062c <psxTrocaByte>
 8000814:	fa04 f406 	lsl.w	r4, r4, r6
 8000818:	205a      	movs	r0, #90	; 0x5a
 800081a:	f7ff ff07 	bl	800062c <psxTrocaByte>
 800081e:	606c      	str	r4, [r5, #4]
 8000820:	bd70      	pop	{r4, r5, r6, pc}
 8000822:	bf00      	nop
 8000824:	08002eec 	.word	0x08002eec
 8000828:	08002efc 	.word	0x08002efc
 800082c:	08002ef4 	.word	0x08002ef4

08000830 <psxSetAnalogMode>:
 8000830:	4b1c      	ldr	r3, [pc, #112]	; (80008a4 <psxSetAnalogMode+0x74>)
 8000832:	b570      	push	{r4, r5, r6, lr}
 8000834:	4d1c      	ldr	r5, [pc, #112]	; (80008a8 <psxSetAnalogMode+0x78>)
 8000836:	7858      	ldrb	r0, [r3, #1]
 8000838:	685a      	ldr	r2, [r3, #4]
 800083a:	786b      	ldrb	r3, [r5, #1]
 800083c:	686e      	ldr	r6, [r5, #4]
 800083e:	2401      	movs	r4, #1
 8000840:	fa04 f100 	lsl.w	r1, r4, r0
 8000844:	4819      	ldr	r0, [pc, #100]	; (80008ac <psxSetAnalogMode+0x7c>)
 8000846:	6051      	str	r1, [r2, #4]
 8000848:	fa04 f203 	lsl.w	r2, r4, r3
 800084c:	6072      	str	r2, [r6, #4]
 800084e:	7846      	ldrb	r6, [r0, #1]
 8000850:	6845      	ldr	r5, [r0, #4]
 8000852:	f44f 3180 	mov.w	r1, #65536	; 0x10000
 8000856:	fa01 f106 	lsl.w	r1, r1, r6
 800085a:	6069      	str	r1, [r5, #4]
 800085c:	f44f 7096 	mov.w	r0, #300	; 0x12c
 8000860:	f7ff fede 	bl	8000620 <delay>
 8000864:	4620      	mov	r0, r4
 8000866:	f7ff fee1 	bl	800062c <psxTrocaByte>
 800086a:	2044      	movs	r0, #68	; 0x44
 800086c:	f7ff fede 	bl	800062c <psxTrocaByte>
 8000870:	2000      	movs	r0, #0
 8000872:	f7ff fedb 	bl	800062c <psxTrocaByte>
 8000876:	4620      	mov	r0, r4
 8000878:	f7ff fed8 	bl	800062c <psxTrocaByte>
 800087c:	2003      	movs	r0, #3
 800087e:	f7ff fed5 	bl	800062c <psxTrocaByte>
 8000882:	2000      	movs	r0, #0
 8000884:	f7ff fed2 	bl	800062c <psxTrocaByte>
 8000888:	2000      	movs	r0, #0
 800088a:	f7ff fecf 	bl	800062c <psxTrocaByte>
 800088e:	2000      	movs	r0, #0
 8000890:	f7ff fecc 	bl	800062c <psxTrocaByte>
 8000894:	fa04 f406 	lsl.w	r4, r4, r6
 8000898:	2000      	movs	r0, #0
 800089a:	f7ff fec7 	bl	800062c <psxTrocaByte>
 800089e:	606c      	str	r4, [r5, #4]
 80008a0:	bd70      	pop	{r4, r5, r6, pc}
 80008a2:	bf00      	nop
 80008a4:	08002eec 	.word	0x08002eec
 80008a8:	08002efc 	.word	0x08002efc
 80008ac:	08002ef4 	.word	0x08002ef4

080008b0 <psxEnterConfigMode>:
 80008b0:	4b16      	ldr	r3, [pc, #88]	; (800090c <psxEnterConfigMode+0x5c>)
 80008b2:	b570      	push	{r4, r5, r6, lr}
 80008b4:	4d16      	ldr	r5, [pc, #88]	; (8000910 <psxEnterConfigMode+0x60>)
 80008b6:	7858      	ldrb	r0, [r3, #1]
 80008b8:	685a      	ldr	r2, [r3, #4]
 80008ba:	786b      	ldrb	r3, [r5, #1]
 80008bc:	686e      	ldr	r6, [r5, #4]
 80008be:	2401      	movs	r4, #1
 80008c0:	fa04 f100 	lsl.w	r1, r4, r0
 80008c4:	4813      	ldr	r0, [pc, #76]	; (8000914 <psxEnterConfigMode+0x64>)
 80008c6:	6051      	str	r1, [r2, #4]
 80008c8:	fa04 f203 	lsl.w	r2, r4, r3
 80008cc:	6072      	str	r2, [r6, #4]
 80008ce:	7846      	ldrb	r6, [r0, #1]
 80008d0:	6845      	ldr	r5, [r0, #4]
 80008d2:	f44f 3180 	mov.w	r1, #65536	; 0x10000
 80008d6:	fa01 f106 	lsl.w	r1, r1, r6
 80008da:	6069      	str	r1, [r5, #4]
 80008dc:	f44f 7096 	mov.w	r0, #300	; 0x12c
 80008e0:	f7ff fe9e 	bl	8000620 <delay>
 80008e4:	4620      	mov	r0, r4
 80008e6:	f7ff fea1 	bl	800062c <psxTrocaByte>
 80008ea:	2043      	movs	r0, #67	; 0x43
 80008ec:	f7ff fe9e 	bl	800062c <psxTrocaByte>
 80008f0:	2000      	movs	r0, #0
 80008f2:	f7ff fe9b 	bl	800062c <psxTrocaByte>
 80008f6:	4620      	mov	r0, r4
 80008f8:	f7ff fe98 	bl	800062c <psxTrocaByte>
 80008fc:	fa04 f406 	lsl.w	r4, r4, r6
 8000900:	2000      	movs	r0, #0
 8000902:	f7ff fe93 	bl	800062c <psxTrocaByte>
 8000906:	606c      	str	r4, [r5, #4]
 8000908:	bd70      	pop	{r4, r5, r6, pc}
 800090a:	bf00      	nop
 800090c:	08002eec 	.word	0x08002eec
 8000910:	08002efc 	.word	0x08002efc
 8000914:	08002ef4 	.word	0x08002ef4

08000918 <psxConfiguraControle>:
 8000918:	b508      	push	{r3, lr}
 800091a:	f7ff ffc9 	bl	80008b0 <psxEnterConfigMode>
 800091e:	f7ff ff87 	bl	8000830 <psxSetAnalogMode>
 8000922:	e8bd 4008 	ldmia.w	sp!, {r3, lr}
 8000926:	f7ff bf43 	b.w	80007b0 <psxExitConfigMode>
	...

0800092c <pulse_R>:
 800092c:	b538      	push	{r3, r4, r5, lr}
 800092e:	f44f 7096 	mov.w	r0, #300	; 0x12c
 8000932:	f7ff fe75 	bl	8000620 <delay>
 8000936:	4b08      	ldr	r3, [pc, #32]	; (8000958 <pulse_R+0x2c>)
 8000938:	785d      	ldrb	r5, [r3, #1]
 800093a:	685c      	ldr	r4, [r3, #4]
 800093c:	2001      	movs	r0, #1
 800093e:	fa00 f005 	lsl.w	r0, r0, r5
 8000942:	6060      	str	r0, [r4, #4]
 8000944:	f44f 7096 	mov.w	r0, #300	; 0x12c
 8000948:	f7ff fe6a 	bl	8000620 <delay>
 800094c:	f44f 3180 	mov.w	r1, #65536	; 0x10000
 8000950:	fa01 f505 	lsl.w	r5, r1, r5
 8000954:	6065      	str	r5, [r4, #4]
 8000956:	bd38      	pop	{r3, r4, r5, pc}
 8000958:	08002ee4 	.word	0x08002ee4

0800095c <write_E>:
 800095c:	b5f8      	push	{r3, r4, r5, r6, r7, lr}
 800095e:	4b2a      	ldr	r3, [pc, #168]	; (8000a08 <write_E+0xac>)
 8000960:	785f      	ldrb	r7, [r3, #1]
 8000962:	685e      	ldr	r6, [r3, #4]
 8000964:	2001      	movs	r0, #1
 8000966:	fa00 f007 	lsl.w	r0, r0, r7
 800096a:	6070      	str	r0, [r6, #4]
 800096c:	f44f 707a 	mov.w	r0, #1000	; 0x3e8
 8000970:	f7ff fe56 	bl	8000620 <delay>
 8000974:	2507      	movs	r5, #7
 8000976:	2407      	movs	r4, #7
 8000978:	4b24      	ldr	r3, [pc, #144]	; (8000a0c <write_E+0xb0>)
 800097a:	2201      	movs	r2, #1
 800097c:	5ce8      	ldrb	r0, [r5, r3]
 800097e:	4b24      	ldr	r3, [pc, #144]	; (8000a10 <write_E+0xb4>)
 8000980:	fa02 f104 	lsl.w	r1, r2, r4
 8000984:	4201      	tst	r1, r0
 8000986:	d005      	beq.n	8000994 <write_E+0x38>
 8000988:	7859      	ldrb	r1, [r3, #1]
 800098a:	6858      	ldr	r0, [r3, #4]
 800098c:	fa02 f201 	lsl.w	r2, r2, r1
 8000990:	6042      	str	r2, [r0, #4]
 8000992:	e006      	b.n	80009a2 <write_E+0x46>
 8000994:	7858      	ldrb	r0, [r3, #1]
 8000996:	685a      	ldr	r2, [r3, #4]
 8000998:	f44f 3180 	mov.w	r1, #65536	; 0x10000
 800099c:	fa01 f300 	lsl.w	r3, r1, r0
 80009a0:	6053      	str	r3, [r2, #4]
 80009a2:	f7ff ffc3 	bl	800092c <pulse_R>
 80009a6:	f114 34ff 	adds.w	r4, r4, #4294967295
 80009aa:	d2e5      	bcs.n	8000978 <write_E+0x1c>
 80009ac:	3d01      	subs	r5, #1
 80009ae:	2d02      	cmp	r5, #2
 80009b0:	d1e1      	bne.n	8000976 <write_E+0x1a>
 80009b2:	2500      	movs	r5, #0
 80009b4:	2407      	movs	r4, #7
 80009b6:	4b17      	ldr	r3, [pc, #92]	; (8000a14 <write_E+0xb8>)
 80009b8:	2201      	movs	r2, #1
 80009ba:	5ce9      	ldrb	r1, [r5, r3]
 80009bc:	fa02 f004 	lsl.w	r0, r2, r4
 80009c0:	4208      	tst	r0, r1
 80009c2:	4813      	ldr	r0, [pc, #76]	; (8000a10 <write_E+0xb4>)
 80009c4:	d005      	beq.n	80009d2 <write_E+0x76>
 80009c6:	7843      	ldrb	r3, [r0, #1]
 80009c8:	6841      	ldr	r1, [r0, #4]
 80009ca:	fa02 f203 	lsl.w	r2, r2, r3
 80009ce:	604a      	str	r2, [r1, #4]
 80009d0:	e006      	b.n	80009e0 <write_E+0x84>
 80009d2:	7843      	ldrb	r3, [r0, #1]
 80009d4:	6842      	ldr	r2, [r0, #4]
 80009d6:	f44f 3180 	mov.w	r1, #65536	; 0x10000
 80009da:	fa01 f003 	lsl.w	r0, r1, r3
 80009de:	6050      	str	r0, [r2, #4]
 80009e0:	f7ff ffa4 	bl	800092c <pulse_R>
 80009e4:	f114 34ff 	adds.w	r4, r4, #4294967295
 80009e8:	d2e5      	bcs.n	80009b6 <write_E+0x5a>
 80009ea:	3501      	adds	r5, #1
 80009ec:	2d05      	cmp	r5, #5
 80009ee:	d1e1      	bne.n	80009b4 <write_E+0x58>
 80009f0:	f44f 3280 	mov.w	r2, #65536	; 0x10000
 80009f4:	fa02 f707 	lsl.w	r7, r2, r7
 80009f8:	f241 3088 	movw	r0, #5000	; 0x1388
 80009fc:	6077      	str	r7, [r6, #4]
 80009fe:	e8bd 40f8 	ldmia.w	sp!, {r3, r4, r5, r6, r7, lr}
 8000a02:	f7ff be0d 	b.w	8000620 <delay>
 8000a06:	bf00      	nop
 8000a08:	08002ecc 	.word	0x08002ecc
 8000a0c:	20000094 	.word	0x20000094
 8000a10:	08002edc 	.word	0x08002edc
 8000a14:	200000a5 	.word	0x200000a5

08000a18 <configure_E>:
 8000a18:	b5f8      	push	{r3, r4, r5, r6, r7, lr}
 8000a1a:	4b29      	ldr	r3, [pc, #164]	; (8000ac0 <configure_E+0xa8>)
 8000a1c:	22c4      	movs	r2, #196	; 0xc4
 8000a1e:	204f      	movs	r0, #79	; 0x4f
 8000a20:	21a3      	movs	r1, #163	; 0xa3
 8000a22:	701a      	strb	r2, [r3, #0]
 8000a24:	7058      	strb	r0, [r3, #1]
 8000a26:	7099      	strb	r1, [r3, #2]
 8000a28:	2000      	movs	r0, #0
 8000a2a:	24ee      	movs	r4, #238	; 0xee
 8000a2c:	25dd      	movs	r5, #221	; 0xdd
 8000a2e:	26cc      	movs	r6, #204	; 0xcc
 8000a30:	27bb      	movs	r7, #187	; 0xbb
 8000a32:	22aa      	movs	r2, #170	; 0xaa
 8000a34:	2128      	movs	r1, #40	; 0x28
 8000a36:	70dc      	strb	r4, [r3, #3]
 8000a38:	711d      	strb	r5, [r3, #4]
 8000a3a:	715e      	strb	r6, [r3, #5]
 8000a3c:	719f      	strb	r7, [r3, #6]
 8000a3e:	71da      	strb	r2, [r3, #7]
 8000a40:	7218      	strb	r0, [r3, #8]
 8000a42:	7258      	strb	r0, [r3, #9]
 8000a44:	7298      	strb	r0, [r3, #10]
 8000a46:	72d8      	strb	r0, [r3, #11]
 8000a48:	7318      	strb	r0, [r3, #12]
 8000a4a:	7398      	strb	r0, [r3, #14]
 8000a4c:	7359      	strb	r1, [r3, #13]
 8000a4e:	4b1d      	ldr	r3, [pc, #116]	; (8000ac4 <configure_E+0xac>)
 8000a50:	4a1d      	ldr	r2, [pc, #116]	; (8000ac8 <configure_E+0xb0>)
 8000a52:	785d      	ldrb	r5, [r3, #1]
 8000a54:	685c      	ldr	r4, [r3, #4]
 8000a56:	f44f 3680 	mov.w	r6, #65536	; 0x10000
 8000a5a:	fa06 f705 	lsl.w	r7, r6, r5
 8000a5e:	6067      	str	r7, [r4, #4]
 8000a60:	7857      	ldrb	r7, [r2, #1]
 8000a62:	6856      	ldr	r6, [r2, #4]
 8000a64:	2001      	movs	r0, #1
 8000a66:	fa00 f007 	lsl.w	r0, r0, r7
 8000a6a:	6070      	str	r0, [r6, #4]
 8000a6c:	250e      	movs	r5, #14
 8000a6e:	2407      	movs	r4, #7
 8000a70:	4b13      	ldr	r3, [pc, #76]	; (8000ac0 <configure_E+0xa8>)
 8000a72:	2201      	movs	r2, #1
 8000a74:	5ce8      	ldrb	r0, [r5, r3]
 8000a76:	4b15      	ldr	r3, [pc, #84]	; (8000acc <configure_E+0xb4>)
 8000a78:	fa02 f104 	lsl.w	r1, r2, r4
 8000a7c:	4201      	tst	r1, r0
 8000a7e:	d005      	beq.n	8000a8c <configure_E+0x74>
 8000a80:	7859      	ldrb	r1, [r3, #1]
 8000a82:	6858      	ldr	r0, [r3, #4]
 8000a84:	fa02 f201 	lsl.w	r2, r2, r1
 8000a88:	6042      	str	r2, [r0, #4]
 8000a8a:	e006      	b.n	8000a9a <configure_E+0x82>
 8000a8c:	7858      	ldrb	r0, [r3, #1]
 8000a8e:	685a      	ldr	r2, [r3, #4]
 8000a90:	f44f 3180 	mov.w	r1, #65536	; 0x10000
 8000a94:	fa01 f300 	lsl.w	r3, r1, r0
 8000a98:	6053      	str	r3, [r2, #4]
 8000a9a:	f7ff ff47 	bl	800092c <pulse_R>
 8000a9e:	f114 34ff 	adds.w	r4, r4, #4294967295
 8000aa2:	d2e5      	bcs.n	8000a70 <configure_E+0x58>
 8000aa4:	f115 35ff 	adds.w	r5, r5, #4294967295
 8000aa8:	d2e1      	bcs.n	8000a6e <configure_E+0x56>
 8000aaa:	f44f 3280 	mov.w	r2, #65536	; 0x10000
 8000aae:	fa02 f707 	lsl.w	r7, r2, r7
 8000ab2:	f24c 3050 	movw	r0, #50000	; 0xc350
 8000ab6:	6077      	str	r7, [r6, #4]
 8000ab8:	e8bd 40f8 	ldmia.w	sp!, {r3, r4, r5, r6, r7, lr}
 8000abc:	f7ff bdb0 	b.w	8000620 <delay>
 8000ac0:	20000094 	.word	0x20000094
 8000ac4:	08002ecc 	.word	0x08002ecc
 8000ac8:	08002f04 	.word	0x08002f04
 8000acc:	08002edc 	.word	0x08002edc

08000ad0 <read_R>:
 8000ad0:	b5f8      	push	{r3, r4, r5, r6, r7, lr}
 8000ad2:	4b16      	ldr	r3, [pc, #88]	; (8000b2c <read_R+0x5c>)
 8000ad4:	785f      	ldrb	r7, [r3, #1]
 8000ad6:	685e      	ldr	r6, [r3, #4]
 8000ad8:	f44f 3080 	mov.w	r0, #65536	; 0x10000
 8000adc:	fa00 f007 	lsl.w	r0, r0, r7
 8000ae0:	6070      	str	r0, [r6, #4]
 8000ae2:	f24c 3050 	movw	r0, #50000	; 0xc350
 8000ae6:	f7ff fd9b 	bl	8000620 <delay>
 8000aea:	2500      	movs	r5, #0
 8000aec:	2407      	movs	r4, #7
 8000aee:	4910      	ldr	r1, [pc, #64]	; (8000b30 <read_R+0x60>)
 8000af0:	684a      	ldr	r2, [r1, #4]
 8000af2:	784b      	ldrb	r3, [r1, #1]
 8000af4:	6a50      	ldr	r0, [r2, #36]	; 0x24
 8000af6:	fa20 f103 	lsr.w	r1, r0, r3
 8000afa:	07cb      	lsls	r3, r1, #31
 8000afc:	d504      	bpl.n	8000b08 <read_R+0x38>
 8000afe:	2201      	movs	r2, #1
 8000b00:	fa02 f204 	lsl.w	r2, r2, r4
 8000b04:	4315      	orrs	r5, r2
 8000b06:	b2ed      	uxtb	r5, r5
 8000b08:	f7ff ff10 	bl	800092c <pulse_R>
 8000b0c:	f114 34ff 	adds.w	r4, r4, #4294967295
 8000b10:	d2ed      	bcs.n	8000aee <read_R+0x1e>
 8000b12:	4808      	ldr	r0, [pc, #32]	; (8000b34 <read_R+0x64>)
 8000b14:	2301      	movs	r3, #1
 8000b16:	7005      	strb	r5, [r0, #0]
 8000b18:	fa03 f707 	lsl.w	r7, r3, r7
 8000b1c:	f24c 3050 	movw	r0, #50000	; 0xc350
 8000b20:	6077      	str	r7, [r6, #4]
 8000b22:	e8bd 40f8 	ldmia.w	sp!, {r3, r4, r5, r6, r7, lr}
 8000b26:	f7ff bd7b 	b.w	8000620 <delay>
 8000b2a:	bf00      	nop
 8000b2c:	08002ecc 	.word	0x08002ecc
 8000b30:	08002edc 	.word	0x08002edc
 8000b34:	20000004 	.word	0x20000004

08000b38 <printByteToInt>:
 8000b38:	230a      	movs	r3, #10
 8000b3a:	b570      	push	{r4, r5, r6, lr}
 8000b3c:	fbb0 f4f3 	udiv	r4, r0, r3
 8000b40:	b2e5      	uxtb	r5, r4
 8000b42:	fbb5 f1f3 	udiv	r1, r5, r3
 8000b46:	fbb1 f6f3 	udiv	r6, r1, r3
 8000b4a:	4a0a      	ldr	r2, [pc, #40]	; (8000b74 <printByteToInt+0x3c>)
 8000b4c:	fb06 1613 	mls	r6, r6, r3, r1
 8000b50:	fb03 0014 	mls	r0, r3, r4, r0
 8000b54:	fb03 5111 	mls	r1, r3, r1, r5
 8000b58:	6812      	ldr	r2, [r2, #0]
 8000b5a:	3630      	adds	r6, #48	; 0x30
 8000b5c:	3130      	adds	r1, #48	; 0x30
 8000b5e:	3030      	adds	r0, #48	; 0x30
 8000b60:	b2f6      	uxtb	r6, r6
 8000b62:	b2c9      	uxtb	r1, r1
 8000b64:	b2c3      	uxtb	r3, r0
 8000b66:	f8c2 6180 	str.w	r6, [r2, #384]	; 0x180
 8000b6a:	f8c2 1180 	str.w	r1, [r2, #384]	; 0x180
 8000b6e:	f8c2 3180 	str.w	r3, [r2, #384]	; 0x180
 8000b72:	bd70      	pop	{r4, r5, r6, pc}
 8000b74:	08002e84 	.word	0x08002e84

08000b78 <VADC0_C0_2_IRQHandler>:
 8000b78:	4801      	ldr	r0, [pc, #4]	; (8000b80 <VADC0_C0_2_IRQHandler+0x8>)
 8000b7a:	4902      	ldr	r1, [pc, #8]	; (8000b84 <VADC0_C0_2_IRQHandler+0xc>)
 8000b7c:	f001 be50 	b.w	8002820 <ADC001_GetResult>
 8000b80:	08002f4c 	.word	0x08002f4c
 8000b84:	200000c4 	.word	0x200000c4

08000b88 <updateButtonStates>:
 8000b88:	4b19      	ldr	r3, [pc, #100]	; (8000bf0 <updateButtonStates+0x68>)
 8000b8a:	785a      	ldrb	r2, [r3, #1]
 8000b8c:	78d8      	ldrb	r0, [r3, #3]
 8000b8e:	7959      	ldrb	r1, [r3, #5]
 8000b90:	701a      	strb	r2, [r3, #0]
 8000b92:	79da      	ldrb	r2, [r3, #7]
 8000b94:	7098      	strb	r0, [r3, #2]
 8000b96:	7a58      	ldrb	r0, [r3, #9]
 8000b98:	7119      	strb	r1, [r3, #4]
 8000b9a:	719a      	strb	r2, [r3, #6]
 8000b9c:	7ad9      	ldrb	r1, [r3, #11]
 8000b9e:	7b5a      	ldrb	r2, [r3, #13]
 8000ba0:	7218      	strb	r0, [r3, #8]
 8000ba2:	7bd8      	ldrb	r0, [r3, #15]
 8000ba4:	7299      	strb	r1, [r3, #10]
 8000ba6:	731a      	strb	r2, [r3, #12]
 8000ba8:	7c59      	ldrb	r1, [r3, #17]
 8000baa:	7cda      	ldrb	r2, [r3, #19]
 8000bac:	7398      	strb	r0, [r3, #14]
 8000bae:	7d58      	ldrb	r0, [r3, #21]
 8000bb0:	7419      	strb	r1, [r3, #16]
 8000bb2:	749a      	strb	r2, [r3, #18]
 8000bb4:	7dd9      	ldrb	r1, [r3, #23]
 8000bb6:	7e5a      	ldrb	r2, [r3, #25]
 8000bb8:	7518      	strb	r0, [r3, #20]
 8000bba:	7ed8      	ldrb	r0, [r3, #27]
 8000bbc:	7599      	strb	r1, [r3, #22]
 8000bbe:	761a      	strb	r2, [r3, #24]
 8000bc0:	7f59      	ldrb	r1, [r3, #29]
 8000bc2:	7fda      	ldrb	r2, [r3, #31]
 8000bc4:	7698      	strb	r0, [r3, #26]
 8000bc6:	2000      	movs	r0, #0
 8000bc8:	7719      	strb	r1, [r3, #28]
 8000bca:	779a      	strb	r2, [r3, #30]
 8000bcc:	7058      	strb	r0, [r3, #1]
 8000bce:	70d8      	strb	r0, [r3, #3]
 8000bd0:	7158      	strb	r0, [r3, #5]
 8000bd2:	71d8      	strb	r0, [r3, #7]
 8000bd4:	7258      	strb	r0, [r3, #9]
 8000bd6:	72d8      	strb	r0, [r3, #11]
 8000bd8:	7358      	strb	r0, [r3, #13]
 8000bda:	73d8      	strb	r0, [r3, #15]
 8000bdc:	7458      	strb	r0, [r3, #17]
 8000bde:	74d8      	strb	r0, [r3, #19]
 8000be0:	7558      	strb	r0, [r3, #21]
 8000be2:	75d8      	strb	r0, [r3, #23]
 8000be4:	7658      	strb	r0, [r3, #25]
 8000be6:	76d8      	strb	r0, [r3, #27]
 8000be8:	7758      	strb	r0, [r3, #29]
 8000bea:	77d8      	strb	r0, [r3, #31]
 8000bec:	4770      	bx	lr
 8000bee:	bf00      	nop
 8000bf0:	20000014 	.word	0x20000014

08000bf4 <main>:
 8000bf4:	b5f8      	push	{r3, r4, r5, r6, r7, lr}
 8000bf6:	4b8d      	ldr	r3, [pc, #564]	; (8000e2c <main+0x238>)
 8000bf8:	6f5a      	ldr	r2, [r3, #116]	; 0x74
 8000bfa:	f422 4040 	bic.w	r0, r2, #49152	; 0xc000
 8000bfe:	6758      	str	r0, [r3, #116]	; 0x74
 8000c00:	6f59      	ldr	r1, [r3, #116]	; 0x74
 8000c02:	6759      	str	r1, [r3, #116]	; 0x74
 8000c04:	f000 fe94 	bl	8001930 <DAVE_Init>
 8000c08:	f7ff ff06 	bl	8000a18 <configure_E>
 8000c0c:	f7ff fd5a 	bl	80006c4 <psxHandShake>
 8000c10:	f7ff fe82 	bl	8000918 <psxConfiguraControle>
 8000c14:	4d86      	ldr	r5, [pc, #536]	; (8000e30 <main+0x23c>)
 8000c16:	4e87      	ldr	r6, [pc, #540]	; (8000e34 <main+0x240>)
 8000c18:	243c      	movs	r4, #60	; 0x3c
 8000c1a:	702c      	strb	r4, [r5, #0]
 8000c1c:	f7ff fd8a 	bl	8000734 <psxLeControle>
 8000c20:	7837      	ldrb	r7, [r6, #0]
 8000c22:	2f8c      	cmp	r7, #140	; 0x8c
 8000c24:	d1f2      	bne.n	8000c0c <main+0x18>
 8000c26:	4c84      	ldr	r4, [pc, #528]	; (8000e38 <main+0x244>)
 8000c28:	6823      	ldr	r3, [r4, #0]
 8000c2a:	071d      	lsls	r5, r3, #28
 8000c2c:	d505      	bpl.n	8000c3a <main+0x46>
 8000c2e:	4a83      	ldr	r2, [pc, #524]	; (8000e3c <main+0x248>)
 8000c30:	6a10      	ldr	r0, [r2, #32]
 8000c32:	b110      	cbz	r0, 8000c3a <main+0x46>
 8000c34:	2101      	movs	r1, #1
 8000c36:	7751      	strb	r1, [r2, #29]
 8000c38:	4780      	blx	r0
 8000c3a:	6825      	ldr	r5, [r4, #0]
 8000c3c:	07e9      	lsls	r1, r5, #31
 8000c3e:	d505      	bpl.n	8000c4c <main+0x58>
 8000c40:	4e7e      	ldr	r6, [pc, #504]	; (8000e3c <main+0x248>)
 8000c42:	6a77      	ldr	r7, [r6, #36]	; 0x24
 8000c44:	b117      	cbz	r7, 8000c4c <main+0x58>
 8000c46:	2401      	movs	r4, #1
 8000c48:	77f4      	strb	r4, [r6, #31]
 8000c4a:	47b8      	blx	r7
 8000c4c:	4d7a      	ldr	r5, [pc, #488]	; (8000e38 <main+0x244>)
 8000c4e:	686b      	ldr	r3, [r5, #4]
 8000c50:	07da      	lsls	r2, r3, #31
 8000c52:	d505      	bpl.n	8000c60 <main+0x6c>
 8000c54:	4a79      	ldr	r2, [pc, #484]	; (8000e3c <main+0x248>)
 8000c56:	6a90      	ldr	r0, [r2, #40]	; 0x28
 8000c58:	b110      	cbz	r0, 8000c60 <main+0x6c>
 8000c5a:	2101      	movs	r1, #1
 8000c5c:	70d1      	strb	r1, [r2, #3]
 8000c5e:	4780      	blx	r0
 8000c60:	686e      	ldr	r6, [r5, #4]
 8000c62:	0773      	lsls	r3, r6, #29
 8000c64:	d505      	bpl.n	8000c72 <main+0x7e>
 8000c66:	4f75      	ldr	r7, [pc, #468]	; (8000e3c <main+0x248>)
 8000c68:	6afc      	ldr	r4, [r7, #44]	; 0x2c
 8000c6a:	b114      	cbz	r4, 8000c72 <main+0x7e>
 8000c6c:	2501      	movs	r5, #1
 8000c6e:	707d      	strb	r5, [r7, #1]
 8000c70:	47a0      	blx	r4
 8000c72:	4e71      	ldr	r6, [pc, #452]	; (8000e38 <main+0x244>)
 8000c74:	6833      	ldr	r3, [r6, #0]
 8000c76:	075f      	lsls	r7, r3, #29
 8000c78:	d505      	bpl.n	8000c86 <main+0x92>
 8000c7a:	4a70      	ldr	r2, [pc, #448]	; (8000e3c <main+0x248>)
 8000c7c:	6b10      	ldr	r0, [r2, #48]	; 0x30
 8000c7e:	b110      	cbz	r0, 8000c86 <main+0x92>
 8000c80:	2101      	movs	r1, #1
 8000c82:	7151      	strb	r1, [r2, #5]
 8000c84:	4780      	blx	r0
 8000c86:	6877      	ldr	r7, [r6, #4]
 8000c88:	073e      	lsls	r6, r7, #28
 8000c8a:	d505      	bpl.n	8000c98 <main+0xa4>
 8000c8c:	4c6b      	ldr	r4, [pc, #428]	; (8000e3c <main+0x248>)
 8000c8e:	6b65      	ldr	r5, [r4, #52]	; 0x34
 8000c90:	b115      	cbz	r5, 8000c98 <main+0xa4>
 8000c92:	2601      	movs	r6, #1
 8000c94:	71e6      	strb	r6, [r4, #7]
 8000c96:	47a8      	blx	r5
 8000c98:	4f67      	ldr	r7, [pc, #412]	; (8000e38 <main+0x244>)
 8000c9a:	687b      	ldr	r3, [r7, #4]
 8000c9c:	079d      	lsls	r5, r3, #30
 8000c9e:	d505      	bpl.n	8000cac <main+0xb8>
 8000ca0:	4a66      	ldr	r2, [pc, #408]	; (8000e3c <main+0x248>)
 8000ca2:	6b90      	ldr	r0, [r2, #56]	; 0x38
 8000ca4:	b110      	cbz	r0, 8000cac <main+0xb8>
 8000ca6:	2101      	movs	r1, #1
 8000ca8:	7251      	strb	r1, [r2, #9]
 8000caa:	4780      	blx	r0
 8000cac:	683c      	ldr	r4, [r7, #0]
 8000cae:	07a1      	lsls	r1, r4, #30
 8000cb0:	d505      	bpl.n	8000cbe <main+0xca>
 8000cb2:	4d62      	ldr	r5, [pc, #392]	; (8000e3c <main+0x248>)
 8000cb4:	6bee      	ldr	r6, [r5, #60]	; 0x3c
 8000cb6:	b116      	cbz	r6, 8000cbe <main+0xca>
 8000cb8:	2701      	movs	r7, #1
 8000cba:	72ef      	strb	r7, [r5, #11]
 8000cbc:	47b0      	blx	r6
 8000cbe:	4c5e      	ldr	r4, [pc, #376]	; (8000e38 <main+0x244>)
 8000cc0:	6863      	ldr	r3, [r4, #4]
 8000cc2:	061a      	lsls	r2, r3, #24
 8000cc4:	d505      	bpl.n	8000cd2 <main+0xde>
 8000cc6:	4a5d      	ldr	r2, [pc, #372]	; (8000e3c <main+0x248>)
 8000cc8:	6c10      	ldr	r0, [r2, #64]	; 0x40
 8000cca:	b110      	cbz	r0, 8000cd2 <main+0xde>
 8000ccc:	2101      	movs	r1, #1
 8000cce:	73d1      	strb	r1, [r2, #15]
 8000cd0:	4780      	blx	r0
 8000cd2:	6865      	ldr	r5, [r4, #4]
 8000cd4:	06eb      	lsls	r3, r5, #27
 8000cd6:	d505      	bpl.n	8000ce4 <main+0xf0>
 8000cd8:	4e58      	ldr	r6, [pc, #352]	; (8000e3c <main+0x248>)
 8000cda:	6c77      	ldr	r7, [r6, #68]	; 0x44
 8000cdc:	b117      	cbz	r7, 8000ce4 <main+0xf0>
 8000cde:	2401      	movs	r4, #1
 8000ce0:	7474      	strb	r4, [r6, #17]
 8000ce2:	47b8      	blx	r7
 8000ce4:	4d54      	ldr	r5, [pc, #336]	; (8000e38 <main+0x244>)
 8000ce6:	686b      	ldr	r3, [r5, #4]
 8000ce8:	069f      	lsls	r7, r3, #26
 8000cea:	d505      	bpl.n	8000cf8 <main+0x104>
 8000cec:	4a53      	ldr	r2, [pc, #332]	; (8000e3c <main+0x248>)
 8000cee:	6c90      	ldr	r0, [r2, #72]	; 0x48
 8000cf0:	b110      	cbz	r0, 8000cf8 <main+0x104>
 8000cf2:	2101      	movs	r1, #1
 8000cf4:	74d1      	strb	r1, [r2, #19]
 8000cf6:	4780      	blx	r0
 8000cf8:	686e      	ldr	r6, [r5, #4]
 8000cfa:	0676      	lsls	r6, r6, #25
 8000cfc:	d505      	bpl.n	8000d0a <main+0x116>
 8000cfe:	4f4f      	ldr	r7, [pc, #316]	; (8000e3c <main+0x248>)
 8000d00:	6cfc      	ldr	r4, [r7, #76]	; 0x4c
 8000d02:	b114      	cbz	r4, 8000d0a <main+0x116>
 8000d04:	2501      	movs	r5, #1
 8000d06:	737d      	strb	r5, [r7, #13]
 8000d08:	47a0      	blx	r4
 8000d0a:	4e4b      	ldr	r6, [pc, #300]	; (8000e38 <main+0x244>)
 8000d0c:	6833      	ldr	r3, [r6, #0]
 8000d0e:	061d      	lsls	r5, r3, #24
 8000d10:	d505      	bpl.n	8000d1e <main+0x12a>
 8000d12:	4a4a      	ldr	r2, [pc, #296]	; (8000e3c <main+0x248>)
 8000d14:	6d10      	ldr	r0, [r2, #80]	; 0x50
 8000d16:	b110      	cbz	r0, 8000d1e <main+0x12a>
 8000d18:	2101      	movs	r1, #1
 8000d1a:	7551      	strb	r1, [r2, #21]
 8000d1c:	4780      	blx	r0
 8000d1e:	6837      	ldr	r7, [r6, #0]
 8000d20:	06bc      	lsls	r4, r7, #26
 8000d22:	d505      	bpl.n	8000d30 <main+0x13c>
 8000d24:	4c45      	ldr	r4, [pc, #276]	; (8000e3c <main+0x248>)
 8000d26:	6d65      	ldr	r5, [r4, #84]	; 0x54
 8000d28:	b115      	cbz	r5, 8000d30 <main+0x13c>
 8000d2a:	2601      	movs	r6, #1
 8000d2c:	75e6      	strb	r6, [r4, #23]
 8000d2e:	47a8      	blx	r5
 8000d30:	4f41      	ldr	r7, [pc, #260]	; (8000e38 <main+0x244>)
 8000d32:	683b      	ldr	r3, [r7, #0]
 8000d34:	06d9      	lsls	r1, r3, #27
 8000d36:	d505      	bpl.n	8000d44 <main+0x150>
 8000d38:	4a40      	ldr	r2, [pc, #256]	; (8000e3c <main+0x248>)
 8000d3a:	6d90      	ldr	r0, [r2, #88]	; 0x58
 8000d3c:	b110      	cbz	r0, 8000d44 <main+0x150>
 8000d3e:	2101      	movs	r1, #1
 8000d40:	7651      	strb	r1, [r2, #25]
 8000d42:	4780      	blx	r0
 8000d44:	683c      	ldr	r4, [r7, #0]
 8000d46:	0662      	lsls	r2, r4, #25
 8000d48:	d505      	bpl.n	8000d56 <main+0x162>
 8000d4a:	4d3c      	ldr	r5, [pc, #240]	; (8000e3c <main+0x248>)
 8000d4c:	6dee      	ldr	r6, [r5, #92]	; 0x5c
 8000d4e:	b116      	cbz	r6, 8000d56 <main+0x162>
 8000d50:	2701      	movs	r7, #1
 8000d52:	76ef      	strb	r7, [r5, #27]
 8000d54:	47b0      	blx	r6
 8000d56:	4838      	ldr	r0, [pc, #224]	; (8000e38 <main+0x244>)
 8000d58:	4b39      	ldr	r3, [pc, #228]	; (8000e40 <main+0x24c>)
 8000d5a:	6941      	ldr	r1, [r0, #20]
 8000d5c:	68c4      	ldr	r4, [r0, #12]
 8000d5e:	2200      	movs	r2, #0
 8000d60:	701a      	strb	r2, [r3, #0]
 8000d62:	4b36      	ldr	r3, [pc, #216]	; (8000e3c <main+0x248>)
 8000d64:	397f      	subs	r1, #127	; 0x7f
 8000d66:	b28d      	uxth	r5, r1
 8000d68:	3c7f      	subs	r4, #127	; 0x7f
 8000d6a:	f893 1060 	ldrb.w	r1, [r3, #96]	; 0x60
 8000d6e:	b2a4      	uxth	r4, r4
 8000d70:	b2af      	uxth	r7, r5
 8000d72:	b2a6      	uxth	r6, r4
 8000d74:	2900      	cmp	r1, #0
 8000d76:	d13b      	bne.n	8000df0 <main+0x1fc>
 8000d78:	b23b      	sxth	r3, r7
 8000d7a:	f113 0f1e 	cmn.w	r3, #30
 8000d7e:	db04      	blt.n	8000d8a <main+0x196>
 8000d80:	2b1e      	cmp	r3, #30
 8000d82:	f04f 0301 	mov.w	r3, #1
 8000d86:	dc02      	bgt.n	8000d8e <main+0x19a>
 8000d88:	e000      	b.n	8000d8c <main+0x198>
 8000d8a:	460b      	mov	r3, r1
 8000d8c:	2101      	movs	r1, #1
 8000d8e:	b232      	sxth	r2, r6
 8000d90:	f112 0f1e 	cmn.w	r2, #30
 8000d94:	db04      	blt.n	8000da0 <main+0x1ac>
 8000d96:	2a1e      	cmp	r2, #30
 8000d98:	f04f 0201 	mov.w	r2, #1
 8000d9c:	dc03      	bgt.n	8000da6 <main+0x1b2>
 8000d9e:	e000      	b.n	8000da2 <main+0x1ae>
 8000da0:	2200      	movs	r2, #0
 8000da2:	2001      	movs	r0, #1
 8000da4:	e000      	b.n	8000da8 <main+0x1b4>
 8000da6:	2000      	movs	r0, #0
 8000da8:	b23f      	sxth	r7, r7
 8000daa:	2f00      	cmp	r7, #0
 8000dac:	dd01      	ble.n	8000db2 <main+0x1be>
 8000dae:	006d      	lsls	r5, r5, #1
 8000db0:	e002      	b.n	8000db8 <main+0x1c4>
 8000db2:	f06f 0701 	mvn.w	r7, #1
 8000db6:	437d      	muls	r5, r7
 8000db8:	4f1d      	ldr	r7, [pc, #116]	; (8000e30 <main+0x23c>)
 8000dba:	f897 e000 	ldrb.w	lr, [r7]
 8000dbe:	4f20      	ldr	r7, [pc, #128]	; (8000e40 <main+0x24c>)
 8000dc0:	b2ad      	uxth	r5, r5
 8000dc2:	fb15 f50e 	smulbb	r5, r5, lr
 8000dc6:	f04f 0c64 	mov.w	ip, #100	; 0x64
 8000dca:	b236      	sxth	r6, r6
 8000dcc:	fb95 f5fc 	sdiv	r5, r5, ip
 8000dd0:	2e00      	cmp	r6, #0
 8000dd2:	707d      	strb	r5, [r7, #1]
 8000dd4:	dd01      	ble.n	8000dda <main+0x1e6>
 8000dd6:	0064      	lsls	r4, r4, #1
 8000dd8:	e002      	b.n	8000de0 <main+0x1ec>
 8000dda:	f06f 0501 	mvn.w	r5, #1
 8000dde:	436c      	muls	r4, r5
 8000de0:	b2a4      	uxth	r4, r4
 8000de2:	fb14 f60e 	smulbb	r6, r4, lr
 8000de6:	2564      	movs	r5, #100	; 0x64
 8000de8:	fb96 f4f5 	sdiv	r4, r6, r5
 8000dec:	70bc      	strb	r4, [r7, #2]
 8000dee:	e048      	b.n	8000e82 <main+0x28e>
 8000df0:	b230      	sxth	r0, r6
 8000df2:	281e      	cmp	r0, #30
 8000df4:	dc05      	bgt.n	8000e02 <main+0x20e>
 8000df6:	f110 031e 	adds.w	r3, r0, #30
 8000dfa:	f04f 0301 	mov.w	r3, #1
 8000dfe:	db03      	blt.n	8000e08 <main+0x214>
 8000e00:	e000      	b.n	8000e04 <main+0x210>
 8000e02:	4613      	mov	r3, r2
 8000e04:	2101      	movs	r1, #1
 8000e06:	e000      	b.n	8000e0a <main+0x216>
 8000e08:	4611      	mov	r1, r2
 8000e0a:	b23a      	sxth	r2, r7
 8000e0c:	2a1e      	cmp	r2, #30
 8000e0e:	dc08      	bgt.n	8000e22 <main+0x22e>
 8000e10:	f112 0f1e 	cmn.w	r2, #30
 8000e14:	bfb4      	ite	lt
 8000e16:	2000      	movlt	r0, #0
 8000e18:	2001      	movge	r0, #1
 8000e1a:	2a00      	cmp	r2, #0
 8000e1c:	dd12      	ble.n	8000e44 <main+0x250>
 8000e1e:	2201      	movs	r2, #1
 8000e20:	e001      	b.n	8000e26 <main+0x232>
 8000e22:	2200      	movs	r2, #0
 8000e24:	2001      	movs	r0, #1
 8000e26:	006f      	lsls	r7, r5, #1
 8000e28:	b2bd      	uxth	r5, r7
 8000e2a:	e010      	b.n	8000e4e <main+0x25a>
 8000e2c:	48028000 	.word	0x48028000
 8000e30:	200000a3 	.word	0x200000a3
 8000e34:	200000a4 	.word	0x200000a4
 8000e38:	200000ac 	.word	0x200000ac
 8000e3c:	20000014 	.word	0x20000014
 8000e40:	200000a5 	.word	0x200000a5
 8000e44:	f06f 0701 	mvn.w	r7, #1
 8000e48:	437d      	muls	r5, r7
 8000e4a:	b2ad      	uxth	r5, r5
 8000e4c:	2201      	movs	r2, #1
 8000e4e:	4f17      	ldr	r7, [pc, #92]	; (8000eac <main+0x2b8>)
 8000e50:	f897 e000 	ldrb.w	lr, [r7]
 8000e54:	4f16      	ldr	r7, [pc, #88]	; (8000eb0 <main+0x2bc>)
 8000e56:	fb15 f50e 	smulbb	r5, r5, lr
 8000e5a:	f04f 0c64 	mov.w	ip, #100	; 0x64
 8000e5e:	b236      	sxth	r6, r6
 8000e60:	fb95 f5fc 	sdiv	r5, r5, ip
 8000e64:	2e00      	cmp	r6, #0
 8000e66:	70bd      	strb	r5, [r7, #2]
 8000e68:	dd01      	ble.n	8000e6e <main+0x27a>
 8000e6a:	0064      	lsls	r4, r4, #1
 8000e6c:	e002      	b.n	8000e74 <main+0x280>
 8000e6e:	f06f 0501 	mvn.w	r5, #1
 8000e72:	436c      	muls	r4, r5
 8000e74:	b2a4      	uxth	r4, r4
 8000e76:	fb14 f60e 	smulbb	r6, r4, lr
 8000e7a:	2564      	movs	r5, #100	; 0x64
 8000e7c:	fb96 f4f5 	sdiv	r4, r6, r5
 8000e80:	707c      	strb	r4, [r7, #1]
 8000e82:	4d0c      	ldr	r5, [pc, #48]	; (8000eb4 <main+0x2c0>)
 8000e84:	4f0a      	ldr	r7, [pc, #40]	; (8000eb0 <main+0x2bc>)
 8000e86:	886c      	ldrh	r4, [r5, #2]
 8000e88:	0152      	lsls	r2, r2, #5
 8000e8a:	ea42 1000 	orr.w	r0, r2, r0, lsl #4
 8000e8e:	f041 0102 	orr.w	r1, r1, #2
 8000e92:	ea40 0601 	orr.w	r6, r0, r1
 8000e96:	ea46 03c3 	orr.w	r3, r6, r3, lsl #3
 8000e9a:	0922      	lsrs	r2, r4, #4
 8000e9c:	70fb      	strb	r3, [r7, #3]
 8000e9e:	713a      	strb	r2, [r7, #4]
 8000ea0:	f7ff fd5c 	bl	800095c <write_E>
 8000ea4:	f7ff fe70 	bl	8000b88 <updateButtonStates>
 8000ea8:	e6b4      	b.n	8000c14 <main+0x20>
 8000eaa:	bf00      	nop
 8000eac:	200000a3 	.word	0x200000a3
 8000eb0:	200000a5 	.word	0x200000a5
 8000eb4:	200000c4 	.word	0x200000c4

08000eb8 <turbo>:
 8000eb8:	4b01      	ldr	r3, [pc, #4]	; (8000ec0 <turbo+0x8>)
 8000eba:	225f      	movs	r2, #95	; 0x5f
 8000ebc:	701a      	strb	r2, [r3, #0]
 8000ebe:	4770      	bx	lr
 8000ec0:	200000a3 	.word	0x200000a3

08000ec4 <shunt>:
 8000ec4:	4b01      	ldr	r3, [pc, #4]	; (8000ecc <shunt+0x8>)
 8000ec6:	2228      	movs	r2, #40	; 0x28
 8000ec8:	701a      	strb	r2, [r3, #0]
 8000eca:	4770      	bx	lr
 8000ecc:	200000a3 	.word	0x200000a3

08000ed0 <flip>:
 8000ed0:	4b04      	ldr	r3, [pc, #16]	; (8000ee4 <flip+0x14>)
 8000ed2:	f893 2060 	ldrb.w	r2, [r3, #96]	; 0x60
 8000ed6:	f1d2 0001 	rsbs	r0, r2, #1
 8000eda:	bf38      	it	cc
 8000edc:	2000      	movcc	r0, #0
 8000ede:	f883 0060 	strb.w	r0, [r3, #96]	; 0x60
 8000ee2:	4770      	bx	lr
 8000ee4:	20000014 	.word	0x20000014

08000ee8 <_open>:
 8000ee8:	f04f 30ff 	mov.w	r0, #4294967295
 8000eec:	4770      	bx	lr

08000eee <_lseek>:
 8000eee:	f04f 30ff 	mov.w	r0, #4294967295
 8000ef2:	4770      	bx	lr

08000ef4 <_read>:
 8000ef4:	2000      	movs	r0, #0
 8000ef6:	4770      	bx	lr

08000ef8 <_write>:
 8000ef8:	f04f 30ff 	mov.w	r0, #4294967295
 8000efc:	4770      	bx	lr

08000efe <_close>:
 8000efe:	f04f 30ff 	mov.w	r0, #4294967295
 8000f02:	4770      	bx	lr

08000f04 <_fstat>:
 8000f04:	2900      	cmp	r1, #0
 8000f06:	bf0c      	ite	eq
 8000f08:	f06f 0001 	mvneq.w	r0, #1
 8000f0c:	f04f 30ff 	movne.w	r0, #4294967295
 8000f10:	4770      	bx	lr

08000f12 <_link>:
 8000f12:	4281      	cmp	r1, r0
 8000f14:	bf14      	ite	ne
 8000f16:	f06f 0001 	mvnne.w	r0, #1
 8000f1a:	f04f 30ff 	moveq.w	r0, #4294967295
 8000f1e:	4770      	bx	lr

08000f20 <_unlink>:
 8000f20:	f04f 30ff 	mov.w	r0, #4294967295
 8000f24:	4770      	bx	lr
	...

08000f28 <_sbrk>:
 8000f28:	4b0a      	ldr	r3, [pc, #40]	; (8000f54 <_sbrk+0x2c>)
 8000f2a:	681a      	ldr	r2, [r3, #0]
 8000f2c:	b922      	cbnz	r2, 8000f38 <_sbrk+0x10>
 8000f2e:	4a0a      	ldr	r2, [pc, #40]	; (8000f58 <_sbrk+0x30>)
 8000f30:	490a      	ldr	r1, [pc, #40]	; (8000f5c <_sbrk+0x34>)
 8000f32:	601a      	str	r2, [r3, #0]
 8000f34:	1852      	adds	r2, r2, r1
 8000f36:	605a      	str	r2, [r3, #4]
 8000f38:	681a      	ldr	r2, [r3, #0]
 8000f3a:	685b      	ldr	r3, [r3, #4]
 8000f3c:	1dd1      	adds	r1, r2, #7
 8000f3e:	1808      	adds	r0, r1, r0
 8000f40:	f020 0107 	bic.w	r1, r0, #7
 8000f44:	4299      	cmp	r1, r3
 8000f46:	bf3a      	itte	cc
 8000f48:	4b02      	ldrcc	r3, [pc, #8]	; (8000f54 <_sbrk+0x2c>)
 8000f4a:	6019      	strcc	r1, [r3, #0]
 8000f4c:	2200      	movcs	r2, #0
 8000f4e:	4610      	mov	r0, r2
 8000f50:	4770      	bx	lr
 8000f52:	bf00      	nop
 8000f54:	20000078 	.word	0x20000078
 8000f58:	200000c8 	.word	0x200000c8
 8000f5c:	0000ff38 	.word	0x0000ff38

08000f60 <_times>:
 8000f60:	f04f 30ff 	mov.w	r0, #4294967295
 8000f64:	4770      	bx	lr

08000f66 <_wait>:
 8000f66:	f04f 30ff 	mov.w	r0, #4294967295
 8000f6a:	4770      	bx	lr

08000f6c <_kill>:
 8000f6c:	f04f 30ff 	mov.w	r0, #4294967295
 8000f70:	4770      	bx	lr

08000f72 <_fork>:
 8000f72:	f04f 30ff 	mov.w	r0, #4294967295
 8000f76:	4770      	bx	lr

08000f78 <_getpid>:
 8000f78:	f04f 30ff 	mov.w	r0, #4294967295
 8000f7c:	4770      	bx	lr

08000f7e <_exit>:
 8000f7e:	e7fe      	b.n	8000f7e <_exit>

08000f80 <_init>:
 8000f80:	4770      	bx	lr

08000f82 <_isatty>:
 8000f82:	f04f 30ff 	mov.w	r0, #4294967295
 8000f86:	4770      	bx	lr

08000f88 <UART001_lInit>:
 8000f88:	6803      	ldr	r3, [r0, #0]
 8000f8a:	6c1a      	ldr	r2, [r3, #64]	; 0x40
 8000f8c:	f022 0102 	bic.w	r1, r2, #2
 8000f90:	b510      	push	{r4, lr}
 8000f92:	6419      	str	r1, [r3, #64]	; 0x40
 8000f94:	68dc      	ldr	r4, [r3, #12]
 8000f96:	f044 0203 	orr.w	r2, r4, #3
 8000f9a:	60da      	str	r2, [r3, #12]
 8000f9c:	6919      	ldr	r1, [r3, #16]
 8000f9e:	8d02      	ldrh	r2, [r0, #40]	; 0x28
 8000fa0:	f441 4400 	orr.w	r4, r1, #32768	; 0x8000
 8000fa4:	611c      	str	r4, [r3, #16]
 8000fa6:	6919      	ldr	r1, [r3, #16]
 8000fa8:	0594      	lsls	r4, r2, #22
 8000faa:	ea41 5194 	orr.w	r1, r1, r4, lsr #22
 8000fae:	6119      	str	r1, [r3, #16]
 8000fb0:	f890 2030 	ldrb.w	r2, [r0, #48]	; 0x30
 8000fb4:	695c      	ldr	r4, [r3, #20]
 8000fb6:	0211      	lsls	r1, r2, #8
 8000fb8:	8d82      	ldrh	r2, [r0, #44]	; 0x2c
 8000fba:	0292      	lsls	r2, r2, #10
 8000fbc:	f402 42f8 	and.w	r2, r2, #31744	; 0x7c00
 8000fc0:	f401 7140 	and.w	r1, r1, #768	; 0x300
 8000fc4:	4311      	orrs	r1, r2
 8000fc6:	4321      	orrs	r1, r4
 8000fc8:	8d44      	ldrh	r4, [r0, #42]	; 0x2a
 8000fca:	4a32      	ldr	r2, [pc, #200]	; (8001094 <UART001_lInit+0x10c>)
 8000fcc:	0424      	lsls	r4, r4, #16
 8000fce:	4022      	ands	r2, r4
 8000fd0:	4311      	orrs	r1, r2
 8000fd2:	6159      	str	r1, [r3, #20]
 8000fd4:	6b5c      	ldr	r4, [r3, #52]	; 0x34
 8000fd6:	f444 7281 	orr.w	r2, r4, #258	; 0x102
 8000fda:	635a      	str	r2, [r3, #52]	; 0x34
 8000fdc:	8b82      	ldrh	r2, [r0, #28]
 8000fde:	6b59      	ldr	r1, [r3, #52]	; 0x34
 8000fe0:	0414      	lsls	r4, r2, #16
 8000fe2:	0612      	lsls	r2, r2, #24
 8000fe4:	f404 147c 	and.w	r4, r4, #4128768	; 0x3f0000
 8000fe8:	f002 6270 	and.w	r2, r2, #251658240	; 0xf000000
 8000fec:	4322      	orrs	r2, r4
 8000fee:	430a      	orrs	r2, r1
 8000ff0:	635a      	str	r2, [r3, #52]	; 0x34
 8000ff2:	6b99      	ldr	r1, [r3, #56]	; 0x38
 8000ff4:	f441 62a0 	orr.w	r2, r1, #1280	; 0x500
 8000ff8:	639a      	str	r2, [r3, #56]	; 0x38
 8000ffa:	7d42      	ldrb	r2, [r0, #21]
 8000ffc:	6bd9      	ldr	r1, [r3, #60]	; 0x3c
 8000ffe:	0052      	lsls	r2, r2, #1
 8001000:	f041 0101 	orr.w	r1, r1, #1
 8001004:	f002 0202 	and.w	r2, r2, #2
 8001008:	430a      	orrs	r2, r1
 800100a:	8dc1      	ldrh	r1, [r0, #46]	; 0x2e
 800100c:	0209      	lsls	r1, r1, #8
 800100e:	f401 51f8 	and.w	r1, r1, #7936	; 0x1f00
 8001012:	430a      	orrs	r2, r1
 8001014:	63da      	str	r2, [r3, #60]	; 0x3c
 8001016:	f890 2024 	ldrb.w	r2, [r0, #36]	; 0x24
 800101a:	b11a      	cbz	r2, 8001024 <UART001_lInit+0x9c>
 800101c:	6bd9      	ldr	r1, [r3, #60]	; 0x3c
 800101e:	f041 0220 	orr.w	r2, r1, #32
 8001022:	63da      	str	r2, [r3, #60]	; 0x3c
 8001024:	f890 1025 	ldrb.w	r1, [r0, #37]	; 0x25
 8001028:	b119      	cbz	r1, 8001032 <UART001_lInit+0xaa>
 800102a:	6bda      	ldr	r2, [r3, #60]	; 0x3c
 800102c:	f042 0140 	orr.w	r1, r2, #64	; 0x40
 8001030:	63d9      	str	r1, [r3, #60]	; 0x3c
 8001032:	f890 2026 	ldrb.w	r2, [r0, #38]	; 0x26
 8001036:	b11a      	cbz	r2, 8001040 <UART001_lInit+0xb8>
 8001038:	6bd9      	ldr	r1, [r3, #60]	; 0x3c
 800103a:	f041 0280 	orr.w	r2, r1, #128	; 0x80
 800103e:	63da      	str	r2, [r3, #60]	; 0x3c
 8001040:	7f81      	ldrb	r1, [r0, #30]
 8001042:	b151      	cbz	r1, 800105a <UART001_lInit+0xd2>
 8001044:	f890 2020 	ldrb.w	r2, [r0, #32]
 8001048:	f8d3 1108 	ldr.w	r1, [r3, #264]	; 0x108
 800104c:	0212      	lsls	r2, r2, #8
 800104e:	f402 527c 	and.w	r2, r2, #16128	; 0x3f00
 8001052:	430a      	orrs	r2, r1
 8001054:	f8c3 2108 	str.w	r2, [r3, #264]	; 0x108
 8001058:	e003      	b.n	8001062 <UART001_lInit+0xda>
 800105a:	6c9a      	ldr	r2, [r3, #72]	; 0x48
 800105c:	f442 5100 	orr.w	r1, r2, #8192	; 0x2000
 8001060:	6499      	str	r1, [r3, #72]	; 0x48
 8001062:	7fc1      	ldrb	r1, [r0, #31]
 8001064:	b159      	cbz	r1, 800107e <UART001_lInit+0xf6>
 8001066:	f8d3 210c 	ldr.w	r2, [r3, #268]	; 0x10c
 800106a:	f042 5180 	orr.w	r1, r2, #268435456	; 0x10000000
 800106e:	f890 2021 	ldrb.w	r2, [r0, #33]	; 0x21
 8001072:	0212      	lsls	r2, r2, #8
 8001074:	f402 527c 	and.w	r2, r2, #16128	; 0x3f00
 8001078:	4311      	orrs	r1, r2
 800107a:	f8c3 110c 	str.w	r1, [r3, #268]	; 0x10c
 800107e:	6c1a      	ldr	r2, [r3, #64]	; 0x40
 8001080:	7d80      	ldrb	r0, [r0, #22]
 8001082:	f042 0102 	orr.w	r1, r2, #2
 8001086:	0202      	lsls	r2, r0, #8
 8001088:	f402 7040 	and.w	r0, r2, #768	; 0x300
 800108c:	4301      	orrs	r1, r0
 800108e:	6419      	str	r1, [r3, #64]	; 0x40
 8001090:	bd10      	pop	{r4, pc}
 8001092:	bf00      	nop
 8001094:	03ff0000 	.word	0x03ff0000

08001098 <UART001_lConfigTXPin>:
 8001098:	b510      	push	{r4, lr}
 800109a:	6843      	ldr	r3, [r0, #4]
 800109c:	7a02      	ldrb	r2, [r0, #8]
 800109e:	6859      	ldr	r1, [r3, #4]
 80010a0:	2401      	movs	r4, #1
 80010a2:	fa04 f202 	lsl.w	r2, r4, r2
 80010a6:	430a      	orrs	r2, r1
 80010a8:	605a      	str	r2, [r3, #4]
 80010aa:	7a00      	ldrb	r0, [r0, #8]
 80010ac:	2803      	cmp	r0, #3
 80010ae:	d808      	bhi.n	80010c2 <UART001_lConfigTXPin+0x2a>
 80010b0:	00c2      	lsls	r2, r0, #3
 80010b2:	6919      	ldr	r1, [r3, #16]
 80010b4:	3203      	adds	r2, #3
 80010b6:	2018      	movs	r0, #24
 80010b8:	fa00 f202 	lsl.w	r2, r0, r2
 80010bc:	430a      	orrs	r2, r1
 80010be:	611a      	str	r2, [r3, #16]
 80010c0:	bd10      	pop	{r4, pc}
 80010c2:	1f01      	subs	r1, r0, #4
 80010c4:	2903      	cmp	r1, #3
 80010c6:	d808      	bhi.n	80010da <UART001_lConfigTXPin+0x42>
 80010c8:	00c8      	lsls	r0, r1, #3
 80010ca:	695a      	ldr	r2, [r3, #20]
 80010cc:	1cc1      	adds	r1, r0, #3
 80010ce:	2018      	movs	r0, #24
 80010d0:	fa00 f101 	lsl.w	r1, r0, r1
 80010d4:	4311      	orrs	r1, r2
 80010d6:	6159      	str	r1, [r3, #20]
 80010d8:	bd10      	pop	{r4, pc}
 80010da:	f1a0 0108 	sub.w	r1, r0, #8
 80010de:	2903      	cmp	r1, #3
 80010e0:	d808      	bhi.n	80010f4 <UART001_lConfigTXPin+0x5c>
 80010e2:	00c9      	lsls	r1, r1, #3
 80010e4:	699a      	ldr	r2, [r3, #24]
 80010e6:	3103      	adds	r1, #3
 80010e8:	2018      	movs	r0, #24
 80010ea:	fa00 f101 	lsl.w	r1, r0, r1
 80010ee:	4311      	orrs	r1, r2
 80010f0:	6199      	str	r1, [r3, #24]
 80010f2:	bd10      	pop	{r4, pc}
 80010f4:	380c      	subs	r0, #12
 80010f6:	2803      	cmp	r0, #3
 80010f8:	d807      	bhi.n	800110a <UART001_lConfigTXPin+0x72>
 80010fa:	00c2      	lsls	r2, r0, #3
 80010fc:	69d9      	ldr	r1, [r3, #28]
 80010fe:	3203      	adds	r2, #3
 8001100:	2018      	movs	r0, #24
 8001102:	fa00 f202 	lsl.w	r2, r0, r2
 8001106:	430a      	orrs	r2, r1
 8001108:	61da      	str	r2, [r3, #28]
 800110a:	bd10      	pop	{r4, pc}

0800110c <UART001_labsRealType>:
 800110c:	ee07 0a90 	vmov	s15, r0
 8001110:	eef5 7ac0 	vcmpe.f32	s15, #0.0
 8001114:	eef1 fa10 	vmrs	APSR_nzcv, fpscr
 8001118:	bf48      	it	mi
 800111a:	eef1 7a67 	vnegmi.f32	s15, s15
 800111e:	ee17 0a90 	vmov	r0, s15
 8001122:	4770      	bx	lr

08001124 <UART001_lConfigureBaudRate>:
 8001124:	ee05 0a90 	vmov	s11, r0
 8001128:	eddf 7a65 	vldr	s15, [pc, #404]	; 80012c0 <UART001_lConfigureBaudRate+0x19c>
 800112c:	eef8 6a65 	vcvt.f32.u32	s13, s11
 8001130:	e92d 4ff0 	stmdb	sp!, {r4, r5, r6, r7, r8, r9, sl, fp, lr}
 8001134:	eec6 0aa7 	vdiv.f32	s1, s13, s15
 8001138:	b095      	sub	sp, #84	; 0x54
 800113a:	f642 53c6 	movw	r3, #11718	; 0x2dc6
 800113e:	eeb7 0a00 	vmov.f32	s0, #112	; 0x70
 8001142:	eef4 0ac0 	vcmpe.f32	s1, s0
 8001146:	eef1 fa10 	vmrs	APSR_nzcv, fpscr
 800114a:	bfcc      	ite	gt
 800114c:	461c      	movgt	r4, r3
 800114e:	4604      	movle	r4, r0
 8001150:	bfd8      	it	le
 8001152:	4618      	movle	r0, r3
 8001154:	bfd4      	ite	le
 8001156:	2700      	movle	r7, #0
 8001158:	2701      	movgt	r7, #1
 800115a:	9004      	str	r0, [sp, #16]
 800115c:	2001      	movs	r0, #1
 800115e:	9008      	str	r0, [sp, #32]
 8001160:	2000      	movs	r0, #0
 8001162:	9400      	str	r4, [sp, #0]
 8001164:	900c      	str	r0, [sp, #48]	; 0x30
 8001166:	4684      	mov	ip, r0
 8001168:	4680      	mov	r8, r0
 800116a:	ab14      	add	r3, sp, #80	; 0x50
 800116c:	eb03 0a88 	add.w	sl, r3, r8, lsl #2
 8001170:	3001      	adds	r0, #1
 8001172:	f85a 4c40 	ldr.w	r4, [sl, #-64]
 8001176:	f85a 5c50 	ldr.w	r5, [sl, #-80]
 800117a:	f000 0603 	and.w	r6, r0, #3
 800117e:	eb03 0386 	add.w	r3, r3, r6, lsl #2
 8001182:	fbb5 f9f4 	udiv	r9, r5, r4
 8001186:	fb04 5519 	mls	r5, r4, r9, r5
 800118a:	2801      	cmp	r0, #1
 800118c:	f843 4c50 	str.w	r4, [r3, #-80]
 8001190:	f843 9c10 	str.w	r9, [r3, #-16]
 8001194:	f843 5c40 	str.w	r5, [r3, #-64]
 8001198:	d103      	bne.n	80011a2 <UART001_lConfigureBaudRate+0x7e>
 800119a:	9b11      	ldr	r3, [sp, #68]	; 0x44
 800119c:	900d      	str	r0, [sp, #52]	; 0x34
 800119e:	9309      	str	r3, [sp, #36]	; 0x24
 80011a0:	e012      	b.n	80011c8 <UART001_lConfigureBaudRate+0xa4>
 80011a2:	ac14      	add	r4, sp, #80	; 0x50
 80011a4:	eb04 0b8c 	add.w	fp, r4, ip, lsl #2
 80011a8:	f85a 5c30 	ldr.w	r5, [sl, #-48]
 80011ac:	f85b 4c30 	ldr.w	r4, [fp, #-48]
 80011b0:	fb05 4509 	mla	r5, r5, r9, r4
 80011b4:	f843 5c30 	str.w	r5, [r3, #-48]
 80011b8:	f85b 4c20 	ldr.w	r4, [fp, #-32]
 80011bc:	f85a 5c20 	ldr.w	r5, [sl, #-32]
 80011c0:	fb05 4509 	mla	r5, r5, r9, r4
 80011c4:	f843 5c20 	str.w	r5, [r3, #-32]
 80011c8:	f10d 0950 	add.w	r9, sp, #80	; 0x50
 80011cc:	eb09 0586 	add.w	r5, r9, r6, lsl #2
 80011d0:	f855 3c20 	ldr.w	r3, [r5, #-32]
 80011d4:	f5b3 6f80 	cmp.w	r3, #1024	; 0x400
 80011d8:	d956      	bls.n	8001288 <UART001_lConfigureBaudRate+0x164>
 80011da:	eb09 008c 	add.w	r0, r9, ip, lsl #2
 80011de:	eb09 0388 	add.w	r3, r9, r8, lsl #2
 80011e2:	f850 0c20 	ldr.w	r0, [r0, #-32]
 80011e6:	f853 4c20 	ldr.w	r4, [r3, #-32]
 80011ea:	f853 5c30 	ldr.w	r5, [r3, #-48]
 80011ee:	f5c0 6880 	rsb	r8, r0, #1024	; 0x400
 80011f2:	f106 33ff 	add.w	r3, r6, #4294967295
 80011f6:	fbb8 fcf4 	udiv	ip, r8, r4
 80011fa:	eb09 0686 	add.w	r6, r9, r6, lsl #2
 80011fe:	eb09 0883 	add.w	r8, r9, r3, lsl #2
 8001202:	f856 6c38 	ldr.w	r6, [r6, #-56]
 8001206:	f858 3c30 	ldr.w	r3, [r8, #-48]
 800120a:	fb03 630c 	mla	r3, r3, ip, r6
 800120e:	f858 6c20 	ldr.w	r6, [r8, #-32]
 8001212:	fb06 000c 	mla	r0, r6, ip, r0
 8001216:	b12f      	cbz	r7, 8001224 <UART001_lConfigureBaudRate+0x100>
 8001218:	461e      	mov	r6, r3
 800121a:	4603      	mov	r3, r0
 800121c:	4630      	mov	r0, r6
 800121e:	462e      	mov	r6, r5
 8001220:	4625      	mov	r5, r4
 8001222:	4634      	mov	r4, r6
 8001224:	2c00      	cmp	r4, #0
 8001226:	d03f      	beq.n	80012a8 <UART001_lConfigureBaudRate+0x184>
 8001228:	2d00      	cmp	r5, #0
 800122a:	d03d      	beq.n	80012a8 <UART001_lConfigureBaudRate+0x184>
 800122c:	b3c0      	cbz	r0, 80012a0 <UART001_lConfigureBaudRate+0x17c>
 800122e:	b3bb      	cbz	r3, 80012a0 <UART001_lConfigureBaudRate+0x17c>
 8001230:	ee01 5a10 	vmov	s2, r5
 8001234:	ee06 4a10 	vmov	s12, r4
 8001238:	ee03 3a10 	vmov	s6, r3
 800123c:	ee04 0a10 	vmov	s8, r0
 8001240:	eeb8 7a41 	vcvt.f32.u32	s14, s2
 8001244:	eef8 1a46 	vcvt.f32.u32	s3, s12
 8001248:	eef8 3a43 	vcvt.f32.u32	s7, s6
 800124c:	eef8 4a44 	vcvt.f32.u32	s9, s8
 8001250:	ee87 2a21 	vdiv.f32	s4, s14, s3
 8001254:	ee83 5aa4 	vdiv.f32	s10, s7, s9
 8001258:	ee70 2ac2 	vsub.f32	s5, s1, s4
 800125c:	ee70 5ac5 	vsub.f32	s11, s1, s10
 8001260:	eef5 2ac0 	vcmpe.f32	s5, #0.0
 8001264:	eef1 fa10 	vmrs	APSR_nzcv, fpscr
 8001268:	eef5 5ac0 	vcmpe.f32	s11, #0.0
 800126c:	bf48      	it	mi
 800126e:	eef1 2a62 	vnegmi.f32	s5, s5
 8001272:	eef1 fa10 	vmrs	APSR_nzcv, fpscr
 8001276:	bf48      	it	mi
 8001278:	eef1 5a65 	vnegmi.f32	s11, s11
 800127c:	eef4 2ae5 	vcmpe.f32	s5, s11
 8001280:	eef1 fa10 	vmrs	APSR_nzcv, fpscr
 8001284:	dd0c      	ble.n	80012a0 <UART001_lConfigureBaudRate+0x17c>
 8001286:	e00f      	b.n	80012a8 <UART001_lConfigureBaudRate+0x184>
 8001288:	f855 4c40 	ldr.w	r4, [r5, #-64]
 800128c:	46c4      	mov	ip, r8
 800128e:	b10c      	cbz	r4, 8001294 <UART001_lConfigureBaudRate+0x170>
 8001290:	46b0      	mov	r8, r6
 8001292:	e76a      	b.n	800116a <UART001_lConfigureBaudRate+0x46>
 8001294:	f855 4c30 	ldr.w	r4, [r5, #-48]
 8001298:	b92f      	cbnz	r7, 80012a6 <UART001_lConfigureBaudRate+0x182>
 800129a:	4618      	mov	r0, r3
 800129c:	4623      	mov	r3, r4
 800129e:	e003      	b.n	80012a8 <UART001_lConfigureBaudRate+0x184>
 80012a0:	4620      	mov	r0, r4
 80012a2:	462b      	mov	r3, r5
 80012a4:	e000      	b.n	80012a8 <UART001_lConfigureBaudRate+0x184>
 80012a6:	4620      	mov	r0, r4
 80012a8:	f240 34ff 	movw	r4, #1023	; 0x3ff
 80012ac:	42a3      	cmp	r3, r4
 80012ae:	bf94      	ite	ls
 80012b0:	6013      	strls	r3, [r2, #0]
 80012b2:	6014      	strhi	r4, [r2, #0]
 80012b4:	1e42      	subs	r2, r0, #1
 80012b6:	600a      	str	r2, [r1, #0]
 80012b8:	b015      	add	sp, #84	; 0x54
 80012ba:	e8bd 8ff0 	ldmia.w	sp!, {r4, r5, r6, r7, r8, r9, sl, fp, pc}
 80012be:	bf00      	nop
 80012c0:	46371800 	.word	0x46371800

080012c4 <UART001_Init>:
 80012c4:	b510      	push	{r4, lr}
 80012c6:	4808      	ldr	r0, [pc, #32]	; (80012e8 <UART001_Init+0x24>)
 80012c8:	f000 f902 	bl	80014d0 <RESET001_DeassertReset>
 80012cc:	4b07      	ldr	r3, [pc, #28]	; (80012ec <UART001_Init+0x28>)
 80012ce:	6818      	ldr	r0, [r3, #0]
 80012d0:	7d02      	ldrb	r2, [r0, #20]
 80012d2:	2a01      	cmp	r2, #1
 80012d4:	461c      	mov	r4, r3
 80012d6:	d101      	bne.n	80012dc <UART001_Init+0x18>
 80012d8:	f7ff fede 	bl	8001098 <UART001_lConfigTXPin>
 80012dc:	6820      	ldr	r0, [r4, #0]
 80012de:	e8bd 4010 	ldmia.w	sp!, {r4, lr}
 80012e2:	f7ff be51 	b.w	8000f88 <UART001_lInit>
 80012e6:	bf00      	nop
 80012e8:	10000080 	.word	0x10000080
 80012ec:	20000008 	.word	0x20000008

080012f0 <UART001_DeInit>:
 80012f0:	4770      	bx	lr
	...

080012f4 <UART001_Configure>:
 80012f4:	b5f7      	push	{r0, r1, r2, r4, r5, r6, r7, lr}
 80012f6:	6804      	ldr	r4, [r0, #0]
 80012f8:	4616      	mov	r6, r2
 80012fa:	461f      	mov	r7, r3
 80012fc:	6ca2      	ldr	r2, [r4, #72]	; 0x48
 80012fe:	6ca3      	ldr	r3, [r4, #72]	; 0x48
 8001300:	f3c3 0340 	ubfx	r3, r3, #1, #1
 8001304:	2500      	movs	r5, #0
 8001306:	2003      	movs	r0, #3
 8001308:	421a      	tst	r2, r3
 800130a:	9500      	str	r5, [sp, #0]
 800130c:	9501      	str	r5, [sp, #4]
 800130e:	d039      	beq.n	8001384 <UART001_Configure+0x90>
 8001310:	6c20      	ldr	r0, [r4, #64]	; 0x40
 8001312:	f020 0202 	bic.w	r2, r0, #2
 8001316:	6422      	str	r2, [r4, #64]	; 0x40
 8001318:	4608      	mov	r0, r1
 800131a:	aa01      	add	r2, sp, #4
 800131c:	4669      	mov	r1, sp
 800131e:	f7ff ff01 	bl	8001124 <UART001_lConfigureBaudRate>
 8001322:	6921      	ldr	r1, [r4, #16]
 8001324:	f421 737f 	bic.w	r3, r1, #1020	; 0x3fc
 8001328:	f023 0003 	bic.w	r0, r3, #3
 800132c:	6120      	str	r0, [r4, #16]
 800132e:	9901      	ldr	r1, [sp, #4]
 8001330:	6922      	ldr	r2, [r4, #16]
 8001332:	058b      	lsls	r3, r1, #22
 8001334:	ea42 5093 	orr.w	r0, r2, r3, lsr #22
 8001338:	6120      	str	r0, [r4, #16]
 800133a:	6962      	ldr	r2, [r4, #20]
 800133c:	9800      	ldr	r0, [sp, #0]
 800133e:	f022 717f 	bic.w	r1, r2, #66846720	; 0x3fc0000
 8001342:	f421 3340 	bic.w	r3, r1, #196608	; 0x30000
 8001346:	6163      	str	r3, [r4, #20]
 8001348:	490f      	ldr	r1, [pc, #60]	; (8001388 <UART001_Configure+0x94>)
 800134a:	6962      	ldr	r2, [r4, #20]
 800134c:	0403      	lsls	r3, r0, #16
 800134e:	4019      	ands	r1, r3
 8001350:	4311      	orrs	r1, r2
 8001352:	6161      	str	r1, [r4, #20]
 8001354:	6be2      	ldr	r2, [r4, #60]	; 0x3c
 8001356:	f022 0002 	bic.w	r0, r2, #2
 800135a:	63e0      	str	r0, [r4, #60]	; 0x3c
 800135c:	6be3      	ldr	r3, [r4, #60]	; 0x3c
 800135e:	007f      	lsls	r7, r7, #1
 8001360:	f007 0702 	and.w	r7, r7, #2
 8001364:	431f      	orrs	r7, r3
 8001366:	63e7      	str	r7, [r4, #60]	; 0x3c
 8001368:	6c21      	ldr	r1, [r4, #64]	; 0x40
 800136a:	f421 7240 	bic.w	r2, r1, #768	; 0x300
 800136e:	6422      	str	r2, [r4, #64]	; 0x40
 8001370:	6c20      	ldr	r0, [r4, #64]	; 0x40
 8001372:	0236      	lsls	r6, r6, #8
 8001374:	f040 0302 	orr.w	r3, r0, #2
 8001378:	f406 7140 	and.w	r1, r6, #768	; 0x300
 800137c:	ea43 0601 	orr.w	r6, r3, r1
 8001380:	6426      	str	r6, [r4, #64]	; 0x40
 8001382:	4628      	mov	r0, r5
 8001384:	bdfe      	pop	{r1, r2, r3, r4, r5, r6, r7, pc}
 8001386:	bf00      	nop
 8001388:	03ff0000 	.word	0x03ff0000

0800138c <UART001_ReadDataMultiple>:
 800138c:	b510      	push	{r4, lr}
 800138e:	6803      	ldr	r3, [r0, #0]
 8001390:	7fc0      	ldrb	r0, [r0, #31]
 8001392:	b170      	cbz	r0, 80013b2 <UART001_ReadDataMultiple+0x26>
 8001394:	2000      	movs	r0, #0
 8001396:	f8d3 4114 	ldr.w	r4, [r3, #276]	; 0x114
 800139a:	f014 0f08 	tst.w	r4, #8
 800139e:	d10b      	bne.n	80013b8 <UART001_ReadDataMultiple+0x2c>
 80013a0:	4290      	cmp	r0, r2
 80013a2:	d005      	beq.n	80013b0 <UART001_ReadDataMultiple+0x24>
 80013a4:	f8d3 411c 	ldr.w	r4, [r3, #284]	; 0x11c
 80013a8:	f821 4010 	strh.w	r4, [r1, r0, lsl #1]
 80013ac:	3001      	adds	r0, #1
 80013ae:	e7f2      	b.n	8001396 <UART001_ReadDataMultiple+0xa>
 80013b0:	bd10      	pop	{r4, pc}
 80013b2:	6d5a      	ldr	r2, [r3, #84]	; 0x54
 80013b4:	2001      	movs	r0, #1
 80013b6:	800a      	strh	r2, [r1, #0]
 80013b8:	bd10      	pop	{r4, pc}

080013ba <UART001_ReadDataBytes>:
 80013ba:	b510      	push	{r4, lr}
 80013bc:	6803      	ldr	r3, [r0, #0]
 80013be:	7fc0      	ldrb	r0, [r0, #31]
 80013c0:	b168      	cbz	r0, 80013de <UART001_ReadDataBytes+0x24>
 80013c2:	2000      	movs	r0, #0
 80013c4:	f8d3 4114 	ldr.w	r4, [r3, #276]	; 0x114
 80013c8:	f014 0f08 	tst.w	r4, #8
 80013cc:	d10a      	bne.n	80013e4 <UART001_ReadDataBytes+0x2a>
 80013ce:	4290      	cmp	r0, r2
 80013d0:	d004      	beq.n	80013dc <UART001_ReadDataBytes+0x22>
 80013d2:	f8d3 411c 	ldr.w	r4, [r3, #284]	; 0x11c
 80013d6:	540c      	strb	r4, [r1, r0]
 80013d8:	3001      	adds	r0, #1
 80013da:	e7f3      	b.n	80013c4 <UART001_ReadDataBytes+0xa>
 80013dc:	bd10      	pop	{r4, pc}
 80013de:	6d5a      	ldr	r2, [r3, #84]	; 0x54
 80013e0:	2001      	movs	r0, #1
 80013e2:	700a      	strb	r2, [r1, #0]
 80013e4:	bd10      	pop	{r4, pc}

080013e6 <UART001_WriteDataMultiple>:
 80013e6:	b510      	push	{r4, lr}
 80013e8:	6803      	ldr	r3, [r0, #0]
 80013ea:	7f80      	ldrb	r0, [r0, #30]
 80013ec:	b170      	cbz	r0, 800140c <UART001_WriteDataMultiple+0x26>
 80013ee:	2000      	movs	r0, #0
 80013f0:	f8d3 4114 	ldr.w	r4, [r3, #276]	; 0x114
 80013f4:	f414 5f80 	tst.w	r4, #4096	; 0x1000
 80013f8:	d10f      	bne.n	800141a <UART001_WriteDataMultiple+0x34>
 80013fa:	4290      	cmp	r0, r2
 80013fc:	d005      	beq.n	800140a <UART001_WriteDataMultiple+0x24>
 80013fe:	f831 4010 	ldrh.w	r4, [r1, r0, lsl #1]
 8001402:	3001      	adds	r0, #1
 8001404:	f8c3 4180 	str.w	r4, [r3, #384]	; 0x180
 8001408:	e7f2      	b.n	80013f0 <UART001_WriteDataMultiple+0xa>
 800140a:	bd10      	pop	{r4, pc}
 800140c:	6b9a      	ldr	r2, [r3, #56]	; 0x38
 800140e:	0612      	lsls	r2, r2, #24
 8001410:	d403      	bmi.n	800141a <UART001_WriteDataMultiple+0x34>
 8001412:	8808      	ldrh	r0, [r1, #0]
 8001414:	f8c3 0080 	str.w	r0, [r3, #128]	; 0x80
 8001418:	2001      	movs	r0, #1
 800141a:	bd10      	pop	{r4, pc}

0800141c <UART001_WriteDataBytes>:
 800141c:	b510      	push	{r4, lr}
 800141e:	6803      	ldr	r3, [r0, #0]
 8001420:	7f80      	ldrb	r0, [r0, #30]
 8001422:	b168      	cbz	r0, 8001440 <UART001_WriteDataBytes+0x24>
 8001424:	2000      	movs	r0, #0
 8001426:	f8d3 4114 	ldr.w	r4, [r3, #276]	; 0x114
 800142a:	f414 5f80 	tst.w	r4, #4096	; 0x1000
 800142e:	d10e      	bne.n	800144e <UART001_WriteDataBytes+0x32>
 8001430:	4290      	cmp	r0, r2
 8001432:	d004      	beq.n	800143e <UART001_WriteDataBytes+0x22>
 8001434:	5c0c      	ldrb	r4, [r1, r0]
 8001436:	3001      	adds	r0, #1
 8001438:	f8c3 4180 	str.w	r4, [r3, #384]	; 0x180
 800143c:	e7f3      	b.n	8001426 <UART001_WriteDataBytes+0xa>
 800143e:	bd10      	pop	{r4, pc}
 8001440:	6b9a      	ldr	r2, [r3, #56]	; 0x38
 8001442:	0612      	lsls	r2, r2, #24
 8001444:	d403      	bmi.n	800144e <UART001_WriteDataBytes+0x32>
 8001446:	7808      	ldrb	r0, [r1, #0]
 8001448:	f8c3 0080 	str.w	r0, [r3, #128]	; 0x80
 800144c:	2001      	movs	r0, #1
 800144e:	bd10      	pop	{r4, pc}

08001450 <UART001_GetFlagStatus>:
 8001450:	290f      	cmp	r1, #15
 8001452:	6803      	ldr	r3, [r0, #0]
 8001454:	d806      	bhi.n	8001464 <UART001_GetFlagStatus+0x14>
 8001456:	6c9b      	ldr	r3, [r3, #72]	; 0x48
 8001458:	2201      	movs	r2, #1
 800145a:	fa02 f101 	lsl.w	r1, r2, r1
 800145e:	ea01 0003 	and.w	r0, r1, r3
 8001462:	e00c      	b.n	800147e <UART001_GetFlagStatus+0x2e>
 8001464:	2912      	cmp	r1, #18
 8001466:	f8d3 3114 	ldr.w	r3, [r3, #276]	; 0x114
 800146a:	f04f 0201 	mov.w	r2, #1
 800146e:	bf94      	ite	ls
 8001470:	f1a1 0010 	subls.w	r0, r1, #16
 8001474:	f1a1 000b 	subhi.w	r0, r1, #11
 8001478:	fa02 f000 	lsl.w	r0, r2, r0
 800147c:	4018      	ands	r0, r3
 800147e:	2800      	cmp	r0, #0
 8001480:	bf14      	ite	ne
 8001482:	2002      	movne	r0, #2
 8001484:	2001      	moveq	r0, #1
 8001486:	4770      	bx	lr

08001488 <UART001_ClearFlag>:
 8001488:	290f      	cmp	r1, #15
 800148a:	6803      	ldr	r3, [r0, #0]
 800148c:	d806      	bhi.n	800149c <UART001_ClearFlag+0x14>
 800148e:	6cda      	ldr	r2, [r3, #76]	; 0x4c
 8001490:	2001      	movs	r0, #1
 8001492:	fa00 f101 	lsl.w	r1, r0, r1
 8001496:	4311      	orrs	r1, r2
 8001498:	64d9      	str	r1, [r3, #76]	; 0x4c
 800149a:	4770      	bx	lr
 800149c:	2912      	cmp	r1, #18
 800149e:	f8d3 0118 	ldr.w	r0, [r3, #280]	; 0x118
 80014a2:	f04f 0201 	mov.w	r2, #1
 80014a6:	d801      	bhi.n	80014ac <UART001_ClearFlag+0x24>
 80014a8:	3910      	subs	r1, #16
 80014aa:	e000      	b.n	80014ae <UART001_ClearFlag+0x26>
 80014ac:	390b      	subs	r1, #11
 80014ae:	fa02 f201 	lsl.w	r2, r2, r1
 80014b2:	4302      	orrs	r2, r0
 80014b4:	f8c3 2118 	str.w	r2, [r3, #280]	; 0x118
 80014b8:	4770      	bx	lr
	...

080014bc <RESET001_AssertReset>:
 80014bc:	0f03      	lsrs	r3, r0, #28
 80014be:	220c      	movs	r2, #12
 80014c0:	435a      	muls	r2, r3
 80014c2:	4902      	ldr	r1, [pc, #8]	; (80014cc <RESET001_AssertReset+0x10>)
 80014c4:	f020 4070 	bic.w	r0, r0, #4026531840	; 0xf0000000
 80014c8:	5050      	str	r0, [r2, r1]
 80014ca:	4770      	bx	lr
 80014cc:	50004410 	.word	0x50004410

080014d0 <RESET001_DeassertReset>:
 80014d0:	0f03      	lsrs	r3, r0, #28
 80014d2:	220c      	movs	r2, #12
 80014d4:	435a      	muls	r2, r3
 80014d6:	4902      	ldr	r1, [pc, #8]	; (80014e0 <RESET001_DeassertReset+0x10>)
 80014d8:	f020 4070 	bic.w	r0, r0, #4026531840	; 0xf0000000
 80014dc:	5050      	str	r0, [r2, r1]
 80014de:	4770      	bx	lr
 80014e0:	50004414 	.word	0x50004414

080014e4 <RESET001_GetResetInfo>:
 80014e4:	4b01      	ldr	r3, [pc, #4]	; (80014ec <RESET001_GetResetInfo+0x8>)
 80014e6:	6818      	ldr	r0, [r3, #0]
 80014e8:	b2c0      	uxtb	r0, r0
 80014ea:	4770      	bx	lr
 80014ec:	50004400 	.word	0x50004400

080014f0 <RESET001_GetStatus>:
 80014f0:	f020 4270 	bic.w	r2, r0, #4026531840	; 0xf0000000
 80014f4:	230c      	movs	r3, #12
 80014f6:	0f00      	lsrs	r0, r0, #28
 80014f8:	4358      	muls	r0, r3
 80014fa:	4903      	ldr	r1, [pc, #12]	; (8001508 <RESET001_GetStatus+0x18>)
 80014fc:	5840      	ldr	r0, [r0, r1]
 80014fe:	4202      	tst	r2, r0
 8001500:	bf0c      	ite	eq
 8001502:	2000      	moveq	r0, #0
 8001504:	2001      	movne	r0, #1
 8001506:	4770      	bx	lr
 8001508:	5000440c 	.word	0x5000440c

0800150c <RESET001_ClearResetInfo>:
 800150c:	4b02      	ldr	r3, [pc, #8]	; (8001518 <RESET001_ClearResetInfo+0xc>)
 800150e:	689a      	ldr	r2, [r3, #8]
 8001510:	f042 0001 	orr.w	r0, r2, #1
 8001514:	6098      	str	r0, [r3, #8]
 8001516:	4770      	bx	lr
 8001518:	50004400 	.word	0x50004400

0800151c <NVIC002_Init>:
 800151c:	b5f0      	push	{r4, r5, r6, r7, lr}
 800151e:	4a20      	ldr	r2, [pc, #128]	; (80015a0 <NVIC002_Init+0x84>)
 8001520:	4b20      	ldr	r3, [pc, #128]	; (80015a4 <NVIC002_Init+0x88>)
 8001522:	68d1      	ldr	r1, [r2, #12]
 8001524:	681b      	ldr	r3, [r3, #0]
 8001526:	f3c1 2202 	ubfx	r2, r1, #8, #3
 800152a:	7818      	ldrb	r0, [r3, #0]
 800152c:	785e      	ldrb	r6, [r3, #1]
 800152e:	f893 c002 	ldrb.w	ip, [r3, #2]
 8001532:	f1c2 0707 	rsb	r7, r2, #7
 8001536:	b2c5      	uxtb	r5, r0
 8001538:	2f06      	cmp	r7, #6
 800153a:	bf28      	it	cs
 800153c:	2706      	movcs	r7, #6
 800153e:	b102      	cbz	r2, 8001542 <NVIC002_Init+0x26>
 8001540:	3a01      	subs	r2, #1
 8001542:	2401      	movs	r4, #1
 8001544:	fa04 f102 	lsl.w	r1, r4, r2
 8001548:	fa04 f407 	lsl.w	r4, r4, r7
 800154c:	3c01      	subs	r4, #1
 800154e:	3901      	subs	r1, #1
 8001550:	4034      	ands	r4, r6
 8001552:	fa04 f202 	lsl.w	r2, r4, r2
 8001556:	ea01 010c 	and.w	r1, r1, ip
 800155a:	4311      	orrs	r1, r2
 800155c:	b26a      	sxtb	r2, r5
 800155e:	2a00      	cmp	r2, #0
 8001560:	ea4f 0181 	mov.w	r1, r1, lsl #2
 8001564:	da06      	bge.n	8001574 <NVIC002_Init+0x58>
 8001566:	4a10      	ldr	r2, [pc, #64]	; (80015a8 <NVIC002_Init+0x8c>)
 8001568:	f000 000f 	and.w	r0, r0, #15
 800156c:	1880      	adds	r0, r0, r2
 800156e:	b2c9      	uxtb	r1, r1
 8001570:	7601      	strb	r1, [r0, #24]
 8001572:	e006      	b.n	8001582 <NVIC002_Init+0x66>
 8001574:	f102 4260 	add.w	r2, r2, #3758096384	; 0xe0000000
 8001578:	b2c8      	uxtb	r0, r1
 800157a:	f502 4161 	add.w	r1, r2, #57600	; 0xe100
 800157e:	f881 0300 	strb.w	r0, [r1, #768]	; 0x300
 8001582:	78da      	ldrb	r2, [r3, #3]
 8001584:	2a01      	cmp	r2, #1
 8001586:	d109      	bne.n	800159c <NVIC002_Init+0x80>
 8001588:	781b      	ldrb	r3, [r3, #0]
 800158a:	b259      	sxtb	r1, r3
 800158c:	0948      	lsrs	r0, r1, #5
 800158e:	f003 031f 	and.w	r3, r3, #31
 8001592:	4906      	ldr	r1, [pc, #24]	; (80015ac <NVIC002_Init+0x90>)
 8001594:	fa02 f203 	lsl.w	r2, r2, r3
 8001598:	f841 2020 	str.w	r2, [r1, r0, lsl #2]
 800159c:	bdf0      	pop	{r4, r5, r6, r7, pc}
 800159e:	bf00      	nop
 80015a0:	e000ed00 	.word	0xe000ed00
 80015a4:	2000000c 	.word	0x2000000c
 80015a8:	e000ecfc 	.word	0xe000ecfc
 80015ac:	e000e100 	.word	0xe000e100

080015b0 <IO004_Init>:
 80015b0:	4b43      	ldr	r3, [pc, #268]	; (80016c0 <IO004_Init+0x110>)
 80015b2:	685a      	ldr	r2, [r3, #4]
 80015b4:	2000      	movs	r0, #0
 80015b6:	6050      	str	r0, [r2, #4]
 80015b8:	6c51      	ldr	r1, [r2, #68]	; 0x44
 80015ba:	f021 0307 	bic.w	r3, r1, #7
 80015be:	6453      	str	r3, [r2, #68]	; 0x44
 80015c0:	6c51      	ldr	r1, [r2, #68]	; 0x44
 80015c2:	f041 0304 	orr.w	r3, r1, #4
 80015c6:	6453      	str	r3, [r2, #68]	; 0x44
 80015c8:	6991      	ldr	r1, [r2, #24]
 80015ca:	6191      	str	r1, [r2, #24]
 80015cc:	4a3d      	ldr	r2, [pc, #244]	; (80016c4 <IO004_Init+0x114>)
 80015ce:	6853      	ldr	r3, [r2, #4]
 80015d0:	6058      	str	r0, [r3, #4]
 80015d2:	6c19      	ldr	r1, [r3, #64]	; 0x40
 80015d4:	f021 0207 	bic.w	r2, r1, #7
 80015d8:	641a      	str	r2, [r3, #64]	; 0x40
 80015da:	6c19      	ldr	r1, [r3, #64]	; 0x40
 80015dc:	f041 0204 	orr.w	r2, r1, #4
 80015e0:	641a      	str	r2, [r3, #64]	; 0x40
 80015e2:	6919      	ldr	r1, [r3, #16]
 80015e4:	6119      	str	r1, [r3, #16]
 80015e6:	4b38      	ldr	r3, [pc, #224]	; (80016c8 <IO004_Init+0x118>)
 80015e8:	685a      	ldr	r2, [r3, #4]
 80015ea:	6050      	str	r0, [r2, #4]
 80015ec:	6c51      	ldr	r1, [r2, #68]	; 0x44
 80015ee:	f021 0370 	bic.w	r3, r1, #112	; 0x70
 80015f2:	6453      	str	r3, [r2, #68]	; 0x44
 80015f4:	6c51      	ldr	r1, [r2, #68]	; 0x44
 80015f6:	f041 0340 	orr.w	r3, r1, #64	; 0x40
 80015fa:	6453      	str	r3, [r2, #68]	; 0x44
 80015fc:	6991      	ldr	r1, [r2, #24]
 80015fe:	6191      	str	r1, [r2, #24]
 8001600:	4a32      	ldr	r2, [pc, #200]	; (80016cc <IO004_Init+0x11c>)
 8001602:	6853      	ldr	r3, [r2, #4]
 8001604:	6058      	str	r0, [r3, #4]
 8001606:	6c59      	ldr	r1, [r3, #68]	; 0x44
 8001608:	f021 0207 	bic.w	r2, r1, #7
 800160c:	645a      	str	r2, [r3, #68]	; 0x44
 800160e:	6c59      	ldr	r1, [r3, #68]	; 0x44
 8001610:	f041 0204 	orr.w	r2, r1, #4
 8001614:	645a      	str	r2, [r3, #68]	; 0x44
 8001616:	6999      	ldr	r1, [r3, #24]
 8001618:	6199      	str	r1, [r3, #24]
 800161a:	4b2d      	ldr	r3, [pc, #180]	; (80016d0 <IO004_Init+0x120>)
 800161c:	685a      	ldr	r2, [r3, #4]
 800161e:	6050      	str	r0, [r2, #4]
 8001620:	6c11      	ldr	r1, [r2, #64]	; 0x40
 8001622:	f421 03e0 	bic.w	r3, r1, #7340032	; 0x700000
 8001626:	6413      	str	r3, [r2, #64]	; 0x40
 8001628:	6c11      	ldr	r1, [r2, #64]	; 0x40
 800162a:	f441 0380 	orr.w	r3, r1, #4194304	; 0x400000
 800162e:	6413      	str	r3, [r2, #64]	; 0x40
 8001630:	6951      	ldr	r1, [r2, #20]
 8001632:	6151      	str	r1, [r2, #20]
 8001634:	4a27      	ldr	r2, [pc, #156]	; (80016d4 <IO004_Init+0x124>)
 8001636:	6853      	ldr	r3, [r2, #4]
 8001638:	6058      	str	r0, [r3, #4]
 800163a:	6c19      	ldr	r1, [r3, #64]	; 0x40
 800163c:	f421 22e0 	bic.w	r2, r1, #458752	; 0x70000
 8001640:	641a      	str	r2, [r3, #64]	; 0x40
 8001642:	6c19      	ldr	r1, [r3, #64]	; 0x40
 8001644:	f441 2280 	orr.w	r2, r1, #262144	; 0x40000
 8001648:	641a      	str	r2, [r3, #64]	; 0x40
 800164a:	6959      	ldr	r1, [r3, #20]
 800164c:	6159      	str	r1, [r3, #20]
 800164e:	4b22      	ldr	r3, [pc, #136]	; (80016d8 <IO004_Init+0x128>)
 8001650:	685a      	ldr	r2, [r3, #4]
 8001652:	6050      	str	r0, [r2, #4]
 8001654:	6c11      	ldr	r1, [r2, #64]	; 0x40
 8001656:	f421 43e0 	bic.w	r3, r1, #28672	; 0x7000
 800165a:	6413      	str	r3, [r2, #64]	; 0x40
 800165c:	6c11      	ldr	r1, [r2, #64]	; 0x40
 800165e:	f441 4380 	orr.w	r3, r1, #16384	; 0x4000
 8001662:	6413      	str	r3, [r2, #64]	; 0x40
 8001664:	6911      	ldr	r1, [r2, #16]
 8001666:	f041 53c0 	orr.w	r3, r1, #402653184	; 0x18000000
 800166a:	6113      	str	r3, [r2, #16]
 800166c:	4a1b      	ldr	r2, [pc, #108]	; (80016dc <IO004_Init+0x12c>)
 800166e:	6853      	ldr	r3, [r2, #4]
 8001670:	6058      	str	r0, [r3, #4]
 8001672:	6c19      	ldr	r1, [r3, #64]	; 0x40
 8001674:	f421 62e0 	bic.w	r2, r1, #1792	; 0x700
 8001678:	641a      	str	r2, [r3, #64]	; 0x40
 800167a:	6c19      	ldr	r1, [r3, #64]	; 0x40
 800167c:	f441 6280 	orr.w	r2, r1, #1024	; 0x400
 8001680:	641a      	str	r2, [r3, #64]	; 0x40
 8001682:	6919      	ldr	r1, [r3, #16]
 8001684:	6119      	str	r1, [r3, #16]
 8001686:	4b16      	ldr	r3, [pc, #88]	; (80016e0 <IO004_Init+0x130>)
 8001688:	685a      	ldr	r2, [r3, #4]
 800168a:	6050      	str	r0, [r2, #4]
 800168c:	6c11      	ldr	r1, [r2, #64]	; 0x40
 800168e:	f021 0370 	bic.w	r3, r1, #112	; 0x70
 8001692:	6413      	str	r3, [r2, #64]	; 0x40
 8001694:	6c11      	ldr	r1, [r2, #64]	; 0x40
 8001696:	f041 0340 	orr.w	r3, r1, #64	; 0x40
 800169a:	6413      	str	r3, [r2, #64]	; 0x40
 800169c:	6911      	ldr	r1, [r2, #16]
 800169e:	6111      	str	r1, [r2, #16]
 80016a0:	4a10      	ldr	r2, [pc, #64]	; (80016e4 <IO004_Init+0x134>)
 80016a2:	6851      	ldr	r1, [r2, #4]
 80016a4:	6048      	str	r0, [r1, #4]
 80016a6:	6c08      	ldr	r0, [r1, #64]	; 0x40
 80016a8:	f020 43e0 	bic.w	r3, r0, #1879048192	; 0x70000000
 80016ac:	640b      	str	r3, [r1, #64]	; 0x40
 80016ae:	6c0a      	ldr	r2, [r1, #64]	; 0x40
 80016b0:	f042 4080 	orr.w	r0, r2, #1073741824	; 0x40000000
 80016b4:	6408      	str	r0, [r1, #64]	; 0x40
 80016b6:	694b      	ldr	r3, [r1, #20]
 80016b8:	f043 5280 	orr.w	r2, r3, #268435456	; 0x10000000
 80016bc:	614a      	str	r2, [r1, #20]
 80016be:	4770      	bx	lr
 80016c0:	08002f04 	.word	0x08002f04
 80016c4:	08002efc 	.word	0x08002efc
 80016c8:	08002ef4 	.word	0x08002ef4
 80016cc:	08002eec 	.word	0x08002eec
 80016d0:	08002ee4 	.word	0x08002ee4
 80016d4:	08002edc 	.word	0x08002edc
 80016d8:	08002ed4 	.word	0x08002ed4
 80016dc:	08002ecc 	.word	0x08002ecc
 80016e0:	08002ec4 	.word	0x08002ec4
 80016e4:	08002ebc 	.word	0x08002ebc

080016e8 <IO004_DisableOutputDriver>:
 80016e8:	b510      	push	{r4, lr}
 80016ea:	7843      	ldrb	r3, [r0, #1]
 80016ec:	2b03      	cmp	r3, #3
 80016ee:	d811      	bhi.n	8001714 <IO004_DisableOutputDriver+0x2c>
 80016f0:	6842      	ldr	r2, [r0, #4]
 80016f2:	00db      	lsls	r3, r3, #3
 80016f4:	6914      	ldr	r4, [r2, #16]
 80016f6:	3303      	adds	r3, #3
 80016f8:	201f      	movs	r0, #31
 80016fa:	fa00 f003 	lsl.w	r0, r0, r3
 80016fe:	ea24 0000 	bic.w	r0, r4, r0
 8001702:	6110      	str	r0, [r2, #16]
 8001704:	6910      	ldr	r0, [r2, #16]
 8001706:	f001 011f 	and.w	r1, r1, #31
 800170a:	fa01 f303 	lsl.w	r3, r1, r3
 800170e:	4303      	orrs	r3, r0
 8001710:	6113      	str	r3, [r2, #16]
 8001712:	bd10      	pop	{r4, pc}
 8001714:	1f1a      	subs	r2, r3, #4
 8001716:	b2d2      	uxtb	r2, r2
 8001718:	2a03      	cmp	r2, #3
 800171a:	d811      	bhi.n	8001740 <IO004_DisableOutputDriver+0x58>
 800171c:	6843      	ldr	r3, [r0, #4]
 800171e:	00d0      	lsls	r0, r2, #3
 8001720:	695c      	ldr	r4, [r3, #20]
 8001722:	1cc2      	adds	r2, r0, #3
 8001724:	201f      	movs	r0, #31
 8001726:	fa00 f002 	lsl.w	r0, r0, r2
 800172a:	ea24 0000 	bic.w	r0, r4, r0
 800172e:	6158      	str	r0, [r3, #20]
 8001730:	6958      	ldr	r0, [r3, #20]
 8001732:	f001 011f 	and.w	r1, r1, #31
 8001736:	fa01 f202 	lsl.w	r2, r1, r2
 800173a:	4302      	orrs	r2, r0
 800173c:	615a      	str	r2, [r3, #20]
 800173e:	bd10      	pop	{r4, pc}
 8001740:	f1a3 0208 	sub.w	r2, r3, #8
 8001744:	b2d2      	uxtb	r2, r2
 8001746:	2a03      	cmp	r2, #3
 8001748:	d811      	bhi.n	800176e <IO004_DisableOutputDriver+0x86>
 800174a:	6843      	ldr	r3, [r0, #4]
 800174c:	00d2      	lsls	r2, r2, #3
 800174e:	699c      	ldr	r4, [r3, #24]
 8001750:	3203      	adds	r2, #3
 8001752:	201f      	movs	r0, #31
 8001754:	fa00 f002 	lsl.w	r0, r0, r2
 8001758:	ea24 0000 	bic.w	r0, r4, r0
 800175c:	6198      	str	r0, [r3, #24]
 800175e:	6998      	ldr	r0, [r3, #24]
 8001760:	f001 011f 	and.w	r1, r1, #31
 8001764:	fa01 f202 	lsl.w	r2, r1, r2
 8001768:	4302      	orrs	r2, r0
 800176a:	619a      	str	r2, [r3, #24]
 800176c:	bd10      	pop	{r4, pc}
 800176e:	3b0c      	subs	r3, #12
 8001770:	b2db      	uxtb	r3, r3
 8001772:	2b03      	cmp	r3, #3
 8001774:	d810      	bhi.n	8001798 <IO004_DisableOutputDriver+0xb0>
 8001776:	6842      	ldr	r2, [r0, #4]
 8001778:	00d8      	lsls	r0, r3, #3
 800177a:	69d4      	ldr	r4, [r2, #28]
 800177c:	1cc3      	adds	r3, r0, #3
 800177e:	201f      	movs	r0, #31
 8001780:	fa00 f003 	lsl.w	r0, r0, r3
 8001784:	ea24 0000 	bic.w	r0, r4, r0
 8001788:	61d0      	str	r0, [r2, #28]
 800178a:	69d0      	ldr	r0, [r2, #28]
 800178c:	f001 011f 	and.w	r1, r1, #31
 8001790:	fa01 f303 	lsl.w	r3, r1, r3
 8001794:	4303      	orrs	r3, r0
 8001796:	61d3      	str	r3, [r2, #28]
 8001798:	bd10      	pop	{r4, pc}

0800179a <IO004_EnableOutputDriver>:
 800179a:	b510      	push	{r4, lr}
 800179c:	7843      	ldrb	r3, [r0, #1]
 800179e:	2b03      	cmp	r3, #3
 80017a0:	d811      	bhi.n	80017c6 <IO004_EnableOutputDriver+0x2c>
 80017a2:	6842      	ldr	r2, [r0, #4]
 80017a4:	00db      	lsls	r3, r3, #3
 80017a6:	6914      	ldr	r4, [r2, #16]
 80017a8:	3303      	adds	r3, #3
 80017aa:	201f      	movs	r0, #31
 80017ac:	fa00 f003 	lsl.w	r0, r0, r3
 80017b0:	ea24 0000 	bic.w	r0, r4, r0
 80017b4:	6110      	str	r0, [r2, #16]
 80017b6:	6910      	ldr	r0, [r2, #16]
 80017b8:	f001 011f 	and.w	r1, r1, #31
 80017bc:	fa01 f303 	lsl.w	r3, r1, r3
 80017c0:	4303      	orrs	r3, r0
 80017c2:	6113      	str	r3, [r2, #16]
 80017c4:	bd10      	pop	{r4, pc}
 80017c6:	1f1a      	subs	r2, r3, #4
 80017c8:	b2d2      	uxtb	r2, r2
 80017ca:	2a03      	cmp	r2, #3
 80017cc:	d811      	bhi.n	80017f2 <IO004_EnableOutputDriver+0x58>
 80017ce:	6843      	ldr	r3, [r0, #4]
 80017d0:	00d0      	lsls	r0, r2, #3
 80017d2:	695c      	ldr	r4, [r3, #20]
 80017d4:	1cc2      	adds	r2, r0, #3
 80017d6:	201f      	movs	r0, #31
 80017d8:	fa00 f002 	lsl.w	r0, r0, r2
 80017dc:	ea24 0000 	bic.w	r0, r4, r0
 80017e0:	6158      	str	r0, [r3, #20]
 80017e2:	6958      	ldr	r0, [r3, #20]
 80017e4:	f001 011f 	and.w	r1, r1, #31
 80017e8:	fa01 f202 	lsl.w	r2, r1, r2
 80017ec:	4302      	orrs	r2, r0
 80017ee:	615a      	str	r2, [r3, #20]
 80017f0:	bd10      	pop	{r4, pc}
 80017f2:	f1a3 0208 	sub.w	r2, r3, #8
 80017f6:	b2d2      	uxtb	r2, r2
 80017f8:	2a03      	cmp	r2, #3
 80017fa:	d811      	bhi.n	8001820 <IO004_EnableOutputDriver+0x86>
 80017fc:	6843      	ldr	r3, [r0, #4]
 80017fe:	00d2      	lsls	r2, r2, #3
 8001800:	699c      	ldr	r4, [r3, #24]
 8001802:	3203      	adds	r2, #3
 8001804:	201f      	movs	r0, #31
 8001806:	fa00 f002 	lsl.w	r0, r0, r2
 800180a:	ea24 0000 	bic.w	r0, r4, r0
 800180e:	6198      	str	r0, [r3, #24]
 8001810:	6998      	ldr	r0, [r3, #24]
 8001812:	f001 011f 	and.w	r1, r1, #31
 8001816:	fa01 f202 	lsl.w	r2, r1, r2
 800181a:	4302      	orrs	r2, r0
 800181c:	619a      	str	r2, [r3, #24]
 800181e:	bd10      	pop	{r4, pc}
 8001820:	3b0c      	subs	r3, #12
 8001822:	b2db      	uxtb	r3, r3
 8001824:	2b03      	cmp	r3, #3
 8001826:	d810      	bhi.n	800184a <IO004_EnableOutputDriver+0xb0>
 8001828:	6842      	ldr	r2, [r0, #4]
 800182a:	00d8      	lsls	r0, r3, #3
 800182c:	69d4      	ldr	r4, [r2, #28]
 800182e:	1cc3      	adds	r3, r0, #3
 8001830:	201f      	movs	r0, #31
 8001832:	fa00 f003 	lsl.w	r0, r0, r3
 8001836:	ea24 0000 	bic.w	r0, r4, r0
 800183a:	61d0      	str	r0, [r2, #28]
 800183c:	69d0      	ldr	r0, [r2, #28]
 800183e:	f001 011f 	and.w	r1, r1, #31
 8001842:	fa01 f303 	lsl.w	r3, r1, r3
 8001846:	4303      	orrs	r3, r0
 8001848:	61d3      	str	r3, [r2, #28]
 800184a:	bd10      	pop	{r4, pc}

0800184c <IO001_Init>:
 800184c:	4b04      	ldr	r3, [pc, #16]	; (8001860 <IO001_Init+0x14>)
 800184e:	6858      	ldr	r0, [r3, #4]
 8001850:	6e02      	ldr	r2, [r0, #96]	; 0x60
 8001852:	f022 0101 	bic.w	r1, r2, #1
 8001856:	6601      	str	r1, [r0, #96]	; 0x60
 8001858:	6903      	ldr	r3, [r0, #16]
 800185a:	6103      	str	r3, [r0, #16]
 800185c:	4770      	bx	lr
 800185e:	bf00      	nop
 8001860:	08002f0c 	.word	0x08002f0c

08001864 <IO001_EnableDigitalInput>:
 8001864:	b510      	push	{r4, lr}
 8001866:	6843      	ldr	r3, [r0, #4]
 8001868:	7842      	ldrb	r2, [r0, #1]
 800186a:	6e1c      	ldr	r4, [r3, #96]	; 0x60
 800186c:	2001      	movs	r0, #1
 800186e:	fa00 f002 	lsl.w	r0, r0, r2
 8001872:	ea24 0000 	bic.w	r0, r4, r0
 8001876:	2a03      	cmp	r2, #3
 8001878:	6618      	str	r0, [r3, #96]	; 0x60
 800187a:	d810      	bhi.n	800189e <IO001_EnableDigitalInput+0x3a>
 800187c:	00d0      	lsls	r0, r2, #3
 800187e:	691c      	ldr	r4, [r3, #16]
 8001880:	1cc2      	adds	r2, r0, #3
 8001882:	201f      	movs	r0, #31
 8001884:	fa00 f002 	lsl.w	r0, r0, r2
 8001888:	ea24 0000 	bic.w	r0, r4, r0
 800188c:	6118      	str	r0, [r3, #16]
 800188e:	6918      	ldr	r0, [r3, #16]
 8001890:	f001 011f 	and.w	r1, r1, #31
 8001894:	fa01 f202 	lsl.w	r2, r1, r2
 8001898:	4302      	orrs	r2, r0
 800189a:	611a      	str	r2, [r3, #16]
 800189c:	bd10      	pop	{r4, pc}
 800189e:	1f10      	subs	r0, r2, #4
 80018a0:	b2c0      	uxtb	r0, r0
 80018a2:	2803      	cmp	r0, #3
 80018a4:	d810      	bhi.n	80018c8 <IO001_EnableDigitalInput+0x64>
 80018a6:	00c0      	lsls	r0, r0, #3
 80018a8:	695c      	ldr	r4, [r3, #20]
 80018aa:	1cc2      	adds	r2, r0, #3
 80018ac:	201f      	movs	r0, #31
 80018ae:	fa00 f002 	lsl.w	r0, r0, r2
 80018b2:	ea24 0000 	bic.w	r0, r4, r0
 80018b6:	6158      	str	r0, [r3, #20]
 80018b8:	6958      	ldr	r0, [r3, #20]
 80018ba:	f001 011f 	and.w	r1, r1, #31
 80018be:	fa01 f202 	lsl.w	r2, r1, r2
 80018c2:	4302      	orrs	r2, r0
 80018c4:	615a      	str	r2, [r3, #20]
 80018c6:	bd10      	pop	{r4, pc}
 80018c8:	f1a2 0008 	sub.w	r0, r2, #8
 80018cc:	b2c0      	uxtb	r0, r0
 80018ce:	2803      	cmp	r0, #3
 80018d0:	d810      	bhi.n	80018f4 <IO001_EnableDigitalInput+0x90>
 80018d2:	00c0      	lsls	r0, r0, #3
 80018d4:	699c      	ldr	r4, [r3, #24]
 80018d6:	1cc2      	adds	r2, r0, #3
 80018d8:	201f      	movs	r0, #31
 80018da:	fa00 f002 	lsl.w	r0, r0, r2
 80018de:	ea24 0000 	bic.w	r0, r4, r0
 80018e2:	6198      	str	r0, [r3, #24]
 80018e4:	6998      	ldr	r0, [r3, #24]
 80018e6:	f001 011f 	and.w	r1, r1, #31
 80018ea:	fa01 f202 	lsl.w	r2, r1, r2
 80018ee:	4302      	orrs	r2, r0
 80018f0:	619a      	str	r2, [r3, #24]
 80018f2:	bd10      	pop	{r4, pc}
 80018f4:	3a0c      	subs	r2, #12
 80018f6:	b2d2      	uxtb	r2, r2
 80018f8:	2a03      	cmp	r2, #3
 80018fa:	d80f      	bhi.n	800191c <IO001_EnableDigitalInput+0xb8>
 80018fc:	00d0      	lsls	r0, r2, #3
 80018fe:	69dc      	ldr	r4, [r3, #28]
 8001900:	1cc2      	adds	r2, r0, #3
 8001902:	201f      	movs	r0, #31
 8001904:	fa00 f002 	lsl.w	r0, r0, r2
 8001908:	ea24 0000 	bic.w	r0, r4, r0
 800190c:	61d8      	str	r0, [r3, #28]
 800190e:	69d8      	ldr	r0, [r3, #28]
 8001910:	f001 011f 	and.w	r1, r1, #31
 8001914:	fa01 f202 	lsl.w	r2, r1, r2
 8001918:	4302      	orrs	r2, r0
 800191a:	61da      	str	r2, [r3, #28]
 800191c:	bd10      	pop	{r4, pc}

0800191e <IO001_DisableDigitalInput>:
 800191e:	6843      	ldr	r3, [r0, #4]
 8001920:	7842      	ldrb	r2, [r0, #1]
 8001922:	6e19      	ldr	r1, [r3, #96]	; 0x60
 8001924:	2001      	movs	r0, #1
 8001926:	fa00 f202 	lsl.w	r2, r0, r2
 800192a:	430a      	orrs	r2, r1
 800192c:	661a      	str	r2, [r3, #96]	; 0x60
 800192e:	4770      	bx	lr

08001930 <DAVE_Init>:
 8001930:	490f      	ldr	r1, [pc, #60]	; (8001970 <DAVE_Init+0x40>)
 8001932:	4810      	ldr	r0, [pc, #64]	; (8001974 <DAVE_Init+0x44>)
 8001934:	b508      	push	{r3, lr}
 8001936:	68cb      	ldr	r3, [r1, #12]
 8001938:	f64f 02ff 	movw	r2, #63743	; 0xf8ff
 800193c:	401a      	ands	r2, r3
 800193e:	ea42 0300 	orr.w	r3, r2, r0
 8001942:	60cb      	str	r3, [r1, #12]
 8001944:	f000 f88a 	bl	8001a5c <DAVE_MUX_PreInit>
 8001948:	f7ff fe32 	bl	80015b0 <IO004_Init>
 800194c:	f000 f896 	bl	8001a7c <CLK001_Init>
 8001950:	f7ff fcb8 	bl	80012c4 <UART001_Init>
 8001954:	f000 fc02 	bl	800215c <ADCGLOB001_Init>
 8001958:	f000 fa14 	bl	8001d84 <ADCGROUP001_Init>
 800195c:	f7ff ff76 	bl	800184c <IO001_Init>
 8001960:	f000 feba 	bl	80026d8 <ADC001_Init>
 8001964:	f7ff fdda 	bl	800151c <NVIC002_Init>
 8001968:	e8bd 4008 	ldmia.w	sp!, {r3, lr}
 800196c:	f000 b806 	b.w	800197c <DAVE_MUX_Init>
 8001970:	e000ed00 	.word	0xe000ed00
 8001974:	05fa0100 	.word	0x05fa0100

08001978 <SystemInit_DAVE3>:
 8001978:	f000 b880 	b.w	8001a7c <CLK001_Init>

0800197c <DAVE_MUX_Init>:
 800197c:	4b36      	ldr	r3, [pc, #216]	; (8001a58 <DAVE_MUX_Init+0xdc>)
 800197e:	6c1a      	ldr	r2, [r3, #64]	; 0x40
 8001980:	6c19      	ldr	r1, [r3, #64]	; 0x40
 8001982:	f021 000f 	bic.w	r0, r1, #15
 8001986:	6418      	str	r0, [r3, #64]	; 0x40
 8001988:	69d9      	ldr	r1, [r3, #28]
 800198a:	f021 0007 	bic.w	r0, r1, #7
 800198e:	f040 0101 	orr.w	r1, r0, #1
 8001992:	61d9      	str	r1, [r3, #28]
 8001994:	f8d3 0108 	ldr.w	r0, [r3, #264]	; 0x108
 8001998:	f020 61e0 	bic.w	r1, r0, #117440512	; 0x7000000
 800199c:	f021 003f 	bic.w	r0, r1, #63	; 0x3f
 80019a0:	f040 7180 	orr.w	r1, r0, #16777216	; 0x1000000
 80019a4:	f041 0002 	orr.w	r0, r1, #2
 80019a8:	f8c3 0108 	str.w	r0, [r3, #264]	; 0x108
 80019ac:	f8d3 110c 	ldr.w	r1, [r3, #268]	; 0x10c
 80019b0:	f021 60e0 	bic.w	r0, r1, #117440512	; 0x7000000
 80019b4:	f020 013f 	bic.w	r1, r0, #63	; 0x3f
 80019b8:	f041 7080 	orr.w	r0, r1, #16777216	; 0x1000000
 80019bc:	f8c3 010c 	str.w	r0, [r3, #268]	; 0x10c
 80019c0:	6c19      	ldr	r1, [r3, #64]	; 0x40
 80019c2:	f002 020f 	and.w	r2, r2, #15
 80019c6:	f021 000f 	bic.w	r0, r1, #15
 80019ca:	ea40 0102 	orr.w	r1, r0, r2
 80019ce:	6419      	str	r1, [r3, #64]	; 0x40
 80019d0:	f503 4300 	add.w	r3, r3, #32768	; 0x8000
 80019d4:	6f58      	ldr	r0, [r3, #116]	; 0x74
 80019d6:	f420 3240 	bic.w	r2, r0, #196608	; 0x30000
 80019da:	675a      	str	r2, [r3, #116]	; 0x74
 80019dc:	6999      	ldr	r1, [r3, #24]
 80019de:	f041 0080 	orr.w	r0, r1, #128	; 0x80
 80019e2:	6198      	str	r0, [r3, #24]
 80019e4:	f503 7380 	add.w	r3, r3, #256	; 0x100
 80019e8:	691a      	ldr	r2, [r3, #16]
 80019ea:	f042 0180 	orr.w	r1, r2, #128	; 0x80
 80019ee:	6119      	str	r1, [r3, #16]
 80019f0:	6918      	ldr	r0, [r3, #16]
 80019f2:	f440 4200 	orr.w	r2, r0, #32768	; 0x8000
 80019f6:	611a      	str	r2, [r3, #16]
 80019f8:	6999      	ldr	r1, [r3, #24]
 80019fa:	f441 4000 	orr.w	r0, r1, #32768	; 0x8000
 80019fe:	6198      	str	r0, [r3, #24]
 8001a00:	f8d3 2110 	ldr.w	r2, [r3, #272]	; 0x110
 8001a04:	f442 0100 	orr.w	r1, r2, #8388608	; 0x800000
 8001a08:	f8c3 1110 	str.w	r1, [r3, #272]	; 0x110
 8001a0c:	f8d3 0114 	ldr.w	r0, [r3, #276]	; 0x114
 8001a10:	f040 0280 	orr.w	r2, r0, #128	; 0x80
 8001a14:	f8c3 2114 	str.w	r2, [r3, #276]	; 0x114
 8001a18:	f8d3 1114 	ldr.w	r1, [r3, #276]	; 0x114
 8001a1c:	f441 4000 	orr.w	r0, r1, #32768	; 0x8000
 8001a20:	f8c3 0114 	str.w	r0, [r3, #276]	; 0x114
 8001a24:	f8d3 2118 	ldr.w	r2, [r3, #280]	; 0x118
 8001a28:	f042 0180 	orr.w	r1, r2, #128	; 0x80
 8001a2c:	f8c3 1118 	str.w	r1, [r3, #280]	; 0x118
 8001a30:	f8d3 011c 	ldr.w	r0, [r3, #284]	; 0x11c
 8001a34:	f420 0238 	bic.w	r2, r0, #12058624	; 0xb80000
 8001a38:	f442 0110 	orr.w	r1, r2, #9437184	; 0x900000
 8001a3c:	f8c3 111c 	str.w	r1, [r3, #284]	; 0x11c
 8001a40:	f04f 2340 	mov.w	r3, #1073758208	; 0x40004000
 8001a44:	f8d3 0140 	ldr.w	r0, [r3, #320]	; 0x140
 8001a48:	f420 2270 	bic.w	r2, r0, #983040	; 0xf0000
 8001a4c:	f442 3100 	orr.w	r1, r2, #131072	; 0x20000
 8001a50:	f8c3 1140 	str.w	r1, [r3, #320]	; 0x140
 8001a54:	4770      	bx	lr
 8001a56:	bf00      	nop
 8001a58:	48020000 	.word	0x48020000

08001a5c <DAVE_MUX_PreInit>:
 8001a5c:	4770      	bx	lr

08001a5e <CLK001_Delay>:
 8001a5e:	b082      	sub	sp, #8
 8001a60:	2200      	movs	r2, #0
 8001a62:	9201      	str	r2, [sp, #4]
 8001a64:	9b01      	ldr	r3, [sp, #4]
 8001a66:	4283      	cmp	r3, r0
 8001a68:	d206      	bcs.n	8001a78 <CLK001_Delay+0x1a>
 8001a6a:	bf00      	nop
 8001a6c:	bf00      	nop
 8001a6e:	bf00      	nop
 8001a70:	bf00      	nop
 8001a72:	9901      	ldr	r1, [sp, #4]
 8001a74:	1c4a      	adds	r2, r1, #1
 8001a76:	e7f4      	b.n	8001a62 <CLK001_Delay+0x4>
 8001a78:	b002      	add	sp, #8
 8001a7a:	4770      	bx	lr

08001a7c <CLK001_Init>:
 8001a7c:	b538      	push	{r3, r4, r5, lr}
 8001a7e:	4b5c      	ldr	r3, [pc, #368]	; (8001bf0 <CLK001_Init+0x174>)
 8001a80:	485c      	ldr	r0, [pc, #368]	; (8001bf4 <CLK001_Init+0x178>)
 8001a82:	685a      	ldr	r2, [r3, #4]
 8001a84:	4010      	ands	r0, r2
 8001a86:	2800      	cmp	r0, #0
 8001a88:	f000 809e 	beq.w	8001bc8 <CLK001_Init+0x14c>
 8001a8c:	495a      	ldr	r1, [pc, #360]	; (8001bf8 <CLK001_Init+0x17c>)
 8001a8e:	680c      	ldr	r4, [r1, #0]
 8001a90:	07e2      	lsls	r2, r4, #31
 8001a92:	d403      	bmi.n	8001a9c <CLK001_Init+0x20>
 8001a94:	684d      	ldr	r5, [r1, #4]
 8001a96:	f045 0301 	orr.w	r3, r5, #1
 8001a9a:	604b      	str	r3, [r1, #4]
 8001a9c:	4857      	ldr	r0, [pc, #348]	; (8001bfc <CLK001_Init+0x180>)
 8001a9e:	6802      	ldr	r2, [r0, #0]
 8001aa0:	0592      	lsls	r2, r2, #22
 8001aa2:	d503      	bpl.n	8001aac <CLK001_Init+0x30>
 8001aa4:	6881      	ldr	r1, [r0, #8]
 8001aa6:	f441 7400 	orr.w	r4, r1, #512	; 0x200
 8001aaa:	6084      	str	r4, [r0, #8]
 8001aac:	4d50      	ldr	r5, [pc, #320]	; (8001bf0 <CLK001_Init+0x174>)
 8001aae:	686b      	ldr	r3, [r5, #4]
 8001ab0:	f423 1080 	bic.w	r0, r3, #1048576	; 0x100000
 8001ab4:	6068      	str	r0, [r5, #4]
 8001ab6:	2064      	movs	r0, #100	; 0x64
 8001ab8:	f7ff ffd1 	bl	8001a5e <CLK001_Delay>
 8001abc:	686a      	ldr	r2, [r5, #4]
 8001abe:	f442 2100 	orr.w	r1, r2, #524288	; 0x80000
 8001ac2:	2064      	movs	r0, #100	; 0x64
 8001ac4:	6069      	str	r1, [r5, #4]
 8001ac6:	f7ff ffca 	bl	8001a5e <CLK001_Delay>
 8001aca:	686c      	ldr	r4, [r5, #4]
 8001acc:	494c      	ldr	r1, [pc, #304]	; (8001c00 <CLK001_Init+0x184>)
 8001ace:	f424 3380 	bic.w	r3, r4, #65536	; 0x10000
 8001ad2:	f023 0002 	bic.w	r0, r3, #2
 8001ad6:	6068      	str	r0, [r5, #4]
 8001ad8:	684a      	ldr	r2, [r1, #4]
 8001ada:	f012 0f30 	tst.w	r2, #48	; 0x30
 8001ade:	d01c      	beq.n	8001b1a <CLK001_Init+0x9e>
 8001ae0:	684c      	ldr	r4, [r1, #4]
 8001ae2:	f024 0330 	bic.w	r3, r4, #48	; 0x30
 8001ae6:	604b      	str	r3, [r1, #4]
 8001ae8:	6848      	ldr	r0, [r1, #4]
 8001aea:	f440 3240 	orr.w	r2, r0, #196608	; 0x30000
 8001aee:	604a      	str	r2, [r1, #4]
 8001af0:	68e9      	ldr	r1, [r5, #12]
 8001af2:	f021 0401 	bic.w	r4, r1, #1
 8001af6:	60ec      	str	r4, [r5, #12]
 8001af8:	686b      	ldr	r3, [r5, #4]
 8001afa:	f423 3000 	bic.w	r0, r3, #131072	; 0x20000
 8001afe:	6068      	str	r0, [r5, #4]
 8001b00:	f244 6450 	movw	r4, #18000	; 0x4650
 8001b04:	4d3a      	ldr	r5, [pc, #232]	; (8001bf0 <CLK001_Init+0x174>)
 8001b06:	200a      	movs	r0, #10
 8001b08:	f7ff ffa9 	bl	8001a5e <CLK001_Delay>
 8001b0c:	682a      	ldr	r2, [r5, #0]
 8001b0e:	f402 7160 	and.w	r1, r2, #896	; 0x380
 8001b12:	f5b1 7f60 	cmp.w	r1, #896	; 0x380
 8001b16:	d15b      	bne.n	8001bd0 <CLK001_Init+0x154>
 8001b18:	682b      	ldr	r3, [r5, #0]
 8001b1a:	4b35      	ldr	r3, [pc, #212]	; (8001bf0 <CLK001_Init+0x174>)
 8001b1c:	6818      	ldr	r0, [r3, #0]
 8001b1e:	0745      	lsls	r5, r0, #29
 8001b20:	d42d      	bmi.n	8001b7e <CLK001_Init+0x102>
 8001b22:	4d38      	ldr	r5, [pc, #224]	; (8001c04 <CLK001_Init+0x188>)
 8001b24:	4938      	ldr	r1, [pc, #224]	; (8001c08 <CLK001_Init+0x18c>)
 8001b26:	2413      	movs	r4, #19
 8001b28:	e885 0012 	stmia.w	r5, {r1, r4}
 8001b2c:	685a      	ldr	r2, [r3, #4]
 8001b2e:	4d37      	ldr	r5, [pc, #220]	; (8001c0c <CLK001_Init+0x190>)
 8001b30:	f042 0101 	orr.w	r1, r2, #1
 8001b34:	6059      	str	r1, [r3, #4]
 8001b36:	685c      	ldr	r4, [r3, #4]
 8001b38:	f044 0010 	orr.w	r0, r4, #16
 8001b3c:	6058      	str	r0, [r3, #4]
 8001b3e:	609d      	str	r5, [r3, #8]
 8001b40:	685a      	ldr	r2, [r3, #4]
 8001b42:	f042 0140 	orr.w	r1, r2, #64	; 0x40
 8001b46:	6059      	str	r1, [r3, #4]
 8001b48:	685c      	ldr	r4, [r3, #4]
 8001b4a:	f024 0010 	bic.w	r0, r4, #16
 8001b4e:	6058      	str	r0, [r3, #4]
 8001b50:	685d      	ldr	r5, [r3, #4]
 8001b52:	f445 2280 	orr.w	r2, r5, #262144	; 0x40000
 8001b56:	605a      	str	r2, [r3, #4]
 8001b58:	f244 6450 	movw	r4, #18000	; 0x4650
 8001b5c:	200a      	movs	r0, #10
 8001b5e:	f7ff ff7e 	bl	8001a5e <CLK001_Delay>
 8001b62:	4b23      	ldr	r3, [pc, #140]	; (8001bf0 <CLK001_Init+0x174>)
 8001b64:	6819      	ldr	r1, [r3, #0]
 8001b66:	f011 0f04 	tst.w	r1, #4
 8001b6a:	4618      	mov	r0, r3
 8001b6c:	d033      	beq.n	8001bd6 <CLK001_Init+0x15a>
 8001b6e:	6802      	ldr	r2, [r0, #0]
 8001b70:	4d1f      	ldr	r5, [pc, #124]	; (8001bf0 <CLK001_Init+0x174>)
 8001b72:	0750      	lsls	r0, r2, #29
 8001b74:	d503      	bpl.n	8001b7e <CLK001_Init+0x102>
 8001b76:	686b      	ldr	r3, [r5, #4]
 8001b78:	f023 0101 	bic.w	r1, r3, #1
 8001b7c:	6069      	str	r1, [r5, #4]
 8001b7e:	4824      	ldr	r0, [pc, #144]	; (8001c10 <CLK001_Init+0x194>)
 8001b80:	4921      	ldr	r1, [pc, #132]	; (8001c08 <CLK001_Init+0x18c>)
 8001b82:	68c4      	ldr	r4, [r0, #12]
 8001b84:	f444 3580 	orr.w	r5, r4, #65536	; 0x10000
 8001b88:	4c19      	ldr	r4, [pc, #100]	; (8001bf0 <CLK001_Init+0x174>)
 8001b8a:	60c5      	str	r5, [r0, #12]
 8001b8c:	6862      	ldr	r2, [r4, #4]
 8001b8e:	4d1d      	ldr	r5, [pc, #116]	; (8001c04 <CLK001_Init+0x188>)
 8001b90:	f022 0340 	bic.w	r3, r2, #64	; 0x40
 8001b94:	6063      	str	r3, [r4, #4]
 8001b96:	2064      	movs	r0, #100	; 0x64
 8001b98:	6029      	str	r1, [r5, #0]
 8001b9a:	f7ff ff60 	bl	8001a5e <CLK001_Delay>
 8001b9e:	481d      	ldr	r0, [pc, #116]	; (8001c14 <CLK001_Init+0x198>)
 8001ba0:	60a0      	str	r0, [r4, #8]
 8001ba2:	2064      	movs	r0, #100	; 0x64
 8001ba4:	f7ff ff5b 	bl	8001a5e <CLK001_Delay>
 8001ba8:	4b1b      	ldr	r3, [pc, #108]	; (8001c18 <CLK001_Init+0x19c>)
 8001baa:	2204      	movs	r2, #4
 8001bac:	2096      	movs	r0, #150	; 0x96
 8001bae:	606a      	str	r2, [r5, #4]
 8001bb0:	60a3      	str	r3, [r4, #8]
 8001bb2:	f7ff ff54 	bl	8001a5e <CLK001_Delay>
 8001bb6:	4919      	ldr	r1, [pc, #100]	; (8001c1c <CLK001_Init+0x1a0>)
 8001bb8:	60a1      	str	r1, [r4, #8]
 8001bba:	68a0      	ldr	r0, [r4, #8]
 8001bbc:	f010 6f70 	tst.w	r0, #251658240	; 0xf000000
 8001bc0:	d00c      	beq.n	8001bdc <CLK001_Init+0x160>
 8001bc2:	4a17      	ldr	r2, [pc, #92]	; (8001c20 <CLK001_Init+0x1a4>)
 8001bc4:	2105      	movs	r1, #5
 8001bc6:	60d1      	str	r1, [r2, #12]
 8001bc8:	e8bd 4038 	ldmia.w	sp!, {r3, r4, r5, lr}
 8001bcc:	f7fe bbee 	b.w	80003ac <SystemCoreClockUpdate>
 8001bd0:	3c01      	subs	r4, #1
 8001bd2:	d197      	bne.n	8001b04 <CLK001_Init+0x88>
 8001bd4:	e7a0      	b.n	8001b18 <CLK001_Init+0x9c>
 8001bd6:	3c01      	subs	r4, #1
 8001bd8:	d1c0      	bne.n	8001b5c <CLK001_Init+0xe0>
 8001bda:	e7c8      	b.n	8001b6e <CLK001_Init+0xf2>
 8001bdc:	68a2      	ldr	r2, [r4, #8]
 8001bde:	f3c2 2306 	ubfx	r3, r2, #8, #7
 8001be2:	2b27      	cmp	r3, #39	; 0x27
 8001be4:	d1ed      	bne.n	8001bc2 <CLK001_Init+0x146>
 8001be6:	68a0      	ldr	r0, [r4, #8]
 8001be8:	0641      	lsls	r1, r0, #25
 8001bea:	bf08      	it	eq
 8001bec:	68a0      	ldreq	r0, [r4, #8]
 8001bee:	e7e8      	b.n	8001bc2 <CLK001_Init+0x146>
 8001bf0:	50004710 	.word	0x50004710
 8001bf4:	00010002 	.word	0x00010002
 8001bf8:	50004200 	.word	0x50004200
 8001bfc:	50004400 	.word	0x50004400
 8001c00:	50004700 	.word	0x50004700
 8001c04:	20000084 	.word	0x20000084
 8001c08:	1c9c3800 	.word	0x1c9c3800
 8001c0c:	00132700 	.word	0x00132700
 8001c10:	50004600 	.word	0x50004600
 8001c14:	00072700 	.word	0x00072700
 8001c18:	00042700 	.word	0x00042700
 8001c1c:	00032700 	.word	0x00032700
 8001c20:	50004160 	.word	0x50004160

08001c24 <AllowPLLInitByStartup>:
 8001c24:	2000      	movs	r0, #0
 8001c26:	4770      	bx	lr

08001c28 <ADCGROUP001_lInit>:
 8001c28:	f100 010c 	add.w	r1, r0, #12
 8001c2c:	c90e      	ldmia	r1, {r1, r2, r3}
 8001c2e:	b570      	push	{r4, r5, r6, lr}
 8001c30:	780c      	ldrb	r4, [r1, #0]
 8001c32:	2c00      	cmp	r4, #0
 8001c34:	d17f      	bne.n	8001d36 <ADCGROUP001_lInit+0x10e>
 8001c36:	7804      	ldrb	r4, [r0, #0]
 8001c38:	7846      	ldrb	r6, [r0, #1]
 8001c3a:	f8d2 5080 	ldr.w	r5, [r2, #128]	; 0x80
 8001c3e:	3410      	adds	r4, #16
 8001c40:	fa06 f404 	lsl.w	r4, r6, r4
 8001c44:	f425 3580 	bic.w	r5, r5, #65536	; 0x10000
 8001c48:	f404 3480 	and.w	r4, r4, #65536	; 0x10000
 8001c4c:	432c      	orrs	r4, r5
 8001c4e:	f8c2 4080 	str.w	r4, [r2, #128]	; 0x80
 8001c52:	f8d3 2080 	ldr.w	r2, [r3, #128]	; 0x80
 8001c56:	7ac4      	ldrb	r4, [r0, #11]
 8001c58:	f022 0203 	bic.w	r2, r2, #3
 8001c5c:	f004 0503 	and.w	r5, r4, #3
 8001c60:	ea45 0402 	orr.w	r4, r5, r2
 8001c64:	f8c3 4080 	str.w	r4, [r3, #128]	; 0x80
 8001c68:	7882      	ldrb	r2, [r0, #2]
 8001c6a:	f8d3 5080 	ldr.w	r5, [r3, #128]	; 0x80
 8001c6e:	01d4      	lsls	r4, r2, #7
 8001c70:	b2e2      	uxtb	r2, r4
 8001c72:	f025 0580 	bic.w	r5, r5, #128	; 0x80
 8001c76:	432a      	orrs	r2, r5
 8001c78:	f8c3 2080 	str.w	r2, [r3, #128]	; 0x80
 8001c7c:	f8d3 20b8 	ldr.w	r2, [r3, #184]	; 0xb8
 8001c80:	8884      	ldrh	r4, [r0, #4]
 8001c82:	f422 627f 	bic.w	r2, r2, #4080	; 0xff0
 8001c86:	0525      	lsls	r5, r4, #20
 8001c88:	f022 040f 	bic.w	r4, r2, #15
 8001c8c:	ea44 5515 	orr.w	r5, r4, r5, lsr #20
 8001c90:	f8c3 50b8 	str.w	r5, [r3, #184]	; 0xb8
 8001c94:	88c2      	ldrh	r2, [r0, #6]
 8001c96:	f8d3 40b8 	ldr.w	r4, [r3, #184]	; 0xb8
 8001c9a:	0415      	lsls	r5, r2, #16
 8001c9c:	4a26      	ldr	r2, [pc, #152]	; (8001d38 <ADCGROUP001_lInit+0x110>)
 8001c9e:	f024 647f 	bic.w	r4, r4, #267386880	; 0xff00000
 8001ca2:	f424 2470 	bic.w	r4, r4, #983040	; 0xf0000
 8001ca6:	402a      	ands	r2, r5
 8001ca8:	4322      	orrs	r2, r4
 8001caa:	f8c3 20b8 	str.w	r2, [r3, #184]	; 0xb8
 8001cae:	f8d3 21f0 	ldr.w	r2, [r3, #496]	; 0x1f0
 8001cb2:	f042 4400 	orr.w	r4, r2, #2147483648	; 0x80000000
 8001cb6:	7a42      	ldrb	r2, [r0, #9]
 8001cb8:	f002 0207 	and.w	r2, r2, #7
 8001cbc:	4322      	orrs	r2, r4
 8001cbe:	7a04      	ldrb	r4, [r0, #8]
 8001cc0:	0724      	lsls	r4, r4, #28
 8001cc2:	f004 5480 	and.w	r4, r4, #268435456	; 0x10000000
 8001cc6:	4322      	orrs	r2, r4
 8001cc8:	7a84      	ldrb	r4, [r0, #10]
 8001cca:	06a4      	lsls	r4, r4, #26
 8001ccc:	f004 6440 	and.w	r4, r4, #201326592	; 0xc000000
 8001cd0:	4322      	orrs	r2, r4
 8001cd2:	f8c3 21f0 	str.w	r2, [r3, #496]	; 0x1f0
 8001cd6:	7e82      	ldrb	r2, [r0, #26]
 8001cd8:	f8d3 40a0 	ldr.w	r4, [r3, #160]	; 0xa0
 8001cdc:	f002 021f 	and.w	r2, r2, #31
 8001ce0:	4322      	orrs	r2, r4
 8001ce2:	7e04      	ldrb	r4, [r0, #24]
 8001ce4:	0224      	lsls	r4, r4, #8
 8001ce6:	f404 64e0 	and.w	r4, r4, #1792	; 0x700
 8001cea:	4322      	orrs	r2, r4
 8001cec:	7f04      	ldrb	r4, [r0, #28]
 8001cee:	0624      	lsls	r4, r4, #24
 8001cf0:	f004 64e0 	and.w	r4, r4, #117440512	; 0x7000000
 8001cf4:	4322      	orrs	r2, r4
 8001cf6:	7f84      	ldrb	r4, [r0, #30]
 8001cf8:	0424      	lsls	r4, r4, #16
 8001cfa:	f404 14f8 	and.w	r4, r4, #2031616	; 0x1f0000
 8001cfe:	4322      	orrs	r2, r4
 8001d00:	f8c3 20a0 	str.w	r2, [r3, #160]	; 0xa0
 8001d04:	7ec2      	ldrb	r2, [r0, #27]
 8001d06:	f8d3 40a4 	ldr.w	r4, [r3, #164]	; 0xa4
 8001d0a:	f002 021f 	and.w	r2, r2, #31
 8001d0e:	4322      	orrs	r2, r4
 8001d10:	7e44      	ldrb	r4, [r0, #25]
 8001d12:	0224      	lsls	r4, r4, #8
 8001d14:	f404 64e0 	and.w	r4, r4, #1792	; 0x700
 8001d18:	4322      	orrs	r2, r4
 8001d1a:	7f44      	ldrb	r4, [r0, #29]
 8001d1c:	7fc0      	ldrb	r0, [r0, #31]
 8001d1e:	0624      	lsls	r4, r4, #24
 8001d20:	f004 64e0 	and.w	r4, r4, #117440512	; 0x7000000
 8001d24:	0400      	lsls	r0, r0, #16
 8001d26:	4322      	orrs	r2, r4
 8001d28:	f400 10f8 	and.w	r0, r0, #2031616	; 0x1f0000
 8001d2c:	4302      	orrs	r2, r0
 8001d2e:	f8c3 20a4 	str.w	r2, [r3, #164]	; 0xa4
 8001d32:	2301      	movs	r3, #1
 8001d34:	700b      	strb	r3, [r1, #0]
 8001d36:	bd70      	pop	{r4, r5, r6, pc}
 8001d38:	0fff0000 	.word	0x0fff0000

08001d3c <ADCGROUP001_Deinit>:
 8001d3c:	68c2      	ldr	r2, [r0, #12]
 8001d3e:	6901      	ldr	r1, [r0, #16]
 8001d40:	6943      	ldr	r3, [r0, #20]
 8001d42:	7810      	ldrb	r0, [r2, #0]
 8001d44:	2801      	cmp	r0, #1
 8001d46:	d114      	bne.n	8001d72 <ADCGROUP001_Deinit+0x36>
 8001d48:	f8d1 0080 	ldr.w	r0, [r1, #128]	; 0x80
 8001d4c:	f420 3080 	bic.w	r0, r0, #65536	; 0x10000
 8001d50:	f8c1 0080 	str.w	r0, [r1, #128]	; 0x80
 8001d54:	2000      	movs	r0, #0
 8001d56:	f04f 4100 	mov.w	r1, #2147483648	; 0x80000000
 8001d5a:	f8c3 0080 	str.w	r0, [r3, #128]	; 0x80
 8001d5e:	f8c3 00b8 	str.w	r0, [r3, #184]	; 0xb8
 8001d62:	f8c3 11f0 	str.w	r1, [r3, #496]	; 0x1f0
 8001d66:	f8c3 00a0 	str.w	r0, [r3, #160]	; 0xa0
 8001d6a:	f8c3 00a4 	str.w	r0, [r3, #164]	; 0xa4
 8001d6e:	7010      	strb	r0, [r2, #0]
 8001d70:	4770      	bx	lr
 8001d72:	2001      	movs	r0, #1
 8001d74:	4770      	bx	lr

08001d76 <ADCGROUP001_GetStartupCalStatus>:
 8001d76:	6942      	ldr	r2, [r0, #20]
 8001d78:	f8d2 3080 	ldr.w	r3, [r2, #128]	; 0x80
 8001d7c:	00db      	lsls	r3, r3, #3
 8001d7e:	d4fb      	bmi.n	8001d78 <ADCGROUP001_GetStartupCalStatus+0x2>
 8001d80:	2000      	movs	r0, #0
 8001d82:	4770      	bx	lr

08001d84 <ADCGROUP001_Init>:
 8001d84:	b508      	push	{r3, lr}
 8001d86:	f000 f9e9 	bl	800215c <ADCGLOB001_Init>
 8001d8a:	4806      	ldr	r0, [pc, #24]	; (8001da4 <ADCGROUP001_Init+0x20>)
 8001d8c:	f7ff ff4c 	bl	8001c28 <ADCGROUP001_lInit>
 8001d90:	f000 fa8c 	bl	80022ac <ADCGLOB001_StartUpCalibrationInit>
 8001d94:	b920      	cbnz	r0, 8001da0 <ADCGROUP001_Init+0x1c>
 8001d96:	4803      	ldr	r0, [pc, #12]	; (8001da4 <ADCGROUP001_Init+0x20>)
 8001d98:	e8bd 4008 	ldmia.w	sp!, {r3, lr}
 8001d9c:	f7ff bfeb 	b.w	8001d76 <ADCGROUP001_GetStartupCalStatus>
 8001da0:	bd08      	pop	{r3, pc}
 8001da2:	bf00      	nop
 8001da4:	08002f14 	.word	0x08002f14

08001da8 <ADCGROUP001_SetGroupBound0>:
 8001da8:	68c3      	ldr	r3, [r0, #12]
 8001daa:	6942      	ldr	r2, [r0, #20]
 8001dac:	7818      	ldrb	r0, [r3, #0]
 8001dae:	2801      	cmp	r0, #1
 8001db0:	d10f      	bne.n	8001dd2 <ADCGROUP001_SetGroupBound0+0x2a>
 8001db2:	f5b1 5f80 	cmp.w	r1, #4096	; 0x1000
 8001db6:	d80e      	bhi.n	8001dd6 <ADCGROUP001_SetGroupBound0+0x2e>
 8001db8:	f8d2 30b8 	ldr.w	r3, [r2, #184]	; 0xb8
 8001dbc:	f423 607f 	bic.w	r0, r3, #4080	; 0xff0
 8001dc0:	f020 030f 	bic.w	r3, r0, #15
 8001dc4:	0509      	lsls	r1, r1, #20
 8001dc6:	ea43 5111 	orr.w	r1, r3, r1, lsr #20
 8001dca:	f8c2 10b8 	str.w	r1, [r2, #184]	; 0xb8
 8001dce:	2000      	movs	r0, #0
 8001dd0:	4770      	bx	lr
 8001dd2:	2001      	movs	r0, #1
 8001dd4:	4770      	bx	lr
 8001dd6:	2002      	movs	r0, #2
 8001dd8:	4770      	bx	lr
	...

08001ddc <ADCGROUP001_SetGroupBound1>:
 8001ddc:	68c3      	ldr	r3, [r0, #12]
 8001dde:	6942      	ldr	r2, [r0, #20]
 8001de0:	7818      	ldrb	r0, [r3, #0]
 8001de2:	2801      	cmp	r0, #1
 8001de4:	d110      	bne.n	8001e08 <ADCGROUP001_SetGroupBound1+0x2c>
 8001de6:	f5b1 5f80 	cmp.w	r1, #4096	; 0x1000
 8001dea:	d80f      	bhi.n	8001e0c <ADCGROUP001_SetGroupBound1+0x30>
 8001dec:	f8d2 00b8 	ldr.w	r0, [r2, #184]	; 0xb8
 8001df0:	4b07      	ldr	r3, [pc, #28]	; (8001e10 <ADCGROUP001_SetGroupBound1+0x34>)
 8001df2:	0409      	lsls	r1, r1, #16
 8001df4:	f020 607f 	bic.w	r0, r0, #267386880	; 0xff00000
 8001df8:	400b      	ands	r3, r1
 8001dfa:	f420 2170 	bic.w	r1, r0, #983040	; 0xf0000
 8001dfe:	430b      	orrs	r3, r1
 8001e00:	f8c2 30b8 	str.w	r3, [r2, #184]	; 0xb8
 8001e04:	2000      	movs	r0, #0
 8001e06:	4770      	bx	lr
 8001e08:	2001      	movs	r0, #1
 8001e0a:	4770      	bx	lr
 8001e0c:	2002      	movs	r0, #2
 8001e0e:	4770      	bx	lr
 8001e10:	0fff0000 	.word	0x0fff0000

08001e14 <ADCGROUP001_ActiveGroupServiceRequestNode>:
 8001e14:	68c2      	ldr	r2, [r0, #12]
 8001e16:	6943      	ldr	r3, [r0, #20]
 8001e18:	7812      	ldrb	r2, [r2, #0]
 8001e1a:	2a01      	cmp	r2, #1
 8001e1c:	d110      	bne.n	8001e40 <ADCGROUP001_ActiveGroupServiceRequestNode+0x2c>
 8001e1e:	2903      	cmp	r1, #3
 8001e20:	d810      	bhi.n	8001e44 <ADCGROUP001_ActiveGroupServiceRequestNode+0x30>
 8001e22:	f8d3 01c8 	ldr.w	r0, [r3, #456]	; 0x1c8
 8001e26:	fa02 f101 	lsl.w	r1, r2, r1
 8001e2a:	ea20 0201 	bic.w	r2, r0, r1
 8001e2e:	f8c3 21c8 	str.w	r2, [r3, #456]	; 0x1c8
 8001e32:	f8d3 01c8 	ldr.w	r0, [r3, #456]	; 0x1c8
 8001e36:	4301      	orrs	r1, r0
 8001e38:	f8c3 11c8 	str.w	r1, [r3, #456]	; 0x1c8
 8001e3c:	2000      	movs	r0, #0
 8001e3e:	4770      	bx	lr
 8001e40:	2001      	movs	r0, #1
 8001e42:	4770      	bx	lr
 8001e44:	2002      	movs	r0, #2
 8001e46:	4770      	bx	lr

08001e48 <ADCGROUP001_DeActiveGroupServiceRequestNode>:
 8001e48:	68c2      	ldr	r2, [r0, #12]
 8001e4a:	6943      	ldr	r3, [r0, #20]
 8001e4c:	7812      	ldrb	r2, [r2, #0]
 8001e4e:	2a01      	cmp	r2, #1
 8001e50:	d10b      	bne.n	8001e6a <ADCGROUP001_DeActiveGroupServiceRequestNode+0x22>
 8001e52:	2903      	cmp	r1, #3
 8001e54:	d80b      	bhi.n	8001e6e <ADCGROUP001_DeActiveGroupServiceRequestNode+0x26>
 8001e56:	f8d3 01c8 	ldr.w	r0, [r3, #456]	; 0x1c8
 8001e5a:	fa02 f201 	lsl.w	r2, r2, r1
 8001e5e:	ea20 0102 	bic.w	r1, r0, r2
 8001e62:	f8c3 11c8 	str.w	r1, [r3, #456]	; 0x1c8
 8001e66:	2000      	movs	r0, #0
 8001e68:	4770      	bx	lr
 8001e6a:	2001      	movs	r0, #1
 8001e6c:	4770      	bx	lr
 8001e6e:	2002      	movs	r0, #2
 8001e70:	4770      	bx	lr

08001e72 <ADCGROUP001_ActiveSharedServiceRequestNode>:
 8001e72:	68c2      	ldr	r2, [r0, #12]
 8001e74:	6943      	ldr	r3, [r0, #20]
 8001e76:	7812      	ldrb	r2, [r2, #0]
 8001e78:	2a01      	cmp	r2, #1
 8001e7a:	d111      	bne.n	8001ea0 <ADCGROUP001_ActiveSharedServiceRequestNode+0x2e>
 8001e7c:	2903      	cmp	r1, #3
 8001e7e:	d811      	bhi.n	8001ea4 <ADCGROUP001_ActiveSharedServiceRequestNode+0x32>
 8001e80:	f8d3 01c8 	ldr.w	r0, [r3, #456]	; 0x1c8
 8001e84:	3108      	adds	r1, #8
 8001e86:	fa02 f101 	lsl.w	r1, r2, r1
 8001e8a:	ea20 0201 	bic.w	r2, r0, r1
 8001e8e:	f8c3 21c8 	str.w	r2, [r3, #456]	; 0x1c8
 8001e92:	f8d3 01c8 	ldr.w	r0, [r3, #456]	; 0x1c8
 8001e96:	4301      	orrs	r1, r0
 8001e98:	f8c3 11c8 	str.w	r1, [r3, #456]	; 0x1c8
 8001e9c:	2000      	movs	r0, #0
 8001e9e:	4770      	bx	lr
 8001ea0:	2001      	movs	r0, #1
 8001ea2:	4770      	bx	lr
 8001ea4:	2002      	movs	r0, #2
 8001ea6:	4770      	bx	lr

08001ea8 <ADCGROUP001_DeActiveSharedServiceRequestNode>:
 8001ea8:	68c2      	ldr	r2, [r0, #12]
 8001eaa:	6943      	ldr	r3, [r0, #20]
 8001eac:	7812      	ldrb	r2, [r2, #0]
 8001eae:	2a01      	cmp	r2, #1
 8001eb0:	d10c      	bne.n	8001ecc <ADCGROUP001_DeActiveSharedServiceRequestNode+0x24>
 8001eb2:	2903      	cmp	r1, #3
 8001eb4:	d80c      	bhi.n	8001ed0 <ADCGROUP001_DeActiveSharedServiceRequestNode+0x28>
 8001eb6:	f8d3 01c8 	ldr.w	r0, [r3, #456]	; 0x1c8
 8001eba:	3108      	adds	r1, #8
 8001ebc:	fa02 f201 	lsl.w	r2, r2, r1
 8001ec0:	ea20 0102 	bic.w	r1, r0, r2
 8001ec4:	f8c3 11c8 	str.w	r1, [r3, #456]	; 0x1c8
 8001ec8:	2000      	movs	r0, #0
 8001eca:	4770      	bx	lr
 8001ecc:	2001      	movs	r0, #1
 8001ece:	4770      	bx	lr
 8001ed0:	2002      	movs	r0, #2
 8001ed2:	4770      	bx	lr

08001ed4 <ADCGROUP001_EMUXStartSelection>:
 8001ed4:	68c2      	ldr	r2, [r0, #12]
 8001ed6:	6943      	ldr	r3, [r0, #20]
 8001ed8:	7810      	ldrb	r0, [r2, #0]
 8001eda:	2801      	cmp	r0, #1
 8001edc:	d10c      	bne.n	8001ef8 <ADCGROUP001_EMUXStartSelection+0x24>
 8001ede:	2908      	cmp	r1, #8
 8001ee0:	d80c      	bhi.n	8001efc <ADCGROUP001_EMUXStartSelection+0x28>
 8001ee2:	f8d3 21f0 	ldr.w	r2, [r3, #496]	; 0x1f0
 8001ee6:	f001 0107 	and.w	r1, r1, #7
 8001eea:	f022 0007 	bic.w	r0, r2, #7
 8001eee:	4301      	orrs	r1, r0
 8001ef0:	f8c3 11f0 	str.w	r1, [r3, #496]	; 0x1f0
 8001ef4:	2000      	movs	r0, #0
 8001ef6:	4770      	bx	lr
 8001ef8:	2001      	movs	r0, #1
 8001efa:	4770      	bx	lr
 8001efc:	2002      	movs	r0, #2
 8001efe:	4770      	bx	lr

08001f00 <ADCGROUP001_GetEMUXStartSelection>:
 8001f00:	68c2      	ldr	r2, [r0, #12]
 8001f02:	6943      	ldr	r3, [r0, #20]
 8001f04:	7810      	ldrb	r0, [r2, #0]
 8001f06:	2801      	cmp	r0, #1
 8001f08:	d107      	bne.n	8001f1a <ADCGROUP001_GetEMUXStartSelection+0x1a>
 8001f0a:	b141      	cbz	r1, 8001f1e <ADCGROUP001_GetEMUXStartSelection+0x1e>
 8001f0c:	f8d3 31f0 	ldr.w	r3, [r3, #496]	; 0x1f0
 8001f10:	f003 0207 	and.w	r2, r3, #7
 8001f14:	700a      	strb	r2, [r1, #0]
 8001f16:	2000      	movs	r0, #0
 8001f18:	4770      	bx	lr
 8001f1a:	2001      	movs	r0, #1
 8001f1c:	4770      	bx	lr
 8001f1e:	2002      	movs	r0, #2
 8001f20:	4770      	bx	lr

08001f22 <ADCGROUP001_SetEMUXChannelSelect>:
 8001f22:	68c2      	ldr	r2, [r0, #12]
 8001f24:	6943      	ldr	r3, [r0, #20]
 8001f26:	7810      	ldrb	r0, [r2, #0]
 8001f28:	2801      	cmp	r0, #1
 8001f2a:	d10d      	bne.n	8001f48 <ADCGROUP001_SetEMUXChannelSelect+0x26>
 8001f2c:	2920      	cmp	r1, #32
 8001f2e:	d80d      	bhi.n	8001f4c <ADCGROUP001_SetEMUXChannelSelect+0x2a>
 8001f30:	f8d3 21f0 	ldr.w	r2, [r3, #496]	; 0x1f0
 8001f34:	0409      	lsls	r1, r1, #16
 8001f36:	f401 10f8 	and.w	r0, r1, #2031616	; 0x1f0000
 8001f3a:	f422 12f8 	bic.w	r2, r2, #2031616	; 0x1f0000
 8001f3e:	4310      	orrs	r0, r2
 8001f40:	f8c3 01f0 	str.w	r0, [r3, #496]	; 0x1f0
 8001f44:	2000      	movs	r0, #0
 8001f46:	4770      	bx	lr
 8001f48:	2001      	movs	r0, #1
 8001f4a:	4770      	bx	lr
 8001f4c:	2002      	movs	r0, #2
 8001f4e:	4770      	bx	lr

08001f50 <ADCGROUP001_SetEMUXMode>:
 8001f50:	68c2      	ldr	r2, [r0, #12]
 8001f52:	6943      	ldr	r3, [r0, #20]
 8001f54:	7810      	ldrb	r0, [r2, #0]
 8001f56:	2801      	cmp	r0, #1
 8001f58:	d10f      	bne.n	8001f7a <ADCGROUP001_SetEMUXMode+0x2a>
 8001f5a:	2903      	cmp	r1, #3
 8001f5c:	d80f      	bhi.n	8001f7e <ADCGROUP001_SetEMUXMode+0x2e>
 8001f5e:	f8d3 21f0 	ldr.w	r2, [r3, #496]	; 0x1f0
 8001f62:	0689      	lsls	r1, r1, #26
 8001f64:	f022 6040 	bic.w	r0, r2, #201326592	; 0xc000000
 8001f68:	f040 4200 	orr.w	r2, r0, #2147483648	; 0x80000000
 8001f6c:	f001 6040 	and.w	r0, r1, #201326592	; 0xc000000
 8001f70:	4302      	orrs	r2, r0
 8001f72:	f8c3 21f0 	str.w	r2, [r3, #496]	; 0x1f0
 8001f76:	2000      	movs	r0, #0
 8001f78:	4770      	bx	lr
 8001f7a:	2001      	movs	r0, #1
 8001f7c:	4770      	bx	lr
 8001f7e:	2002      	movs	r0, #2
 8001f80:	4770      	bx	lr

08001f82 <ADCGROUP001_SetEMUXCodeScheme>:
 8001f82:	68c2      	ldr	r2, [r0, #12]
 8001f84:	6943      	ldr	r3, [r0, #20]
 8001f86:	7810      	ldrb	r0, [r2, #0]
 8001f88:	2801      	cmp	r0, #1
 8001f8a:	d10f      	bne.n	8001fac <ADCGROUP001_SetEMUXCodeScheme+0x2a>
 8001f8c:	2901      	cmp	r1, #1
 8001f8e:	d80f      	bhi.n	8001fb0 <ADCGROUP001_SetEMUXCodeScheme+0x2e>
 8001f90:	f8d3 21f0 	ldr.w	r2, [r3, #496]	; 0x1f0
 8001f94:	0709      	lsls	r1, r1, #28
 8001f96:	f022 5080 	bic.w	r0, r2, #268435456	; 0x10000000
 8001f9a:	f040 4200 	orr.w	r2, r0, #2147483648	; 0x80000000
 8001f9e:	f001 5080 	and.w	r0, r1, #268435456	; 0x10000000
 8001fa2:	4302      	orrs	r2, r0
 8001fa4:	f8c3 21f0 	str.w	r2, [r3, #496]	; 0x1f0
 8001fa8:	2000      	movs	r0, #0
 8001faa:	4770      	bx	lr
 8001fac:	2001      	movs	r0, #1
 8001fae:	4770      	bx	lr
 8001fb0:	2002      	movs	r0, #2
 8001fb2:	4770      	bx	lr

08001fb4 <ADCGROUP001_SetGroupClass0SampleTime>:
 8001fb4:	68c2      	ldr	r2, [r0, #12]
 8001fb6:	6943      	ldr	r3, [r0, #20]
 8001fb8:	7810      	ldrb	r0, [r2, #0]
 8001fba:	2801      	cmp	r0, #1
 8001fbc:	d10a      	bne.n	8001fd4 <ADCGROUP001_SetGroupClass0SampleTime+0x20>
 8001fbe:	291f      	cmp	r1, #31
 8001fc0:	d80a      	bhi.n	8001fd8 <ADCGROUP001_SetGroupClass0SampleTime+0x24>
 8001fc2:	f8d3 20a0 	ldr.w	r2, [r3, #160]	; 0xa0
 8001fc6:	f022 001f 	bic.w	r0, r2, #31
 8001fca:	4301      	orrs	r1, r0
 8001fcc:	f8c3 10a0 	str.w	r1, [r3, #160]	; 0xa0
 8001fd0:	2000      	movs	r0, #0
 8001fd2:	4770      	bx	lr
 8001fd4:	2001      	movs	r0, #1
 8001fd6:	4770      	bx	lr
 8001fd8:	2002      	movs	r0, #2
 8001fda:	4770      	bx	lr

08001fdc <ADCGROUP001_SetGroupClass1SampleTime>:
 8001fdc:	68c2      	ldr	r2, [r0, #12]
 8001fde:	6943      	ldr	r3, [r0, #20]
 8001fe0:	7810      	ldrb	r0, [r2, #0]
 8001fe2:	2801      	cmp	r0, #1
 8001fe4:	d10a      	bne.n	8001ffc <ADCGROUP001_SetGroupClass1SampleTime+0x20>
 8001fe6:	291f      	cmp	r1, #31
 8001fe8:	d80a      	bhi.n	8002000 <ADCGROUP001_SetGroupClass1SampleTime+0x24>
 8001fea:	f8d3 20a4 	ldr.w	r2, [r3, #164]	; 0xa4
 8001fee:	f022 001f 	bic.w	r0, r2, #31
 8001ff2:	4301      	orrs	r1, r0
 8001ff4:	f8c3 10a4 	str.w	r1, [r3, #164]	; 0xa4
 8001ff8:	2000      	movs	r0, #0
 8001ffa:	4770      	bx	lr
 8001ffc:	2001      	movs	r0, #1
 8001ffe:	4770      	bx	lr
 8002000:	2002      	movs	r0, #2
 8002002:	4770      	bx	lr

08002004 <ADCGROUP001_SetGroupClass0EmuxSampleTime>:
 8002004:	68c2      	ldr	r2, [r0, #12]
 8002006:	6943      	ldr	r3, [r0, #20]
 8002008:	7810      	ldrb	r0, [r2, #0]
 800200a:	2801      	cmp	r0, #1
 800200c:	d10d      	bne.n	800202a <ADCGROUP001_SetGroupClass0EmuxSampleTime+0x26>
 800200e:	291f      	cmp	r1, #31
 8002010:	d80d      	bhi.n	800202e <ADCGROUP001_SetGroupClass0EmuxSampleTime+0x2a>
 8002012:	f8d3 20a0 	ldr.w	r2, [r3, #160]	; 0xa0
 8002016:	0409      	lsls	r1, r1, #16
 8002018:	f401 10f8 	and.w	r0, r1, #2031616	; 0x1f0000
 800201c:	f422 12f8 	bic.w	r2, r2, #2031616	; 0x1f0000
 8002020:	4310      	orrs	r0, r2
 8002022:	f8c3 00a0 	str.w	r0, [r3, #160]	; 0xa0
 8002026:	2000      	movs	r0, #0
 8002028:	4770      	bx	lr
 800202a:	2001      	movs	r0, #1
 800202c:	4770      	bx	lr
 800202e:	2002      	movs	r0, #2
 8002030:	4770      	bx	lr

08002032 <ADCGROUP001_SetGroupClass1EmuxSampleTime>:
 8002032:	68c2      	ldr	r2, [r0, #12]
 8002034:	6943      	ldr	r3, [r0, #20]
 8002036:	7810      	ldrb	r0, [r2, #0]
 8002038:	2801      	cmp	r0, #1
 800203a:	d10d      	bne.n	8002058 <ADCGROUP001_SetGroupClass1EmuxSampleTime+0x26>
 800203c:	291f      	cmp	r1, #31
 800203e:	d80d      	bhi.n	800205c <ADCGROUP001_SetGroupClass1EmuxSampleTime+0x2a>
 8002040:	f8d3 20a4 	ldr.w	r2, [r3, #164]	; 0xa4
 8002044:	0409      	lsls	r1, r1, #16
 8002046:	f401 10f8 	and.w	r0, r1, #2031616	; 0x1f0000
 800204a:	f422 12f8 	bic.w	r2, r2, #2031616	; 0x1f0000
 800204e:	4310      	orrs	r0, r2
 8002050:	f8c3 00a4 	str.w	r0, [r3, #164]	; 0xa4
 8002054:	2000      	movs	r0, #0
 8002056:	4770      	bx	lr
 8002058:	2001      	movs	r0, #1
 800205a:	4770      	bx	lr
 800205c:	2002      	movs	r0, #2
 800205e:	4770      	bx	lr

08002060 <ADCGROUP001_SetGroupClass0ConvMode>:
 8002060:	68c2      	ldr	r2, [r0, #12]
 8002062:	6943      	ldr	r3, [r0, #20]
 8002064:	7810      	ldrb	r0, [r2, #0]
 8002066:	2801      	cmp	r0, #1
 8002068:	d10f      	bne.n	800208a <ADCGROUP001_SetGroupClass0ConvMode+0x2a>
 800206a:	2902      	cmp	r1, #2
 800206c:	d901      	bls.n	8002072 <ADCGROUP001_SetGroupClass0ConvMode+0x12>
 800206e:	2905      	cmp	r1, #5
 8002070:	d10d      	bne.n	800208e <ADCGROUP001_SetGroupClass0ConvMode+0x2e>
 8002072:	f8d3 20a0 	ldr.w	r2, [r3, #160]	; 0xa0
 8002076:	0209      	lsls	r1, r1, #8
 8002078:	f401 60e0 	and.w	r0, r1, #1792	; 0x700
 800207c:	f422 62e0 	bic.w	r2, r2, #1792	; 0x700
 8002080:	4310      	orrs	r0, r2
 8002082:	f8c3 00a0 	str.w	r0, [r3, #160]	; 0xa0
 8002086:	2000      	movs	r0, #0
 8002088:	4770      	bx	lr
 800208a:	2001      	movs	r0, #1
 800208c:	4770      	bx	lr
 800208e:	2002      	movs	r0, #2
 8002090:	4770      	bx	lr

08002092 <ADCGROUP001_SetGroupClass1ConvMode>:
 8002092:	68c2      	ldr	r2, [r0, #12]
 8002094:	6943      	ldr	r3, [r0, #20]
 8002096:	7810      	ldrb	r0, [r2, #0]
 8002098:	2801      	cmp	r0, #1
 800209a:	d10f      	bne.n	80020bc <ADCGROUP001_SetGroupClass1ConvMode+0x2a>
 800209c:	2902      	cmp	r1, #2
 800209e:	d901      	bls.n	80020a4 <ADCGROUP001_SetGroupClass1ConvMode+0x12>
 80020a0:	2905      	cmp	r1, #5
 80020a2:	d10d      	bne.n	80020c0 <ADCGROUP001_SetGroupClass1ConvMode+0x2e>
 80020a4:	f8d3 20a4 	ldr.w	r2, [r3, #164]	; 0xa4
 80020a8:	0209      	lsls	r1, r1, #8
 80020aa:	f401 60e0 	and.w	r0, r1, #1792	; 0x700
 80020ae:	f422 62e0 	bic.w	r2, r2, #1792	; 0x700
 80020b2:	4310      	orrs	r0, r2
 80020b4:	f8c3 00a4 	str.w	r0, [r3, #164]	; 0xa4
 80020b8:	2000      	movs	r0, #0
 80020ba:	4770      	bx	lr
 80020bc:	2001      	movs	r0, #1
 80020be:	4770      	bx	lr
 80020c0:	2002      	movs	r0, #2
 80020c2:	4770      	bx	lr

080020c4 <ADCGROUP001_SetGroupClass0EmuxConvMode>:
 80020c4:	68c2      	ldr	r2, [r0, #12]
 80020c6:	6943      	ldr	r3, [r0, #20]
 80020c8:	7810      	ldrb	r0, [r2, #0]
 80020ca:	2801      	cmp	r0, #1
 80020cc:	d10f      	bne.n	80020ee <ADCGROUP001_SetGroupClass0EmuxConvMode+0x2a>
 80020ce:	2902      	cmp	r1, #2
 80020d0:	d901      	bls.n	80020d6 <ADCGROUP001_SetGroupClass0EmuxConvMode+0x12>
 80020d2:	2905      	cmp	r1, #5
 80020d4:	d10d      	bne.n	80020f2 <ADCGROUP001_SetGroupClass0EmuxConvMode+0x2e>
 80020d6:	f8d3 20a0 	ldr.w	r2, [r3, #160]	; 0xa0
 80020da:	0609      	lsls	r1, r1, #24
 80020dc:	f001 60e0 	and.w	r0, r1, #117440512	; 0x7000000
 80020e0:	f022 62e0 	bic.w	r2, r2, #117440512	; 0x7000000
 80020e4:	4310      	orrs	r0, r2
 80020e6:	f8c3 00a0 	str.w	r0, [r3, #160]	; 0xa0
 80020ea:	2000      	movs	r0, #0
 80020ec:	4770      	bx	lr
 80020ee:	2001      	movs	r0, #1
 80020f0:	4770      	bx	lr
 80020f2:	2002      	movs	r0, #2
 80020f4:	4770      	bx	lr

080020f6 <ADCGROUP001_SetGroupClass1EmuxConvMode>:
 80020f6:	68c2      	ldr	r2, [r0, #12]
 80020f8:	6943      	ldr	r3, [r0, #20]
 80020fa:	7810      	ldrb	r0, [r2, #0]
 80020fc:	2801      	cmp	r0, #1
 80020fe:	d10f      	bne.n	8002120 <ADCGROUP001_SetGroupClass1EmuxConvMode+0x2a>
 8002100:	2902      	cmp	r1, #2
 8002102:	d901      	bls.n	8002108 <ADCGROUP001_SetGroupClass1EmuxConvMode+0x12>
 8002104:	2905      	cmp	r1, #5
 8002106:	d10d      	bne.n	8002124 <ADCGROUP001_SetGroupClass1EmuxConvMode+0x2e>
 8002108:	f8d3 20a4 	ldr.w	r2, [r3, #164]	; 0xa4
 800210c:	0609      	lsls	r1, r1, #24
 800210e:	f001 60e0 	and.w	r0, r1, #117440512	; 0x7000000
 8002112:	f022 62e0 	bic.w	r2, r2, #117440512	; 0x7000000
 8002116:	4310      	orrs	r0, r2
 8002118:	f8c3 00a4 	str.w	r0, [r3, #164]	; 0xa4
 800211c:	2000      	movs	r0, #0
 800211e:	4770      	bx	lr
 8002120:	2001      	movs	r0, #1
 8002122:	4770      	bx	lr
 8002124:	2002      	movs	r0, #2
 8002126:	4770      	bx	lr

08002128 <ADCGROUP001_SetEMUXSampleTimeControl>:
 8002128:	68c2      	ldr	r2, [r0, #12]
 800212a:	6943      	ldr	r3, [r0, #20]
 800212c:	7810      	ldrb	r0, [r2, #0]
 800212e:	2801      	cmp	r0, #1
 8002130:	d10f      	bne.n	8002152 <ADCGROUP001_SetEMUXSampleTimeControl+0x2a>
 8002132:	2901      	cmp	r1, #1
 8002134:	d80f      	bhi.n	8002156 <ADCGROUP001_SetEMUXSampleTimeControl+0x2e>
 8002136:	f8d3 21f0 	ldr.w	r2, [r3, #496]	; 0x1f0
 800213a:	0749      	lsls	r1, r1, #29
 800213c:	f022 5000 	bic.w	r0, r2, #536870912	; 0x20000000
 8002140:	f040 4200 	orr.w	r2, r0, #2147483648	; 0x80000000
 8002144:	f001 5000 	and.w	r0, r1, #536870912	; 0x20000000
 8002148:	4302      	orrs	r2, r0
 800214a:	f8c3 21f0 	str.w	r2, [r3, #496]	; 0x1f0
 800214e:	2000      	movs	r0, #0
 8002150:	4770      	bx	lr
 8002152:	2001      	movs	r0, #1
 8002154:	4770      	bx	lr
 8002156:	2002      	movs	r0, #2
 8002158:	4770      	bx	lr
	...

0800215c <ADCGLOB001_Init>:
 800215c:	b538      	push	{r3, r4, r5, lr}
 800215e:	4c2a      	ldr	r4, [pc, #168]	; (8002208 <ADCGLOB001_Init+0xac>)
 8002160:	6865      	ldr	r5, [r4, #4]
 8002162:	782b      	ldrb	r3, [r5, #0]
 8002164:	2b00      	cmp	r3, #0
 8002166:	d14d      	bne.n	8002204 <ADCGLOB001_Init+0xa8>
 8002168:	2001      	movs	r0, #1
 800216a:	f7ff f9b1 	bl	80014d0 <RESET001_DeassertReset>
 800216e:	6820      	ldr	r0, [r4, #0]
 8002170:	7b23      	ldrb	r3, [r4, #12]
 8002172:	6802      	ldr	r2, [r0, #0]
 8002174:	f022 0101 	bic.w	r1, r2, #1
 8002178:	f003 021f 	and.w	r2, r3, #31
 800217c:	7b63      	ldrb	r3, [r4, #13]
 800217e:	6001      	str	r1, [r0, #0]
 8002180:	f442 4100 	orr.w	r1, r2, #32768	; 0x8000
 8002184:	021a      	lsls	r2, r3, #8
 8002186:	f402 7340 	and.w	r3, r2, #768	; 0x300
 800218a:	4319      	orrs	r1, r3
 800218c:	f8c0 1080 	str.w	r1, [r0, #128]	; 0x80
 8002190:	f8d0 2080 	ldr.w	r2, [r0, #128]	; 0x80
 8002194:	7d21      	ldrb	r1, [r4, #20]
 8002196:	f422 4300 	bic.w	r3, r2, #32768	; 0x8000
 800219a:	060a      	lsls	r2, r1, #24
 800219c:	7c21      	ldrb	r1, [r4, #16]
 800219e:	f8c0 3080 	str.w	r3, [r0, #128]	; 0x80
 80021a2:	f002 63e0 	and.w	r3, r2, #117440512	; 0x7000000
 80021a6:	040a      	lsls	r2, r1, #16
 80021a8:	f402 11f8 	and.w	r1, r2, #2031616	; 0x1f0000
 80021ac:	7ba2      	ldrb	r2, [r4, #14]
 80021ae:	430b      	orrs	r3, r1
 80021b0:	f002 011f 	and.w	r1, r2, #31
 80021b4:	7ca2      	ldrb	r2, [r4, #18]
 80021b6:	430b      	orrs	r3, r1
 80021b8:	0211      	lsls	r1, r2, #8
 80021ba:	f401 62e0 	and.w	r2, r1, #1792	; 0x700
 80021be:	4313      	orrs	r3, r2
 80021c0:	f8c0 30a0 	str.w	r3, [r0, #160]	; 0xa0
 80021c4:	7d63      	ldrb	r3, [r4, #21]
 80021c6:	7c62      	ldrb	r2, [r4, #17]
 80021c8:	0619      	lsls	r1, r3, #24
 80021ca:	f001 63e0 	and.w	r3, r1, #117440512	; 0x7000000
 80021ce:	0411      	lsls	r1, r2, #16
 80021d0:	f401 12f8 	and.w	r2, r1, #2031616	; 0x1f0000
 80021d4:	7be1      	ldrb	r1, [r4, #15]
 80021d6:	4313      	orrs	r3, r2
 80021d8:	f001 021f 	and.w	r2, r1, #31
 80021dc:	7ce1      	ldrb	r1, [r4, #19]
 80021de:	4313      	orrs	r3, r2
 80021e0:	020a      	lsls	r2, r1, #8
 80021e2:	f402 61e0 	and.w	r1, r2, #1792	; 0x700
 80021e6:	430b      	orrs	r3, r1
 80021e8:	f8c0 30a4 	str.w	r3, [r0, #164]	; 0xa4
 80021ec:	8963      	ldrh	r3, [r4, #10]
 80021ee:	4a07      	ldr	r2, [pc, #28]	; (800220c <ADCGLOB001_Init+0xb0>)
 80021f0:	0419      	lsls	r1, r3, #16
 80021f2:	8923      	ldrh	r3, [r4, #8]
 80021f4:	400a      	ands	r2, r1
 80021f6:	0519      	lsls	r1, r3, #20
 80021f8:	ea42 5211 	orr.w	r2, r2, r1, lsr #20
 80021fc:	f8c0 20b8 	str.w	r2, [r0, #184]	; 0xb8
 8002200:	2001      	movs	r0, #1
 8002202:	7028      	strb	r0, [r5, #0]
 8002204:	bd38      	pop	{r3, r4, r5, pc}
 8002206:	bf00      	nop
 8002208:	08002f34 	.word	0x08002f34
 800220c:	0fff0000 	.word	0x0fff0000

08002210 <ADCGLOB001_DeInit>:
 8002210:	6842      	ldr	r2, [r0, #4]
 8002212:	7813      	ldrb	r3, [r2, #0]
 8002214:	2b01      	cmp	r3, #1
 8002216:	d119      	bne.n	800224c <ADCGLOB001_DeInit+0x3c>
 8002218:	6800      	ldr	r0, [r0, #0]
 800221a:	6801      	ldr	r1, [r0, #0]
 800221c:	f021 0301 	bic.w	r3, r1, #1
 8002220:	490b      	ldr	r1, [pc, #44]	; (8002250 <ADCGLOB001_DeInit+0x40>)
 8002222:	6003      	str	r3, [r0, #0]
 8002224:	f8c0 1080 	str.w	r1, [r0, #128]	; 0x80
 8002228:	f8d0 3080 	ldr.w	r3, [r0, #128]	; 0x80
 800222c:	f423 4100 	bic.w	r1, r3, #32768	; 0x8000
 8002230:	4b08      	ldr	r3, [pc, #32]	; (8002254 <ADCGLOB001_DeInit+0x44>)
 8002232:	f8c0 1080 	str.w	r1, [r0, #128]	; 0x80
 8002236:	f04f 21f0 	mov.w	r1, #4026593280	; 0xf000f000
 800223a:	f8c0 30a0 	str.w	r3, [r0, #160]	; 0xa0
 800223e:	f8c0 30a4 	str.w	r3, [r0, #164]	; 0xa4
 8002242:	f8c0 10b8 	str.w	r1, [r0, #184]	; 0xb8
 8002246:	2000      	movs	r0, #0
 8002248:	7010      	strb	r0, [r2, #0]
 800224a:	4770      	bx	lr
 800224c:	2001      	movs	r0, #1
 800224e:	4770      	bx	lr
 8002250:	fffffc60 	.word	0xfffffc60
 8002254:	f8e0f8e0 	.word	0xf8e0f8e0

08002258 <ADCGLOB001_CLKRequestDisable>:
 8002258:	6843      	ldr	r3, [r0, #4]
 800225a:	7819      	ldrb	r1, [r3, #0]
 800225c:	2901      	cmp	r1, #1
 800225e:	d106      	bne.n	800226e <ADCGLOB001_CLKRequestDisable+0x16>
 8002260:	6800      	ldr	r0, [r0, #0]
 8002262:	6802      	ldr	r2, [r0, #0]
 8002264:	f042 0301 	orr.w	r3, r2, #1
 8002268:	6003      	str	r3, [r0, #0]
 800226a:	2000      	movs	r0, #0
 800226c:	4770      	bx	lr
 800226e:	2001      	movs	r0, #1
 8002270:	4770      	bx	lr

08002272 <ADCGLOB001_CLKRequestEnable>:
 8002272:	6843      	ldr	r3, [r0, #4]
 8002274:	7819      	ldrb	r1, [r3, #0]
 8002276:	2901      	cmp	r1, #1
 8002278:	d106      	bne.n	8002288 <ADCGLOB001_CLKRequestEnable+0x16>
 800227a:	6800      	ldr	r0, [r0, #0]
 800227c:	6802      	ldr	r2, [r0, #0]
 800227e:	f022 0301 	bic.w	r3, r2, #1
 8002282:	6003      	str	r3, [r0, #0]
 8002284:	2000      	movs	r0, #0
 8002286:	4770      	bx	lr
 8002288:	2001      	movs	r0, #1
 800228a:	4770      	bx	lr

0800228c <ADCGLOB001_SetStartUpCalibration>:
 800228c:	6843      	ldr	r3, [r0, #4]
 800228e:	7819      	ldrb	r1, [r3, #0]
 8002290:	2901      	cmp	r1, #1
 8002292:	d108      	bne.n	80022a6 <ADCGLOB001_SetStartUpCalibration+0x1a>
 8002294:	6800      	ldr	r0, [r0, #0]
 8002296:	f8d0 2080 	ldr.w	r2, [r0, #128]	; 0x80
 800229a:	f042 4300 	orr.w	r3, r2, #2147483648	; 0x80000000
 800229e:	f8c0 3080 	str.w	r3, [r0, #128]	; 0x80
 80022a2:	2000      	movs	r0, #0
 80022a4:	4770      	bx	lr
 80022a6:	2001      	movs	r0, #1
 80022a8:	4770      	bx	lr
	...

080022ac <ADCGLOB001_StartUpCalibrationInit>:
 80022ac:	4b09      	ldr	r3, [pc, #36]	; (80022d4 <ADCGLOB001_StartUpCalibrationInit+0x28>)
 80022ae:	685a      	ldr	r2, [r3, #4]
 80022b0:	7810      	ldrb	r0, [r2, #0]
 80022b2:	2801      	cmp	r0, #1
 80022b4:	d10a      	bne.n	80022cc <ADCGLOB001_StartUpCalibrationInit+0x20>
 80022b6:	7d99      	ldrb	r1, [r3, #22]
 80022b8:	2901      	cmp	r1, #1
 80022ba:	d109      	bne.n	80022d0 <ADCGLOB001_StartUpCalibrationInit+0x24>
 80022bc:	681b      	ldr	r3, [r3, #0]
 80022be:	f8d3 2080 	ldr.w	r2, [r3, #128]	; 0x80
 80022c2:	f042 4000 	orr.w	r0, r2, #2147483648	; 0x80000000
 80022c6:	f8c3 0080 	str.w	r0, [r3, #128]	; 0x80
 80022ca:	e001      	b.n	80022d0 <ADCGLOB001_StartUpCalibrationInit+0x24>
 80022cc:	2001      	movs	r0, #1
 80022ce:	4770      	bx	lr
 80022d0:	2000      	movs	r0, #0
 80022d2:	4770      	bx	lr
 80022d4:	08002f34 	.word	0x08002f34

080022d8 <ADCGLOB001_EnableSleepModeControl>:
 80022d8:	6843      	ldr	r3, [r0, #4]
 80022da:	7819      	ldrb	r1, [r3, #0]
 80022dc:	2901      	cmp	r1, #1
 80022de:	d106      	bne.n	80022ee <ADCGLOB001_EnableSleepModeControl+0x16>
 80022e0:	6800      	ldr	r0, [r0, #0]
 80022e2:	6802      	ldr	r2, [r0, #0]
 80022e4:	f022 0308 	bic.w	r3, r2, #8
 80022e8:	6003      	str	r3, [r0, #0]
 80022ea:	2000      	movs	r0, #0
 80022ec:	4770      	bx	lr
 80022ee:	2001      	movs	r0, #1
 80022f0:	4770      	bx	lr

080022f2 <ADCGLOB001_DisregardSleepModeControl>:
 80022f2:	6843      	ldr	r3, [r0, #4]
 80022f4:	7819      	ldrb	r1, [r3, #0]
 80022f6:	2901      	cmp	r1, #1
 80022f8:	d106      	bne.n	8002308 <ADCGLOB001_DisregardSleepModeControl+0x16>
 80022fa:	6800      	ldr	r0, [r0, #0]
 80022fc:	6802      	ldr	r2, [r0, #0]
 80022fe:	f042 0308 	orr.w	r3, r2, #8
 8002302:	6003      	str	r3, [r0, #0]
 8002304:	2000      	movs	r0, #0
 8002306:	4770      	bx	lr
 8002308:	2001      	movs	r0, #1
 800230a:	4770      	bx	lr

0800230c <ADCGLOB001_SetGlobClass0ConvMode>:
 800230c:	6843      	ldr	r3, [r0, #4]
 800230e:	781a      	ldrb	r2, [r3, #0]
 8002310:	2a01      	cmp	r2, #1
 8002312:	d110      	bne.n	8002336 <ADCGLOB001_SetGlobClass0ConvMode+0x2a>
 8002314:	2902      	cmp	r1, #2
 8002316:	d901      	bls.n	800231c <ADCGLOB001_SetGlobClass0ConvMode+0x10>
 8002318:	2905      	cmp	r1, #5
 800231a:	d10e      	bne.n	800233a <ADCGLOB001_SetGlobClass0ConvMode+0x2e>
 800231c:	6800      	ldr	r0, [r0, #0]
 800231e:	f8d0 30a0 	ldr.w	r3, [r0, #160]	; 0xa0
 8002322:	0209      	lsls	r1, r1, #8
 8002324:	f423 62e0 	bic.w	r2, r3, #1792	; 0x700
 8002328:	f401 61e0 	and.w	r1, r1, #1792	; 0x700
 800232c:	4311      	orrs	r1, r2
 800232e:	f8c0 10a0 	str.w	r1, [r0, #160]	; 0xa0
 8002332:	2000      	movs	r0, #0
 8002334:	4770      	bx	lr
 8002336:	2001      	movs	r0, #1
 8002338:	4770      	bx	lr
 800233a:	2002      	movs	r0, #2
 800233c:	4770      	bx	lr

0800233e <ADCGLOB001_SetGlobClass0SampleTime>:
 800233e:	6843      	ldr	r3, [r0, #4]
 8002340:	781a      	ldrb	r2, [r3, #0]
 8002342:	2a01      	cmp	r2, #1
 8002344:	d10b      	bne.n	800235e <ADCGLOB001_SetGlobClass0SampleTime+0x20>
 8002346:	291f      	cmp	r1, #31
 8002348:	d80b      	bhi.n	8002362 <ADCGLOB001_SetGlobClass0SampleTime+0x24>
 800234a:	6800      	ldr	r0, [r0, #0]
 800234c:	f8d0 30a0 	ldr.w	r3, [r0, #160]	; 0xa0
 8002350:	f023 021f 	bic.w	r2, r3, #31
 8002354:	4311      	orrs	r1, r2
 8002356:	f8c0 10a0 	str.w	r1, [r0, #160]	; 0xa0
 800235a:	2000      	movs	r0, #0
 800235c:	4770      	bx	lr
 800235e:	2001      	movs	r0, #1
 8002360:	4770      	bx	lr
 8002362:	2002      	movs	r0, #2
 8002364:	4770      	bx	lr

08002366 <ADCGLOB001_SetGlobClass0EmuxConvMode>:
 8002366:	6843      	ldr	r3, [r0, #4]
 8002368:	781a      	ldrb	r2, [r3, #0]
 800236a:	2a01      	cmp	r2, #1
 800236c:	d110      	bne.n	8002390 <ADCGLOB001_SetGlobClass0EmuxConvMode+0x2a>
 800236e:	2902      	cmp	r1, #2
 8002370:	d901      	bls.n	8002376 <ADCGLOB001_SetGlobClass0EmuxConvMode+0x10>
 8002372:	2905      	cmp	r1, #5
 8002374:	d10e      	bne.n	8002394 <ADCGLOB001_SetGlobClass0EmuxConvMode+0x2e>
 8002376:	6800      	ldr	r0, [r0, #0]
 8002378:	f8d0 30a0 	ldr.w	r3, [r0, #160]	; 0xa0
 800237c:	0609      	lsls	r1, r1, #24
 800237e:	f023 62e0 	bic.w	r2, r3, #117440512	; 0x7000000
 8002382:	f001 61e0 	and.w	r1, r1, #117440512	; 0x7000000
 8002386:	4311      	orrs	r1, r2
 8002388:	f8c0 10a0 	str.w	r1, [r0, #160]	; 0xa0
 800238c:	2000      	movs	r0, #0
 800238e:	4770      	bx	lr
 8002390:	2001      	movs	r0, #1
 8002392:	4770      	bx	lr
 8002394:	2002      	movs	r0, #2
 8002396:	4770      	bx	lr

08002398 <ADCGLOB001_SetGlobClass0EmuxSampleTime>:
 8002398:	6843      	ldr	r3, [r0, #4]
 800239a:	781a      	ldrb	r2, [r3, #0]
 800239c:	2a01      	cmp	r2, #1
 800239e:	d10e      	bne.n	80023be <ADCGLOB001_SetGlobClass0EmuxSampleTime+0x26>
 80023a0:	291f      	cmp	r1, #31
 80023a2:	d80e      	bhi.n	80023c2 <ADCGLOB001_SetGlobClass0EmuxSampleTime+0x2a>
 80023a4:	6800      	ldr	r0, [r0, #0]
 80023a6:	f8d0 30a0 	ldr.w	r3, [r0, #160]	; 0xa0
 80023aa:	0409      	lsls	r1, r1, #16
 80023ac:	f423 12f8 	bic.w	r2, r3, #2031616	; 0x1f0000
 80023b0:	f401 11f8 	and.w	r1, r1, #2031616	; 0x1f0000
 80023b4:	4311      	orrs	r1, r2
 80023b6:	f8c0 10a0 	str.w	r1, [r0, #160]	; 0xa0
 80023ba:	2000      	movs	r0, #0
 80023bc:	4770      	bx	lr
 80023be:	2001      	movs	r0, #1
 80023c0:	4770      	bx	lr
 80023c2:	2002      	movs	r0, #2
 80023c4:	4770      	bx	lr

080023c6 <ADCGLOB001_SetGlobClass1ConvMode>:
 80023c6:	6843      	ldr	r3, [r0, #4]
 80023c8:	781a      	ldrb	r2, [r3, #0]
 80023ca:	2a01      	cmp	r2, #1
 80023cc:	d110      	bne.n	80023f0 <ADCGLOB001_SetGlobClass1ConvMode+0x2a>
 80023ce:	2902      	cmp	r1, #2
 80023d0:	d901      	bls.n	80023d6 <ADCGLOB001_SetGlobClass1ConvMode+0x10>
 80023d2:	2905      	cmp	r1, #5
 80023d4:	d10e      	bne.n	80023f4 <ADCGLOB001_SetGlobClass1ConvMode+0x2e>
 80023d6:	6800      	ldr	r0, [r0, #0]
 80023d8:	f8d0 30a4 	ldr.w	r3, [r0, #164]	; 0xa4
 80023dc:	0209      	lsls	r1, r1, #8
 80023de:	f423 62e0 	bic.w	r2, r3, #1792	; 0x700
 80023e2:	f401 61e0 	and.w	r1, r1, #1792	; 0x700
 80023e6:	4311      	orrs	r1, r2
 80023e8:	f8c0 10a4 	str.w	r1, [r0, #164]	; 0xa4
 80023ec:	2000      	movs	r0, #0
 80023ee:	4770      	bx	lr
 80023f0:	2001      	movs	r0, #1
 80023f2:	4770      	bx	lr
 80023f4:	2002      	movs	r0, #2
 80023f6:	4770      	bx	lr

080023f8 <ADCGLOB001_SetGlobClass1SampleTime>:
 80023f8:	6843      	ldr	r3, [r0, #4]
 80023fa:	781a      	ldrb	r2, [r3, #0]
 80023fc:	2a01      	cmp	r2, #1
 80023fe:	d10b      	bne.n	8002418 <ADCGLOB001_SetGlobClass1SampleTime+0x20>
 8002400:	291f      	cmp	r1, #31
 8002402:	d80b      	bhi.n	800241c <ADCGLOB001_SetGlobClass1SampleTime+0x24>
 8002404:	6800      	ldr	r0, [r0, #0]
 8002406:	f8d0 30a4 	ldr.w	r3, [r0, #164]	; 0xa4
 800240a:	f023 021f 	bic.w	r2, r3, #31
 800240e:	4311      	orrs	r1, r2
 8002410:	f8c0 10a4 	str.w	r1, [r0, #164]	; 0xa4
 8002414:	2000      	movs	r0, #0
 8002416:	4770      	bx	lr
 8002418:	2001      	movs	r0, #1
 800241a:	4770      	bx	lr
 800241c:	2002      	movs	r0, #2
 800241e:	4770      	bx	lr

08002420 <ADCGLOB001_SetGlobClass1EmuxConvMode>:
 8002420:	6843      	ldr	r3, [r0, #4]
 8002422:	781a      	ldrb	r2, [r3, #0]
 8002424:	2a01      	cmp	r2, #1
 8002426:	d110      	bne.n	800244a <ADCGLOB001_SetGlobClass1EmuxConvMode+0x2a>
 8002428:	2902      	cmp	r1, #2
 800242a:	d901      	bls.n	8002430 <ADCGLOB001_SetGlobClass1EmuxConvMode+0x10>
 800242c:	2905      	cmp	r1, #5
 800242e:	d10e      	bne.n	800244e <ADCGLOB001_SetGlobClass1EmuxConvMode+0x2e>
 8002430:	6800      	ldr	r0, [r0, #0]
 8002432:	f8d0 30a4 	ldr.w	r3, [r0, #164]	; 0xa4
 8002436:	0609      	lsls	r1, r1, #24
 8002438:	f023 62e0 	bic.w	r2, r3, #117440512	; 0x7000000
 800243c:	f001 61e0 	and.w	r1, r1, #117440512	; 0x7000000
 8002440:	4311      	orrs	r1, r2
 8002442:	f8c0 10a4 	str.w	r1, [r0, #164]	; 0xa4
 8002446:	2000      	movs	r0, #0
 8002448:	4770      	bx	lr
 800244a:	2001      	movs	r0, #1
 800244c:	4770      	bx	lr
 800244e:	2002      	movs	r0, #2
 8002450:	4770      	bx	lr

08002452 <ADCGLOB001_SetGlobClass1EmuxSampleTime>:
 8002452:	6843      	ldr	r3, [r0, #4]
 8002454:	781a      	ldrb	r2, [r3, #0]
 8002456:	2a01      	cmp	r2, #1
 8002458:	d10e      	bne.n	8002478 <ADCGLOB001_SetGlobClass1EmuxSampleTime+0x26>
 800245a:	291f      	cmp	r1, #31
 800245c:	d80e      	bhi.n	800247c <ADCGLOB001_SetGlobClass1EmuxSampleTime+0x2a>
 800245e:	6800      	ldr	r0, [r0, #0]
 8002460:	f8d0 30a4 	ldr.w	r3, [r0, #164]	; 0xa4
 8002464:	0409      	lsls	r1, r1, #16
 8002466:	f423 12f8 	bic.w	r2, r3, #2031616	; 0x1f0000
 800246a:	f401 11f8 	and.w	r1, r1, #2031616	; 0x1f0000
 800246e:	4311      	orrs	r1, r2
 8002470:	f8c0 10a4 	str.w	r1, [r0, #164]	; 0xa4
 8002474:	2000      	movs	r0, #0
 8002476:	4770      	bx	lr
 8002478:	2001      	movs	r0, #1
 800247a:	4770      	bx	lr
 800247c:	2002      	movs	r0, #2
 800247e:	4770      	bx	lr

08002480 <ADCGLOB001_GetDisableBitStatus>:
 8002480:	6843      	ldr	r3, [r0, #4]
 8002482:	781a      	ldrb	r2, [r3, #0]
 8002484:	2a01      	cmp	r2, #1
 8002486:	d106      	bne.n	8002496 <ADCGLOB001_GetDisableBitStatus+0x16>
 8002488:	6800      	ldr	r0, [r0, #0]
 800248a:	6803      	ldr	r3, [r0, #0]
 800248c:	f3c3 0240 	ubfx	r2, r3, #1, #1
 8002490:	700a      	strb	r2, [r1, #0]
 8002492:	2000      	movs	r0, #0
 8002494:	4770      	bx	lr
 8002496:	2001      	movs	r0, #1
 8002498:	4770      	bx	lr

0800249a <ADCGLOB001_GetIdValue>:
 800249a:	6843      	ldr	r3, [r0, #4]
 800249c:	781a      	ldrb	r2, [r3, #0]
 800249e:	2a01      	cmp	r2, #1
 80024a0:	d104      	bne.n	80024ac <ADCGLOB001_GetIdValue+0x12>
 80024a2:	6800      	ldr	r0, [r0, #0]
 80024a4:	6883      	ldr	r3, [r0, #8]
 80024a6:	2000      	movs	r0, #0
 80024a8:	600b      	str	r3, [r1, #0]
 80024aa:	4770      	bx	lr
 80024ac:	2001      	movs	r0, #1
 80024ae:	4770      	bx	lr

080024b0 <ADCGLOB001_GTFRConvtrDiagnoGrp>:
 80024b0:	6843      	ldr	r3, [r0, #4]
 80024b2:	781a      	ldrb	r2, [r3, #0]
 80024b4:	2a01      	cmp	r2, #1
 80024b6:	d11d      	bne.n	80024f4 <ADCGLOB001_GTFRConvtrDiagnoGrp+0x44>
 80024b8:	290f      	cmp	r1, #15
 80024ba:	d81d      	bhi.n	80024f8 <ADCGLOB001_GTFRConvtrDiagnoGrp+0x48>
 80024bc:	6800      	ldr	r0, [r0, #0]
 80024be:	f8d0 3160 	ldr.w	r3, [r0, #352]	; 0x160
 80024c2:	f423 4200 	bic.w	r2, r3, #32768	; 0x8000
 80024c6:	f022 03f0 	bic.w	r3, r2, #240	; 0xf0
 80024ca:	f443 4200 	orr.w	r2, r3, #32768	; 0x8000
 80024ce:	f8c0 2160 	str.w	r2, [r0, #352]	; 0x160
 80024d2:	f8d0 3160 	ldr.w	r3, [r0, #352]	; 0x160
 80024d6:	0109      	lsls	r1, r1, #4
 80024d8:	f443 4200 	orr.w	r2, r3, #32768	; 0x8000
 80024dc:	b2cb      	uxtb	r3, r1
 80024de:	431a      	orrs	r2, r3
 80024e0:	f8c0 2160 	str.w	r2, [r0, #352]	; 0x160
 80024e4:	f8d0 1160 	ldr.w	r1, [r0, #352]	; 0x160
 80024e8:	f421 4300 	bic.w	r3, r1, #32768	; 0x8000
 80024ec:	f8c0 3160 	str.w	r3, [r0, #352]	; 0x160
 80024f0:	2000      	movs	r0, #0
 80024f2:	4770      	bx	lr
 80024f4:	2001      	movs	r0, #1
 80024f6:	4770      	bx	lr
 80024f8:	2002      	movs	r0, #2
 80024fa:	4770      	bx	lr

080024fc <ADCGLOB001_GTFRConvtrDiagnoEnable>:
 80024fc:	6843      	ldr	r3, [r0, #4]
 80024fe:	7819      	ldrb	r1, [r3, #0]
 8002500:	2901      	cmp	r1, #1
 8002502:	d10e      	bne.n	8002522 <ADCGLOB001_GTFRConvtrDiagnoEnable+0x26>
 8002504:	6800      	ldr	r0, [r0, #0]
 8002506:	f8d0 2160 	ldr.w	r2, [r0, #352]	; 0x160
 800250a:	f442 4301 	orr.w	r3, r2, #33024	; 0x8100
 800250e:	f8c0 3160 	str.w	r3, [r0, #352]	; 0x160
 8002512:	f8d0 1160 	ldr.w	r1, [r0, #352]	; 0x160
 8002516:	f421 4200 	bic.w	r2, r1, #32768	; 0x8000
 800251a:	f8c0 2160 	str.w	r2, [r0, #352]	; 0x160
 800251e:	2000      	movs	r0, #0
 8002520:	4770      	bx	lr
 8002522:	2001      	movs	r0, #1
 8002524:	4770      	bx	lr

08002526 <ADCGLOB001_GTFRConvtrDiagnoPullDevicesSelect>:
 8002526:	6843      	ldr	r3, [r0, #4]
 8002528:	781a      	ldrb	r2, [r3, #0]
 800252a:	2a01      	cmp	r2, #1
 800252c:	d11c      	bne.n	8002568 <ADCGLOB001_GTFRConvtrDiagnoPullDevicesSelect+0x42>
 800252e:	2903      	cmp	r1, #3
 8002530:	d81c      	bhi.n	800256c <ADCGLOB001_GTFRConvtrDiagnoPullDevicesSelect+0x46>
 8002532:	6800      	ldr	r0, [r0, #0]
 8002534:	f8d0 3160 	ldr.w	r3, [r0, #352]	; 0x160
 8002538:	f423 4206 	bic.w	r2, r3, #34304	; 0x8600
 800253c:	f442 4300 	orr.w	r3, r2, #32768	; 0x8000
 8002540:	f8c0 3160 	str.w	r3, [r0, #352]	; 0x160
 8002544:	f8d0 2160 	ldr.w	r2, [r0, #352]	; 0x160
 8002548:	0249      	lsls	r1, r1, #9
 800254a:	f442 4300 	orr.w	r3, r2, #32768	; 0x8000
 800254e:	f401 62c0 	and.w	r2, r1, #1536	; 0x600
 8002552:	4313      	orrs	r3, r2
 8002554:	f8c0 3160 	str.w	r3, [r0, #352]	; 0x160
 8002558:	f8d0 1160 	ldr.w	r1, [r0, #352]	; 0x160
 800255c:	f421 4200 	bic.w	r2, r1, #32768	; 0x8000
 8002560:	f8c0 2160 	str.w	r2, [r0, #352]	; 0x160
 8002564:	2000      	movs	r0, #0
 8002566:	4770      	bx	lr
 8002568:	2001      	movs	r0, #1
 800256a:	4770      	bx	lr
 800256c:	2002      	movs	r0, #2
 800256e:	4770      	bx	lr

08002570 <ADCGLOB001_GTFRPullDwnDiagnoEnable>:
 8002570:	6843      	ldr	r3, [r0, #4]
 8002572:	7819      	ldrb	r1, [r3, #0]
 8002574:	2901      	cmp	r1, #1
 8002576:	d10e      	bne.n	8002596 <ADCGLOB001_GTFRPullDwnDiagnoEnable+0x26>
 8002578:	6800      	ldr	r0, [r0, #0]
 800257a:	f8d0 2160 	ldr.w	r2, [r0, #352]	; 0x160
 800257e:	f442 0301 	orr.w	r3, r2, #8454144	; 0x810000
 8002582:	f8c0 3160 	str.w	r3, [r0, #352]	; 0x160
 8002586:	f8d0 1160 	ldr.w	r1, [r0, #352]	; 0x160
 800258a:	f421 0200 	bic.w	r2, r1, #8388608	; 0x800000
 800258e:	f8c0 2160 	str.w	r2, [r0, #352]	; 0x160
 8002592:	2000      	movs	r0, #0
 8002594:	4770      	bx	lr
 8002596:	2001      	movs	r0, #1
 8002598:	4770      	bx	lr
	...

0800259c <ADC001_lInit>:
 800259c:	b5f0      	push	{r4, r5, r6, r7, lr}
 800259e:	6d04      	ldr	r4, [r0, #80]	; 0x50
 80025a0:	6bc5      	ldr	r5, [r0, #60]	; 0x3c
 80025a2:	6c43      	ldr	r3, [r0, #68]	; 0x44
 80025a4:	6c81      	ldr	r1, [r0, #72]	; 0x48
 80025a6:	6cc2      	ldr	r2, [r0, #76]	; 0x4c
 80025a8:	b085      	sub	sp, #20
 80025aa:	9403      	str	r4, [sp, #12]
 80025ac:	792c      	ldrb	r4, [r5, #4]
 80025ae:	9300      	str	r3, [sp, #0]
 80025b0:	9101      	str	r1, [sp, #4]
 80025b2:	9202      	str	r2, [sp, #8]
 80025b4:	6c03      	ldr	r3, [r0, #64]	; 0x40
 80025b6:	2c00      	cmp	r4, #0
 80025b8:	f040 808a 	bne.w	80026d0 <ADC001_lInit+0x134>
 80025bc:	7841      	ldrb	r1, [r0, #1]
 80025be:	42a1      	cmp	r1, r4
 80025c0:	d92a      	bls.n	8002618 <ADC001_lInit+0x7c>
 80025c2:	4e44      	ldr	r6, [pc, #272]	; (80026d4 <ADC001_lInit+0x138>)
 80025c4:	f856 7024 	ldr.w	r7, [r6, r4, lsl #2]
 80025c8:	783a      	ldrb	r2, [r7, #0]
 80025ca:	a904      	add	r1, sp, #16
 80025cc:	eb01 0682 	add.w	r6, r1, r2, lsl #2
 80025d0:	7879      	ldrb	r1, [r7, #1]
 80025d2:	f856 2c10 	ldr.w	r2, [r6, #-16]
 80025d6:	f890 603a 	ldrb.w	r6, [r0, #58]	; 0x3a
 80025da:	3180      	adds	r1, #128	; 0x80
 80025dc:	f006 0603 	and.w	r6, r6, #3
 80025e0:	f852 7021 	ldr.w	r7, [r2, r1, lsl #2]
 80025e4:	f027 0703 	bic.w	r7, r7, #3
 80025e8:	4337      	orrs	r7, r6
 80025ea:	f842 7021 	str.w	r7, [r2, r1, lsl #2]
 80025ee:	f852 6021 	ldr.w	r6, [r2, r1, lsl #2]
 80025f2:	f446 1780 	orr.w	r7, r6, #1048576	; 0x100000
 80025f6:	f842 7021 	str.w	r7, [r2, r1, lsl #2]
 80025fa:	f852 6021 	ldr.w	r6, [r2, r1, lsl #2]
 80025fe:	f426 1700 	bic.w	r7, r6, #2097152	; 0x200000
 8002602:	f890 6037 	ldrb.w	r6, [r0, #55]	; 0x37
 8002606:	0576      	lsls	r6, r6, #21
 8002608:	f406 1600 	and.w	r6, r6, #2097152	; 0x200000
 800260c:	433e      	orrs	r6, r7
 800260e:	3401      	adds	r4, #1
 8002610:	f842 6021 	str.w	r6, [r2, r1, lsl #2]
 8002614:	b2e4      	uxtb	r4, r4
 8002616:	e7d1      	b.n	80025bc <ADC001_lInit+0x20>
 8002618:	f890 2034 	ldrb.w	r2, [r0, #52]	; 0x34
 800261c:	f8d3 1280 	ldr.w	r1, [r3, #640]	; 0x280
 8002620:	0612      	lsls	r2, r2, #24
 8002622:	f021 7180 	bic.w	r1, r1, #16777216	; 0x1000000
 8002626:	f002 7280 	and.w	r2, r2, #16777216	; 0x1000000
 800262a:	430a      	orrs	r2, r1
 800262c:	f8c3 2280 	str.w	r2, [r3, #640]	; 0x280
 8002630:	f8d3 2280 	ldr.w	r2, [r3, #640]	; 0x280
 8002634:	f890 1038 	ldrb.w	r1, [r0, #56]	; 0x38
 8002638:	f022 4200 	bic.w	r2, r2, #2147483648	; 0x80000000
 800263c:	ea42 71c1 	orr.w	r1, r2, r1, lsl #31
 8002640:	f8c3 1280 	str.w	r1, [r3, #640]	; 0x280
 8002644:	7882      	ldrb	r2, [r0, #2]
 8002646:	f8c3 2180 	str.w	r2, [r3, #384]	; 0x180
 800264a:	78c1      	ldrb	r1, [r0, #3]
 800264c:	f8c3 1184 	str.w	r1, [r3, #388]	; 0x184
 8002650:	7902      	ldrb	r2, [r0, #4]
 8002652:	f8c3 2188 	str.w	r2, [r3, #392]	; 0x188
 8002656:	7941      	ldrb	r1, [r0, #5]
 8002658:	f8c3 118c 	str.w	r1, [r3, #396]	; 0x18c
 800265c:	f8d3 2200 	ldr.w	r2, [r3, #512]	; 0x200
 8002660:	f890 1031 	ldrb.w	r1, [r0, #49]	; 0x31
 8002664:	f442 4200 	orr.w	r2, r2, #32768	; 0x8000
 8002668:	ea42 3241 	orr.w	r2, r2, r1, lsl #13
 800266c:	f8c3 2200 	str.w	r2, [r3, #512]	; 0x200
 8002670:	f8d3 2204 	ldr.w	r2, [r3, #516]	; 0x204
 8002674:	f890 1033 	ldrb.w	r1, [r0, #51]	; 0x33
 8002678:	430a      	orrs	r2, r1
 800267a:	f890 1032 	ldrb.w	r1, [r0, #50]	; 0x32
 800267e:	ea42 0281 	orr.w	r2, r2, r1, lsl #2
 8002682:	f890 1036 	ldrb.w	r1, [r0, #54]	; 0x36
 8002686:	ea42 1201 	orr.w	r2, r2, r1, lsl #4
 800268a:	f890 1039 	ldrb.w	r1, [r0, #57]	; 0x39
 800268e:	ea42 02c1 	orr.w	r2, r2, r1, lsl #3
 8002692:	f8c3 2204 	str.w	r2, [r3, #516]	; 0x204
 8002696:	2300      	movs	r3, #0
 8002698:	18c1      	adds	r1, r0, r3
 800269a:	f891 202a 	ldrb.w	r2, [r1, #42]	; 0x2a
 800269e:	2a01      	cmp	r2, #1
 80026a0:	d111      	bne.n	80026c6 <ADC001_lInit+0x12a>
 80026a2:	f85d 2023 	ldr.w	r2, [sp, r3, lsl #2]
 80026a6:	f890 1035 	ldrb.w	r1, [r0, #53]	; 0x35
 80026aa:	f890 602e 	ldrb.w	r6, [r0, #46]	; 0x2e
 80026ae:	f8d2 4084 	ldr.w	r4, [r2, #132]	; 0x84
 80026b2:	02c9      	lsls	r1, r1, #11
 80026b4:	ea41 6186 	orr.w	r1, r1, r6, lsl #26
 80026b8:	4321      	orrs	r1, r4
 80026ba:	f890 4030 	ldrb.w	r4, [r0, #48]	; 0x30
 80026be:	ea41 2104 	orr.w	r1, r1, r4, lsl #8
 80026c2:	f8c2 1084 	str.w	r1, [r2, #132]	; 0x84
 80026c6:	3301      	adds	r3, #1
 80026c8:	2b04      	cmp	r3, #4
 80026ca:	d1e5      	bne.n	8002698 <ADC001_lInit+0xfc>
 80026cc:	2001      	movs	r0, #1
 80026ce:	7128      	strb	r0, [r5, #4]
 80026d0:	b005      	add	sp, #20
 80026d2:	bdf0      	pop	{r4, r5, r6, r7, pc}
 80026d4:	20000010 	.word	0x20000010

080026d8 <ADC001_Init>:
 80026d8:	b508      	push	{r3, lr}
 80026da:	f7ff fd3f 	bl	800215c <ADCGLOB001_Init>
 80026de:	4802      	ldr	r0, [pc, #8]	; (80026e8 <ADC001_Init+0x10>)
 80026e0:	e8bd 4008 	ldmia.w	sp!, {r3, lr}
 80026e4:	f7ff bf5a 	b.w	800259c <ADC001_lInit>
 80026e8:	08002f4c 	.word	0x08002f4c

080026ec <ADC001_Deinit>:
 80026ec:	b57f      	push	{r0, r1, r2, r3, r4, r5, r6, lr}
 80026ee:	6c43      	ldr	r3, [r0, #68]	; 0x44
 80026f0:	6c81      	ldr	r1, [r0, #72]	; 0x48
 80026f2:	9300      	str	r3, [sp, #0]
 80026f4:	9101      	str	r1, [sp, #4]
 80026f6:	6d03      	ldr	r3, [r0, #80]	; 0x50
 80026f8:	6bc1      	ldr	r1, [r0, #60]	; 0x3c
 80026fa:	9303      	str	r3, [sp, #12]
 80026fc:	790b      	ldrb	r3, [r1, #4]
 80026fe:	6cc2      	ldr	r2, [r0, #76]	; 0x4c
 8002700:	2b01      	cmp	r3, #1
 8002702:	9202      	str	r2, [sp, #8]
 8002704:	6c02      	ldr	r2, [r0, #64]	; 0x40
 8002706:	d001      	beq.n	800270c <ADC001_Deinit+0x20>
 8002708:	2001      	movs	r0, #1
 800270a:	e033      	b.n	8002774 <ADC001_Deinit+0x88>
 800270c:	2300      	movs	r3, #0
 800270e:	7844      	ldrb	r4, [r0, #1]
 8002710:	429c      	cmp	r4, r3
 8002712:	d910      	bls.n	8002736 <ADC001_Deinit+0x4a>
 8002714:	4d18      	ldr	r5, [pc, #96]	; (8002778 <ADC001_Deinit+0x8c>)
 8002716:	f855 4023 	ldr.w	r4, [r5, r3, lsl #2]
 800271a:	7825      	ldrb	r5, [r4, #0]
 800271c:	7864      	ldrb	r4, [r4, #1]
 800271e:	ae04      	add	r6, sp, #16
 8002720:	eb06 0585 	add.w	r5, r6, r5, lsl #2
 8002724:	3480      	adds	r4, #128	; 0x80
 8002726:	f855 5c10 	ldr.w	r5, [r5, #-16]
 800272a:	2600      	movs	r6, #0
 800272c:	3301      	adds	r3, #1
 800272e:	f845 6024 	str.w	r6, [r5, r4, lsl #2]
 8002732:	b2db      	uxtb	r3, r3
 8002734:	e7eb      	b.n	800270e <ADC001_Deinit+0x22>
 8002736:	4c11      	ldr	r4, [pc, #68]	; (800277c <ADC001_Deinit+0x90>)
 8002738:	2300      	movs	r3, #0
 800273a:	f8c2 3280 	str.w	r3, [r2, #640]	; 0x280
 800273e:	f8c2 3180 	str.w	r3, [r2, #384]	; 0x180
 8002742:	f8c2 3184 	str.w	r3, [r2, #388]	; 0x184
 8002746:	f8c2 3188 	str.w	r3, [r2, #392]	; 0x188
 800274a:	f8c2 318c 	str.w	r3, [r2, #396]	; 0x18c
 800274e:	f8c2 4200 	str.w	r4, [r2, #512]	; 0x200
 8002752:	f8c2 3204 	str.w	r3, [r2, #516]	; 0x204
 8002756:	18c2      	adds	r2, r0, r3
 8002758:	f892 202a 	ldrb.w	r2, [r2, #42]	; 0x2a
 800275c:	2a01      	cmp	r2, #1
 800275e:	d104      	bne.n	800276a <ADC001_Deinit+0x7e>
 8002760:	f85d 2023 	ldr.w	r2, [sp, r3, lsl #2]
 8002764:	2400      	movs	r4, #0
 8002766:	f8c2 4084 	str.w	r4, [r2, #132]	; 0x84
 800276a:	3301      	adds	r3, #1
 800276c:	2b04      	cmp	r3, #4
 800276e:	d1f2      	bne.n	8002756 <ADC001_Deinit+0x6a>
 8002770:	2000      	movs	r0, #0
 8002772:	7108      	strb	r0, [r1, #4]
 8002774:	b004      	add	sp, #16
 8002776:	bd70      	pop	{r4, r5, r6, pc}
 8002778:	20000010 	.word	0x20000010
 800277c:	00808000 	.word	0x00808000

08002780 <ADC001_SelectInputClass>:
 8002780:	b530      	push	{r4, r5, lr}
 8002782:	6c43      	ldr	r3, [r0, #68]	; 0x44
 8002784:	6c82      	ldr	r2, [r0, #72]	; 0x48
 8002786:	b085      	sub	sp, #20
 8002788:	9300      	str	r3, [sp, #0]
 800278a:	6cc3      	ldr	r3, [r0, #76]	; 0x4c
 800278c:	9201      	str	r2, [sp, #4]
 800278e:	9302      	str	r3, [sp, #8]
 8002790:	6d02      	ldr	r2, [r0, #80]	; 0x50
 8002792:	6bc3      	ldr	r3, [r0, #60]	; 0x3c
 8002794:	9203      	str	r2, [sp, #12]
 8002796:	791a      	ldrb	r2, [r3, #4]
 8002798:	2a01      	cmp	r2, #1
 800279a:	d11f      	bne.n	80027dc <ADC001_SelectInputClass+0x5c>
 800279c:	1e8b      	subs	r3, r1, #2
 800279e:	2b01      	cmp	r3, #1
 80027a0:	d901      	bls.n	80027a6 <ADC001_SelectInputClass+0x26>
 80027a2:	2002      	movs	r0, #2
 80027a4:	e01b      	b.n	80027de <ADC001_SelectInputClass+0x5e>
 80027a6:	2300      	movs	r3, #0
 80027a8:	7842      	ldrb	r2, [r0, #1]
 80027aa:	429a      	cmp	r2, r3
 80027ac:	d914      	bls.n	80027d8 <ADC001_SelectInputClass+0x58>
 80027ae:	4c0d      	ldr	r4, [pc, #52]	; (80027e4 <ADC001_SelectInputClass+0x64>)
 80027b0:	f854 4023 	ldr.w	r4, [r4, r3, lsl #2]
 80027b4:	7822      	ldrb	r2, [r4, #0]
 80027b6:	7864      	ldrb	r4, [r4, #1]
 80027b8:	ad04      	add	r5, sp, #16
 80027ba:	eb05 0282 	add.w	r2, r5, r2, lsl #2
 80027be:	3480      	adds	r4, #128	; 0x80
 80027c0:	f852 2c10 	ldr.w	r2, [r2, #-16]
 80027c4:	f852 5024 	ldr.w	r5, [r2, r4, lsl #2]
 80027c8:	f025 0503 	bic.w	r5, r5, #3
 80027cc:	430d      	orrs	r5, r1
 80027ce:	3301      	adds	r3, #1
 80027d0:	f842 5024 	str.w	r5, [r2, r4, lsl #2]
 80027d4:	b2db      	uxtb	r3, r3
 80027d6:	e7e7      	b.n	80027a8 <ADC001_SelectInputClass+0x28>
 80027d8:	2000      	movs	r0, #0
 80027da:	e000      	b.n	80027de <ADC001_SelectInputClass+0x5e>
 80027dc:	2001      	movs	r0, #1
 80027de:	b005      	add	sp, #20
 80027e0:	bd30      	pop	{r4, r5, pc}
 80027e2:	bf00      	nop
 80027e4:	20000010 	.word	0x20000010

080027e8 <ADC001_EnableResultEvt>:
 80027e8:	6bc2      	ldr	r2, [r0, #60]	; 0x3c
 80027ea:	6c03      	ldr	r3, [r0, #64]	; 0x40
 80027ec:	7910      	ldrb	r0, [r2, #4]
 80027ee:	b138      	cbz	r0, 8002800 <ADC001_EnableResultEvt+0x18>
 80027f0:	f8d3 1280 	ldr.w	r1, [r3, #640]	; 0x280
 80027f4:	f041 4200 	orr.w	r2, r1, #2147483648	; 0x80000000
 80027f8:	f8c3 2280 	str.w	r2, [r3, #640]	; 0x280
 80027fc:	2000      	movs	r0, #0
 80027fe:	4770      	bx	lr
 8002800:	2001      	movs	r0, #1
 8002802:	4770      	bx	lr

08002804 <ADC001_DisableResultEvt>:
 8002804:	6bc2      	ldr	r2, [r0, #60]	; 0x3c
 8002806:	6c03      	ldr	r3, [r0, #64]	; 0x40
 8002808:	7910      	ldrb	r0, [r2, #4]
 800280a:	b138      	cbz	r0, 800281c <ADC001_DisableResultEvt+0x18>
 800280c:	f8d3 1280 	ldr.w	r1, [r3, #640]	; 0x280
 8002810:	f021 4200 	bic.w	r2, r1, #2147483648	; 0x80000000
 8002814:	f8c3 2280 	str.w	r2, [r3, #640]	; 0x280
 8002818:	2000      	movs	r0, #0
 800281a:	4770      	bx	lr
 800281c:	2001      	movs	r0, #1
 800281e:	4770      	bx	lr

08002820 <ADC001_GetResult>:
 8002820:	6bc2      	ldr	r2, [r0, #60]	; 0x3c
 8002822:	6c03      	ldr	r3, [r0, #64]	; 0x40
 8002824:	7910      	ldrb	r0, [r2, #4]
 8002826:	2801      	cmp	r0, #1
 8002828:	d10d      	bne.n	8002846 <ADC001_GetResult+0x26>
 800282a:	b171      	cbz	r1, 800284a <ADC001_GetResult+0x2a>
 800282c:	f8d3 3300 	ldr.w	r3, [r3, #768]	; 0x300
 8002830:	2b00      	cmp	r3, #0
 8002832:	da0c      	bge.n	800284e <ADC001_GetResult+0x2e>
 8002834:	f3c3 5004 	ubfx	r0, r3, #20, #5
 8002838:	f3c3 4203 	ubfx	r2, r3, #16, #4
 800283c:	7048      	strb	r0, [r1, #1]
 800283e:	700a      	strb	r2, [r1, #0]
 8002840:	804b      	strh	r3, [r1, #2]
 8002842:	2000      	movs	r0, #0
 8002844:	4770      	bx	lr
 8002846:	2001      	movs	r0, #1
 8002848:	4770      	bx	lr
 800284a:	2002      	movs	r0, #2
 800284c:	4770      	bx	lr
 800284e:	2003      	movs	r0, #3
 8002850:	4770      	bx	lr

08002852 <ADC001_GetFastResult>:
 8002852:	6c03      	ldr	r3, [r0, #64]	; 0x40
 8002854:	f8d3 0300 	ldr.w	r0, [r3, #768]	; 0x300
 8002858:	b280      	uxth	r0, r0
 800285a:	4770      	bx	lr

0800285c <ADC001_GetResultEvtFlag>:
 800285c:	6bc2      	ldr	r2, [r0, #60]	; 0x3c
 800285e:	6c03      	ldr	r3, [r0, #64]	; 0x40
 8002860:	7910      	ldrb	r0, [r2, #4]
 8002862:	b138      	cbz	r0, 8002874 <ADC001_GetResultEvtFlag+0x18>
 8002864:	b141      	cbz	r1, 8002878 <ADC001_GetResultEvtFlag+0x1c>
 8002866:	f8d3 30e0 	ldr.w	r3, [r3, #224]	; 0xe0
 800286a:	f3c3 2200 	ubfx	r2, r3, #8, #1
 800286e:	700a      	strb	r2, [r1, #0]
 8002870:	2000      	movs	r0, #0
 8002872:	4770      	bx	lr
 8002874:	2001      	movs	r0, #1
 8002876:	4770      	bx	lr
 8002878:	2002      	movs	r0, #2
 800287a:	4770      	bx	lr

0800287c <ADC001_SetResultEvtFlag>:
 800287c:	6bc2      	ldr	r2, [r0, #60]	; 0x3c
 800287e:	6c03      	ldr	r3, [r0, #64]	; 0x40
 8002880:	7910      	ldrb	r0, [r2, #4]
 8002882:	b138      	cbz	r0, 8002894 <ADC001_SetResultEvtFlag+0x18>
 8002884:	f8d3 10e0 	ldr.w	r1, [r3, #224]	; 0xe0
 8002888:	f441 7280 	orr.w	r2, r1, #256	; 0x100
 800288c:	f8c3 20e0 	str.w	r2, [r3, #224]	; 0xe0
 8002890:	2000      	movs	r0, #0
 8002892:	4770      	bx	lr
 8002894:	2001      	movs	r0, #1
 8002896:	4770      	bx	lr

08002898 <ADC001_ClearResultEvtFlag>:
 8002898:	6bc2      	ldr	r2, [r0, #60]	; 0x3c
 800289a:	6c03      	ldr	r3, [r0, #64]	; 0x40
 800289c:	7910      	ldrb	r0, [r2, #4]
 800289e:	b138      	cbz	r0, 80028b0 <ADC001_ClearResultEvtFlag+0x18>
 80028a0:	f8d3 10e0 	ldr.w	r1, [r3, #224]	; 0xe0
 80028a4:	f041 7280 	orr.w	r2, r1, #16777216	; 0x1000000
 80028a8:	f8c3 20e0 	str.w	r2, [r3, #224]	; 0xe0
 80028ac:	2000      	movs	r0, #0
 80028ae:	4770      	bx	lr
 80028b0:	2001      	movs	r0, #1
 80028b2:	4770      	bx	lr

080028b4 <ADC001_GetChannelEvtFlag>:
 80028b4:	b51f      	push	{r0, r1, r2, r3, r4, lr}
 80028b6:	6c43      	ldr	r3, [r0, #68]	; 0x44
 80028b8:	9300      	str	r3, [sp, #0]
 80028ba:	6c83      	ldr	r3, [r0, #72]	; 0x48
 80028bc:	9301      	str	r3, [sp, #4]
 80028be:	6cc3      	ldr	r3, [r0, #76]	; 0x4c
 80028c0:	9302      	str	r3, [sp, #8]
 80028c2:	6d03      	ldr	r3, [r0, #80]	; 0x50
 80028c4:	9303      	str	r3, [sp, #12]
 80028c6:	6bc3      	ldr	r3, [r0, #60]	; 0x3c
 80028c8:	791b      	ldrb	r3, [r3, #4]
 80028ca:	2b01      	cmp	r3, #1
 80028cc:	d121      	bne.n	8002912 <ADC001_GetChannelEvtFlag+0x5e>
 80028ce:	b312      	cbz	r2, 8002916 <ADC001_GetChannelEvtFlag+0x62>
 80028d0:	b309      	cbz	r1, 8002916 <ADC001_GetChannelEvtFlag+0x62>
 80028d2:	7814      	ldrb	r4, [r2, #0]
 80028d4:	7853      	ldrb	r3, [r2, #1]
 80028d6:	2c03      	cmp	r4, #3
 80028d8:	d81d      	bhi.n	8002916 <ADC001_GetChannelEvtFlag+0x62>
 80028da:	2b07      	cmp	r3, #7
 80028dc:	d81b      	bhi.n	8002916 <ADC001_GetChannelEvtFlag+0x62>
 80028de:	1902      	adds	r2, r0, r4
 80028e0:	f892 202a 	ldrb.w	r2, [r2, #42]	; 0x2a
 80028e4:	2a01      	cmp	r2, #1
 80028e6:	d116      	bne.n	8002916 <ADC001_GetChannelEvtFlag+0x62>
 80028e8:	eb00 00c4 	add.w	r0, r0, r4, lsl #3
 80028ec:	18c2      	adds	r2, r0, r3
 80028ee:	7a92      	ldrb	r2, [r2, #10]
 80028f0:	2a01      	cmp	r2, #1
 80028f2:	d110      	bne.n	8002916 <ADC001_GetChannelEvtFlag+0x62>
 80028f4:	a804      	add	r0, sp, #16
 80028f6:	eb00 0484 	add.w	r4, r0, r4, lsl #2
 80028fa:	fa02 f203 	lsl.w	r2, r2, r3
 80028fe:	f854 0c10 	ldr.w	r0, [r4, #-16]
 8002902:	f8d0 0180 	ldr.w	r0, [r0, #384]	; 0x180
 8002906:	4002      	ands	r2, r0
 8002908:	fa22 f303 	lsr.w	r3, r2, r3
 800290c:	700b      	strb	r3, [r1, #0]
 800290e:	2000      	movs	r0, #0
 8002910:	e002      	b.n	8002918 <ADC001_GetChannelEvtFlag+0x64>
 8002912:	2001      	movs	r0, #1
 8002914:	e000      	b.n	8002918 <ADC001_GetChannelEvtFlag+0x64>
 8002916:	2002      	movs	r0, #2
 8002918:	b004      	add	sp, #16
 800291a:	bd10      	pop	{r4, pc}

0800291c <ADC001_SetChannelEvtFlag>:
 800291c:	b084      	sub	sp, #16
 800291e:	6c43      	ldr	r3, [r0, #68]	; 0x44
 8002920:	6c82      	ldr	r2, [r0, #72]	; 0x48
 8002922:	9300      	str	r3, [sp, #0]
 8002924:	6cc3      	ldr	r3, [r0, #76]	; 0x4c
 8002926:	9201      	str	r2, [sp, #4]
 8002928:	9302      	str	r3, [sp, #8]
 800292a:	6d02      	ldr	r2, [r0, #80]	; 0x50
 800292c:	6bc3      	ldr	r3, [r0, #60]	; 0x3c
 800292e:	9203      	str	r2, [sp, #12]
 8002930:	791a      	ldrb	r2, [r3, #4]
 8002932:	2a01      	cmp	r2, #1
 8002934:	d11f      	bne.n	8002976 <ADC001_SetChannelEvtFlag+0x5a>
 8002936:	b301      	cbz	r1, 800297a <ADC001_SetChannelEvtFlag+0x5e>
 8002938:	780b      	ldrb	r3, [r1, #0]
 800293a:	784a      	ldrb	r2, [r1, #1]
 800293c:	2b03      	cmp	r3, #3
 800293e:	d81c      	bhi.n	800297a <ADC001_SetChannelEvtFlag+0x5e>
 8002940:	2a07      	cmp	r2, #7
 8002942:	d81a      	bhi.n	800297a <ADC001_SetChannelEvtFlag+0x5e>
 8002944:	18c1      	adds	r1, r0, r3
 8002946:	f891 102a 	ldrb.w	r1, [r1, #42]	; 0x2a
 800294a:	2901      	cmp	r1, #1
 800294c:	d115      	bne.n	800297a <ADC001_SetChannelEvtFlag+0x5e>
 800294e:	eb00 00c3 	add.w	r0, r0, r3, lsl #3
 8002952:	1881      	adds	r1, r0, r2
 8002954:	7a89      	ldrb	r1, [r1, #10]
 8002956:	2901      	cmp	r1, #1
 8002958:	d10f      	bne.n	800297a <ADC001_SetChannelEvtFlag+0x5e>
 800295a:	a804      	add	r0, sp, #16
 800295c:	eb00 0383 	add.w	r3, r0, r3, lsl #2
 8002960:	fa01 f202 	lsl.w	r2, r1, r2
 8002964:	f853 3c10 	ldr.w	r3, [r3, #-16]
 8002968:	f8d3 0180 	ldr.w	r0, [r3, #384]	; 0x180
 800296c:	4302      	orrs	r2, r0
 800296e:	f8c3 2180 	str.w	r2, [r3, #384]	; 0x180
 8002972:	2000      	movs	r0, #0
 8002974:	e002      	b.n	800297c <ADC001_SetChannelEvtFlag+0x60>
 8002976:	2001      	movs	r0, #1
 8002978:	e000      	b.n	800297c <ADC001_SetChannelEvtFlag+0x60>
 800297a:	2002      	movs	r0, #2
 800297c:	b004      	add	sp, #16
 800297e:	4770      	bx	lr

08002980 <ADC001_ClearChannelEvtFlag>:
 8002980:	b084      	sub	sp, #16
 8002982:	6c43      	ldr	r3, [r0, #68]	; 0x44
 8002984:	6c82      	ldr	r2, [r0, #72]	; 0x48
 8002986:	9300      	str	r3, [sp, #0]
 8002988:	6cc3      	ldr	r3, [r0, #76]	; 0x4c
 800298a:	9201      	str	r2, [sp, #4]
 800298c:	9302      	str	r3, [sp, #8]
 800298e:	6d02      	ldr	r2, [r0, #80]	; 0x50
 8002990:	6bc3      	ldr	r3, [r0, #60]	; 0x3c
 8002992:	9203      	str	r2, [sp, #12]
 8002994:	791a      	ldrb	r2, [r3, #4]
 8002996:	2a01      	cmp	r2, #1
 8002998:	d11f      	bne.n	80029da <ADC001_ClearChannelEvtFlag+0x5a>
 800299a:	b301      	cbz	r1, 80029de <ADC001_ClearChannelEvtFlag+0x5e>
 800299c:	780b      	ldrb	r3, [r1, #0]
 800299e:	784a      	ldrb	r2, [r1, #1]
 80029a0:	2b03      	cmp	r3, #3
 80029a2:	d81c      	bhi.n	80029de <ADC001_ClearChannelEvtFlag+0x5e>
 80029a4:	2a07      	cmp	r2, #7
 80029a6:	d81a      	bhi.n	80029de <ADC001_ClearChannelEvtFlag+0x5e>
 80029a8:	18c1      	adds	r1, r0, r3
 80029aa:	f891 102a 	ldrb.w	r1, [r1, #42]	; 0x2a
 80029ae:	2901      	cmp	r1, #1
 80029b0:	d115      	bne.n	80029de <ADC001_ClearChannelEvtFlag+0x5e>
 80029b2:	eb00 00c3 	add.w	r0, r0, r3, lsl #3
 80029b6:	1881      	adds	r1, r0, r2
 80029b8:	7a89      	ldrb	r1, [r1, #10]
 80029ba:	2901      	cmp	r1, #1
 80029bc:	d10f      	bne.n	80029de <ADC001_ClearChannelEvtFlag+0x5e>
 80029be:	a804      	add	r0, sp, #16
 80029c0:	eb00 0383 	add.w	r3, r0, r3, lsl #2
 80029c4:	fa01 f202 	lsl.w	r2, r1, r2
 80029c8:	f853 3c10 	ldr.w	r3, [r3, #-16]
 80029cc:	f8d3 0190 	ldr.w	r0, [r3, #400]	; 0x190
 80029d0:	4302      	orrs	r2, r0
 80029d2:	f8c3 2190 	str.w	r2, [r3, #400]	; 0x190
 80029d6:	2000      	movs	r0, #0
 80029d8:	e002      	b.n	80029e0 <ADC001_ClearChannelEvtFlag+0x60>
 80029da:	2001      	movs	r0, #1
 80029dc:	e000      	b.n	80029e0 <ADC001_ClearChannelEvtFlag+0x60>
 80029de:	2002      	movs	r0, #2
 80029e0:	b004      	add	sp, #16
 80029e2:	4770      	bx	lr

080029e4 <ADC001_EnableBackGroundEvent>:
 80029e4:	6bc2      	ldr	r2, [r0, #60]	; 0x3c
 80029e6:	6c03      	ldr	r3, [r0, #64]	; 0x40
 80029e8:	7910      	ldrb	r0, [r2, #4]
 80029ea:	b138      	cbz	r0, 80029fc <ADC001_EnableBackGroundEvent+0x18>
 80029ec:	f8d3 1204 	ldr.w	r1, [r3, #516]	; 0x204
 80029f0:	f041 0208 	orr.w	r2, r1, #8
 80029f4:	f8c3 2204 	str.w	r2, [r3, #516]	; 0x204
 80029f8:	2000      	movs	r0, #0
 80029fa:	4770      	bx	lr
 80029fc:	2001      	movs	r0, #1
 80029fe:	4770      	bx	lr

08002a00 <ADC001_DisableBackGroundEvent>:
 8002a00:	6bc2      	ldr	r2, [r0, #60]	; 0x3c
 8002a02:	6c03      	ldr	r3, [r0, #64]	; 0x40
 8002a04:	7910      	ldrb	r0, [r2, #4]
 8002a06:	b138      	cbz	r0, 8002a18 <ADC001_DisableBackGroundEvent+0x18>
 8002a08:	f8d3 1204 	ldr.w	r1, [r3, #516]	; 0x204
 8002a0c:	f021 0208 	bic.w	r2, r1, #8
 8002a10:	f8c3 2204 	str.w	r2, [r3, #516]	; 0x204
 8002a14:	2000      	movs	r0, #0
 8002a16:	4770      	bx	lr
 8002a18:	2001      	movs	r0, #1
 8002a1a:	4770      	bx	lr

08002a1c <ADC001_GetBackGroundEvtFlag>:
 8002a1c:	6bc2      	ldr	r2, [r0, #60]	; 0x3c
 8002a1e:	6c03      	ldr	r3, [r0, #64]	; 0x40
 8002a20:	7910      	ldrb	r0, [r2, #4]
 8002a22:	2801      	cmp	r0, #1
 8002a24:	d107      	bne.n	8002a36 <ADC001_GetBackGroundEvtFlag+0x1a>
 8002a26:	b141      	cbz	r1, 8002a3a <ADC001_GetBackGroundEvtFlag+0x1e>
 8002a28:	f8d3 30e0 	ldr.w	r3, [r3, #224]	; 0xe0
 8002a2c:	f003 0201 	and.w	r2, r3, #1
 8002a30:	700a      	strb	r2, [r1, #0]
 8002a32:	2000      	movs	r0, #0
 8002a34:	4770      	bx	lr
 8002a36:	2001      	movs	r0, #1
 8002a38:	4770      	bx	lr
 8002a3a:	2002      	movs	r0, #2
 8002a3c:	4770      	bx	lr

08002a3e <ADC001_SetBackGroundEvtFlag>:
 8002a3e:	6bc2      	ldr	r2, [r0, #60]	; 0x3c
 8002a40:	6c03      	ldr	r3, [r0, #64]	; 0x40
 8002a42:	7910      	ldrb	r0, [r2, #4]
 8002a44:	b138      	cbz	r0, 8002a56 <ADC001_SetBackGroundEvtFlag+0x18>
 8002a46:	f8d3 10e0 	ldr.w	r1, [r3, #224]	; 0xe0
 8002a4a:	f041 0201 	orr.w	r2, r1, #1
 8002a4e:	f8c3 20e0 	str.w	r2, [r3, #224]	; 0xe0
 8002a52:	2000      	movs	r0, #0
 8002a54:	4770      	bx	lr
 8002a56:	2001      	movs	r0, #1
 8002a58:	4770      	bx	lr

08002a5a <ADC001_ClearBackGroundEvtFlag>:
 8002a5a:	6bc2      	ldr	r2, [r0, #60]	; 0x3c
 8002a5c:	6c03      	ldr	r3, [r0, #64]	; 0x40
 8002a5e:	7910      	ldrb	r0, [r2, #4]
 8002a60:	b138      	cbz	r0, 8002a72 <ADC001_ClearBackGroundEvtFlag+0x18>
 8002a62:	f8d3 10e0 	ldr.w	r1, [r3, #224]	; 0xe0
 8002a66:	f441 3280 	orr.w	r2, r1, #65536	; 0x10000
 8002a6a:	f8c3 20e0 	str.w	r2, [r3, #224]	; 0xe0
 8002a6e:	2000      	movs	r0, #0
 8002a70:	4770      	bx	lr
 8002a72:	2001      	movs	r0, #1
 8002a74:	4770      	bx	lr

08002a76 <ADC001_ClearPendingBits>:
 8002a76:	6bc2      	ldr	r2, [r0, #60]	; 0x3c
 8002a78:	6c03      	ldr	r3, [r0, #64]	; 0x40
 8002a7a:	7910      	ldrb	r0, [r2, #4]
 8002a7c:	2801      	cmp	r0, #1
 8002a7e:	d107      	bne.n	8002a90 <ADC001_ClearPendingBits+0x1a>
 8002a80:	f8d3 1204 	ldr.w	r1, [r3, #516]	; 0x204
 8002a84:	f441 7280 	orr.w	r2, r1, #256	; 0x100
 8002a88:	f8c3 2204 	str.w	r2, [r3, #516]	; 0x204
 8002a8c:	2000      	movs	r0, #0
 8002a8e:	4770      	bx	lr
 8002a90:	2001      	movs	r0, #1
 8002a92:	4770      	bx	lr

08002a94 <ADC001_GenerateLoadEvent>:
 8002a94:	6bc2      	ldr	r2, [r0, #60]	; 0x3c
 8002a96:	6c03      	ldr	r3, [r0, #64]	; 0x40
 8002a98:	7910      	ldrb	r0, [r2, #4]
 8002a9a:	2801      	cmp	r0, #1
 8002a9c:	d107      	bne.n	8002aae <ADC001_GenerateLoadEvent+0x1a>
 8002a9e:	f8d3 1204 	ldr.w	r1, [r3, #516]	; 0x204
 8002aa2:	f441 7200 	orr.w	r2, r1, #512	; 0x200
 8002aa6:	f8c3 2204 	str.w	r2, [r3, #516]	; 0x204
 8002aaa:	2000      	movs	r0, #0
 8002aac:	4770      	bx	lr
 8002aae:	2001      	movs	r0, #1
 8002ab0:	4770      	bx	lr

08002ab2 <ADC001_EnableGate>:
 8002ab2:	6bc2      	ldr	r2, [r0, #60]	; 0x3c
 8002ab4:	6c03      	ldr	r3, [r0, #64]	; 0x40
 8002ab6:	7910      	ldrb	r0, [r2, #4]
 8002ab8:	2801      	cmp	r0, #1
 8002aba:	d10a      	bne.n	8002ad2 <ADC001_EnableGate+0x20>
 8002abc:	2903      	cmp	r1, #3
 8002abe:	d80a      	bhi.n	8002ad6 <ADC001_EnableGate+0x24>
 8002ac0:	f8d3 2204 	ldr.w	r2, [r3, #516]	; 0x204
 8002ac4:	f022 0003 	bic.w	r0, r2, #3
 8002ac8:	4301      	orrs	r1, r0
 8002aca:	f8c3 1204 	str.w	r1, [r3, #516]	; 0x204
 8002ace:	2000      	movs	r0, #0
 8002ad0:	4770      	bx	lr
 8002ad2:	2001      	movs	r0, #1
 8002ad4:	4770      	bx	lr
 8002ad6:	2002      	movs	r0, #2
 8002ad8:	4770      	bx	lr

08002ada <ADC001_GetGateLevel>:
 8002ada:	6bc2      	ldr	r2, [r0, #60]	; 0x3c
 8002adc:	6c03      	ldr	r3, [r0, #64]	; 0x40
 8002ade:	7910      	ldrb	r0, [r2, #4]
 8002ae0:	2801      	cmp	r0, #1
 8002ae2:	d107      	bne.n	8002af4 <ADC001_GetGateLevel+0x1a>
 8002ae4:	b141      	cbz	r1, 8002af8 <ADC001_GetGateLevel+0x1e>
 8002ae6:	f8d3 3204 	ldr.w	r3, [r3, #516]	; 0x204
 8002aea:	f3c3 12c0 	ubfx	r2, r3, #7, #1
 8002aee:	700a      	strb	r2, [r1, #0]
 8002af0:	2000      	movs	r0, #0
 8002af2:	4770      	bx	lr
 8002af4:	2001      	movs	r0, #1
 8002af6:	4770      	bx	lr
 8002af8:	2002      	movs	r0, #2
 8002afa:	4770      	bx	lr

08002afc <ADC001_SetExternalTriggerMode>:
 8002afc:	6bc2      	ldr	r2, [r0, #60]	; 0x3c
 8002afe:	6c03      	ldr	r3, [r0, #64]	; 0x40
 8002b00:	7910      	ldrb	r0, [r2, #4]
 8002b02:	2801      	cmp	r0, #1
 8002b04:	d117      	bne.n	8002b36 <ADC001_SetExternalTriggerMode+0x3a>
 8002b06:	2903      	cmp	r1, #3
 8002b08:	d817      	bhi.n	8002b3a <ADC001_SetExternalTriggerMode+0x3e>
 8002b0a:	f8d3 2204 	ldr.w	r2, [r3, #516]	; 0x204
 8002b0e:	b911      	cbnz	r1, 8002b16 <ADC001_SetExternalTriggerMode+0x1a>
 8002b10:	f022 0004 	bic.w	r0, r2, #4
 8002b14:	e001      	b.n	8002b1a <ADC001_SetExternalTriggerMode+0x1e>
 8002b16:	f042 0004 	orr.w	r0, r2, #4
 8002b1a:	f8c3 0204 	str.w	r0, [r3, #516]	; 0x204
 8002b1e:	f8d3 2200 	ldr.w	r2, [r3, #512]	; 0x200
 8002b22:	f422 40c0 	bic.w	r0, r2, #24576	; 0x6000
 8002b26:	f440 4200 	orr.w	r2, r0, #32768	; 0x8000
 8002b2a:	ea42 3141 	orr.w	r1, r2, r1, lsl #13
 8002b2e:	f8c3 1200 	str.w	r1, [r3, #512]	; 0x200
 8002b32:	2000      	movs	r0, #0
 8002b34:	4770      	bx	lr
 8002b36:	2001      	movs	r0, #1
 8002b38:	4770      	bx	lr
 8002b3a:	2002      	movs	r0, #2
 8002b3c:	4770      	bx	lr

08002b3e <ADC001_EnableExternalTrigger>:
 8002b3e:	6bc2      	ldr	r2, [r0, #60]	; 0x3c
 8002b40:	6c03      	ldr	r3, [r0, #64]	; 0x40
 8002b42:	7910      	ldrb	r0, [r2, #4]
 8002b44:	2801      	cmp	r0, #1
 8002b46:	d107      	bne.n	8002b58 <ADC001_EnableExternalTrigger+0x1a>
 8002b48:	f8d3 1204 	ldr.w	r1, [r3, #516]	; 0x204
 8002b4c:	f041 0204 	orr.w	r2, r1, #4
 8002b50:	f8c3 2204 	str.w	r2, [r3, #516]	; 0x204
 8002b54:	2000      	movs	r0, #0
 8002b56:	4770      	bx	lr
 8002b58:	2001      	movs	r0, #1
 8002b5a:	4770      	bx	lr

08002b5c <ADC001_DisableExternalTrigger>:
 8002b5c:	6bc2      	ldr	r2, [r0, #60]	; 0x3c
 8002b5e:	6c03      	ldr	r3, [r0, #64]	; 0x40
 8002b60:	7910      	ldrb	r0, [r2, #4]
 8002b62:	2801      	cmp	r0, #1
 8002b64:	d107      	bne.n	8002b76 <ADC001_DisableExternalTrigger+0x1a>
 8002b66:	f8d3 1204 	ldr.w	r1, [r3, #516]	; 0x204
 8002b6a:	f021 0204 	bic.w	r2, r1, #4
 8002b6e:	f8c3 2204 	str.w	r2, [r3, #516]	; 0x204
 8002b72:	2000      	movs	r0, #0
 8002b74:	4770      	bx	lr
 8002b76:	2001      	movs	r0, #1
 8002b78:	4770      	bx	lr

08002b7a <ADC001_EnableArbitrationSlot>:
 8002b7a:	b084      	sub	sp, #16
 8002b7c:	6c81      	ldr	r1, [r0, #72]	; 0x48
 8002b7e:	6cc2      	ldr	r2, [r0, #76]	; 0x4c
 8002b80:	9101      	str	r1, [sp, #4]
 8002b82:	6bc1      	ldr	r1, [r0, #60]	; 0x3c
 8002b84:	6c43      	ldr	r3, [r0, #68]	; 0x44
 8002b86:	9202      	str	r2, [sp, #8]
 8002b88:	790a      	ldrb	r2, [r1, #4]
 8002b8a:	9300      	str	r3, [sp, #0]
 8002b8c:	6d03      	ldr	r3, [r0, #80]	; 0x50
 8002b8e:	2a01      	cmp	r2, #1
 8002b90:	9303      	str	r3, [sp, #12]
 8002b92:	d112      	bne.n	8002bba <ADC001_EnableArbitrationSlot+0x40>
 8002b94:	2300      	movs	r3, #0
 8002b96:	18c1      	adds	r1, r0, r3
 8002b98:	f891 202a 	ldrb.w	r2, [r1, #42]	; 0x2a
 8002b9c:	2a01      	cmp	r2, #1
 8002b9e:	d107      	bne.n	8002bb0 <ADC001_EnableArbitrationSlot+0x36>
 8002ba0:	f85d 2023 	ldr.w	r2, [sp, r3, lsl #2]
 8002ba4:	f8d2 1084 	ldr.w	r1, [r2, #132]	; 0x84
 8002ba8:	f041 6180 	orr.w	r1, r1, #67108864	; 0x4000000
 8002bac:	f8c2 1084 	str.w	r1, [r2, #132]	; 0x84
 8002bb0:	3301      	adds	r3, #1
 8002bb2:	2b04      	cmp	r3, #4
 8002bb4:	d1ef      	bne.n	8002b96 <ADC001_EnableArbitrationSlot+0x1c>
 8002bb6:	2000      	movs	r0, #0
 8002bb8:	e000      	b.n	8002bbc <ADC001_EnableArbitrationSlot+0x42>
 8002bba:	2001      	movs	r0, #1
 8002bbc:	b004      	add	sp, #16
 8002bbe:	4770      	bx	lr

08002bc0 <ADC001_DisableArbitrationSlot>:
 8002bc0:	b084      	sub	sp, #16
 8002bc2:	6c81      	ldr	r1, [r0, #72]	; 0x48
 8002bc4:	6cc2      	ldr	r2, [r0, #76]	; 0x4c
 8002bc6:	9101      	str	r1, [sp, #4]
 8002bc8:	6bc1      	ldr	r1, [r0, #60]	; 0x3c
 8002bca:	6c43      	ldr	r3, [r0, #68]	; 0x44
 8002bcc:	9202      	str	r2, [sp, #8]
 8002bce:	790a      	ldrb	r2, [r1, #4]
 8002bd0:	9300      	str	r3, [sp, #0]
 8002bd2:	6d03      	ldr	r3, [r0, #80]	; 0x50
 8002bd4:	2a01      	cmp	r2, #1
 8002bd6:	9303      	str	r3, [sp, #12]
 8002bd8:	d112      	bne.n	8002c00 <ADC001_DisableArbitrationSlot+0x40>
 8002bda:	2300      	movs	r3, #0
 8002bdc:	18c1      	adds	r1, r0, r3
 8002bde:	f891 202a 	ldrb.w	r2, [r1, #42]	; 0x2a
 8002be2:	2a01      	cmp	r2, #1
 8002be4:	d107      	bne.n	8002bf6 <ADC001_DisableArbitrationSlot+0x36>
 8002be6:	f85d 2023 	ldr.w	r2, [sp, r3, lsl #2]
 8002bea:	f8d2 1084 	ldr.w	r1, [r2, #132]	; 0x84
 8002bee:	f021 6180 	bic.w	r1, r1, #67108864	; 0x4000000
 8002bf2:	f8c2 1084 	str.w	r1, [r2, #132]	; 0x84
 8002bf6:	3301      	adds	r3, #1
 8002bf8:	2b04      	cmp	r3, #4
 8002bfa:	d1ef      	bne.n	8002bdc <ADC001_DisableArbitrationSlot+0x1c>
 8002bfc:	2000      	movs	r0, #0
 8002bfe:	e000      	b.n	8002c02 <ADC001_DisableArbitrationSlot+0x42>
 8002c00:	2001      	movs	r0, #1
 8002c02:	b004      	add	sp, #16
 8002c04:	4770      	bx	lr

08002c06 <ADC001_SetLoadEventMode>:
 8002c06:	6bc2      	ldr	r2, [r0, #60]	; 0x3c
 8002c08:	6c03      	ldr	r3, [r0, #64]	; 0x40
 8002c0a:	7910      	ldrb	r0, [r2, #4]
 8002c0c:	2801      	cmp	r0, #1
 8002c0e:	d10f      	bne.n	8002c30 <ADC001_SetLoadEventMode+0x2a>
 8002c10:	b921      	cbnz	r1, 8002c1c <ADC001_SetLoadEventMode+0x16>
 8002c12:	f8d3 0204 	ldr.w	r0, [r3, #516]	; 0x204
 8002c16:	f020 0220 	bic.w	r2, r0, #32
 8002c1a:	e005      	b.n	8002c28 <ADC001_SetLoadEventMode+0x22>
 8002c1c:	2901      	cmp	r1, #1
 8002c1e:	d109      	bne.n	8002c34 <ADC001_SetLoadEventMode+0x2e>
 8002c20:	f8d3 1204 	ldr.w	r1, [r3, #516]	; 0x204
 8002c24:	f041 0220 	orr.w	r2, r1, #32
 8002c28:	f8c3 2204 	str.w	r2, [r3, #516]	; 0x204
 8002c2c:	2000      	movs	r0, #0
 8002c2e:	4770      	bx	lr
 8002c30:	2001      	movs	r0, #1
 8002c32:	4770      	bx	lr
 8002c34:	2002      	movs	r0, #2
 8002c36:	4770      	bx	lr

08002c38 <ADC001_SetPendingChannel>:
 8002c38:	6bc3      	ldr	r3, [r0, #60]	; 0x3c
 8002c3a:	791a      	ldrb	r2, [r3, #4]
 8002c3c:	2a01      	cmp	r2, #1
 8002c3e:	b530      	push	{r4, r5, lr}
 8002c40:	6c04      	ldr	r4, [r0, #64]	; 0x40
 8002c42:	d11b      	bne.n	8002c7c <ADC001_SetPendingChannel+0x44>
 8002c44:	b1e1      	cbz	r1, 8002c80 <ADC001_SetPendingChannel+0x48>
 8002c46:	780b      	ldrb	r3, [r1, #0]
 8002c48:	784a      	ldrb	r2, [r1, #1]
 8002c4a:	18c1      	adds	r1, r0, r3
 8002c4c:	eb00 00c3 	add.w	r0, r0, r3, lsl #3
 8002c50:	f891 502a 	ldrb.w	r5, [r1, #42]	; 0x2a
 8002c54:	1881      	adds	r1, r0, r2
 8002c56:	2b04      	cmp	r3, #4
 8002c58:	7a89      	ldrb	r1, [r1, #10]
 8002c5a:	d811      	bhi.n	8002c80 <ADC001_SetPendingChannel+0x48>
 8002c5c:	2a08      	cmp	r2, #8
 8002c5e:	d80f      	bhi.n	8002c80 <ADC001_SetPendingChannel+0x48>
 8002c60:	2d01      	cmp	r5, #1
 8002c62:	d10d      	bne.n	8002c80 <ADC001_SetPendingChannel+0x48>
 8002c64:	2901      	cmp	r1, #1
 8002c66:	d10b      	bne.n	8002c80 <ADC001_SetPendingChannel+0x48>
 8002c68:	3370      	adds	r3, #112	; 0x70
 8002c6a:	fa01 f202 	lsl.w	r2, r1, r2
 8002c6e:	f854 0023 	ldr.w	r0, [r4, r3, lsl #2]
 8002c72:	4302      	orrs	r2, r0
 8002c74:	f844 2023 	str.w	r2, [r4, r3, lsl #2]
 8002c78:	2000      	movs	r0, #0
 8002c7a:	bd30      	pop	{r4, r5, pc}
 8002c7c:	2001      	movs	r0, #1
 8002c7e:	bd30      	pop	{r4, r5, pc}
 8002c80:	2002      	movs	r0, #2
 8002c82:	bd30      	pop	{r4, r5, pc}

08002c84 <ADC001_ClearPendingChannel>:
 8002c84:	6bc3      	ldr	r3, [r0, #60]	; 0x3c
 8002c86:	791a      	ldrb	r2, [r3, #4]
 8002c88:	2a01      	cmp	r2, #1
 8002c8a:	b530      	push	{r4, r5, lr}
 8002c8c:	6c04      	ldr	r4, [r0, #64]	; 0x40
 8002c8e:	d11c      	bne.n	8002cca <ADC001_ClearPendingChannel+0x46>
 8002c90:	b1e9      	cbz	r1, 8002cce <ADC001_ClearPendingChannel+0x4a>
 8002c92:	780b      	ldrb	r3, [r1, #0]
 8002c94:	784a      	ldrb	r2, [r1, #1]
 8002c96:	18c1      	adds	r1, r0, r3
 8002c98:	eb00 00c3 	add.w	r0, r0, r3, lsl #3
 8002c9c:	f891 502a 	ldrb.w	r5, [r1, #42]	; 0x2a
 8002ca0:	1881      	adds	r1, r0, r2
 8002ca2:	2b04      	cmp	r3, #4
 8002ca4:	7a89      	ldrb	r1, [r1, #10]
 8002ca6:	d812      	bhi.n	8002cce <ADC001_ClearPendingChannel+0x4a>
 8002ca8:	2a08      	cmp	r2, #8
 8002caa:	d810      	bhi.n	8002cce <ADC001_ClearPendingChannel+0x4a>
 8002cac:	2d01      	cmp	r5, #1
 8002cae:	d10e      	bne.n	8002cce <ADC001_ClearPendingChannel+0x4a>
 8002cb0:	2901      	cmp	r1, #1
 8002cb2:	d10c      	bne.n	8002cce <ADC001_ClearPendingChannel+0x4a>
 8002cb4:	3370      	adds	r3, #112	; 0x70
 8002cb6:	fa01 f202 	lsl.w	r2, r1, r2
 8002cba:	f854 0023 	ldr.w	r0, [r4, r3, lsl #2]
 8002cbe:	ea20 0102 	bic.w	r1, r0, r2
 8002cc2:	f844 1023 	str.w	r1, [r4, r3, lsl #2]
 8002cc6:	2000      	movs	r0, #0
 8002cc8:	bd30      	pop	{r4, r5, pc}
 8002cca:	2001      	movs	r0, #1
 8002ccc:	bd30      	pop	{r4, r5, pc}
 8002cce:	2002      	movs	r0, #2
 8002cd0:	bd30      	pop	{r4, r5, pc}

08002cd2 <ADC001_SetChannelSelect>:
 8002cd2:	6bc3      	ldr	r3, [r0, #60]	; 0x3c
 8002cd4:	791a      	ldrb	r2, [r3, #4]
 8002cd6:	2a01      	cmp	r2, #1
 8002cd8:	b530      	push	{r4, r5, lr}
 8002cda:	6c04      	ldr	r4, [r0, #64]	; 0x40
 8002cdc:	d11b      	bne.n	8002d16 <ADC001_SetChannelSelect+0x44>
 8002cde:	b1e1      	cbz	r1, 8002d1a <ADC001_SetChannelSelect+0x48>
 8002ce0:	780b      	ldrb	r3, [r1, #0]
 8002ce2:	784a      	ldrb	r2, [r1, #1]
 8002ce4:	18c1      	adds	r1, r0, r3
 8002ce6:	eb00 00c3 	add.w	r0, r0, r3, lsl #3
 8002cea:	f891 502a 	ldrb.w	r5, [r1, #42]	; 0x2a
 8002cee:	1881      	adds	r1, r0, r2
 8002cf0:	2b04      	cmp	r3, #4
 8002cf2:	7a89      	ldrb	r1, [r1, #10]
 8002cf4:	d811      	bhi.n	8002d1a <ADC001_SetChannelSelect+0x48>
 8002cf6:	2a08      	cmp	r2, #8
 8002cf8:	d80f      	bhi.n	8002d1a <ADC001_SetChannelSelect+0x48>
 8002cfa:	2d01      	cmp	r5, #1
 8002cfc:	d10d      	bne.n	8002d1a <ADC001_SetChannelSelect+0x48>
 8002cfe:	2901      	cmp	r1, #1
 8002d00:	d10b      	bne.n	8002d1a <ADC001_SetChannelSelect+0x48>
 8002d02:	3360      	adds	r3, #96	; 0x60
 8002d04:	fa01 f202 	lsl.w	r2, r1, r2
 8002d08:	f854 0023 	ldr.w	r0, [r4, r3, lsl #2]
 8002d0c:	4302      	orrs	r2, r0
 8002d0e:	f844 2023 	str.w	r2, [r4, r3, lsl #2]
 8002d12:	2000      	movs	r0, #0
 8002d14:	bd30      	pop	{r4, r5, pc}
 8002d16:	2001      	movs	r0, #1
 8002d18:	bd30      	pop	{r4, r5, pc}
 8002d1a:	2002      	movs	r0, #2
 8002d1c:	bd30      	pop	{r4, r5, pc}

08002d1e <ADC001_ClearChannelSelect>:
 8002d1e:	6bc3      	ldr	r3, [r0, #60]	; 0x3c
 8002d20:	791a      	ldrb	r2, [r3, #4]
 8002d22:	2a01      	cmp	r2, #1
 8002d24:	b530      	push	{r4, r5, lr}
 8002d26:	6c04      	ldr	r4, [r0, #64]	; 0x40
 8002d28:	d11c      	bne.n	8002d64 <ADC001_ClearChannelSelect+0x46>
 8002d2a:	b1e9      	cbz	r1, 8002d68 <ADC001_ClearChannelSelect+0x4a>
 8002d2c:	780b      	ldrb	r3, [r1, #0]
 8002d2e:	784a      	ldrb	r2, [r1, #1]
 8002d30:	18c1      	adds	r1, r0, r3
 8002d32:	eb00 00c3 	add.w	r0, r0, r3, lsl #3
 8002d36:	f891 502a 	ldrb.w	r5, [r1, #42]	; 0x2a
 8002d3a:	1881      	adds	r1, r0, r2
 8002d3c:	2b04      	cmp	r3, #4
 8002d3e:	7a89      	ldrb	r1, [r1, #10]
 8002d40:	d812      	bhi.n	8002d68 <ADC001_ClearChannelSelect+0x4a>
 8002d42:	2a08      	cmp	r2, #8
 8002d44:	d810      	bhi.n	8002d68 <ADC001_ClearChannelSelect+0x4a>
 8002d46:	2d01      	cmp	r5, #1
 8002d48:	d10e      	bne.n	8002d68 <ADC001_ClearChannelSelect+0x4a>
 8002d4a:	2901      	cmp	r1, #1
 8002d4c:	d10c      	bne.n	8002d68 <ADC001_ClearChannelSelect+0x4a>
 8002d4e:	3360      	adds	r3, #96	; 0x60
 8002d50:	fa01 f202 	lsl.w	r2, r1, r2
 8002d54:	f854 0023 	ldr.w	r0, [r4, r3, lsl #2]
 8002d58:	ea20 0102 	bic.w	r1, r0, r2
 8002d5c:	f844 1023 	str.w	r1, [r4, r3, lsl #2]
 8002d60:	2000      	movs	r0, #0
 8002d62:	bd30      	pop	{r4, r5, pc}
 8002d64:	2001      	movs	r0, #1
 8002d66:	bd30      	pop	{r4, r5, pc}
 8002d68:	2002      	movs	r0, #2
 8002d6a:	bd30      	pop	{r4, r5, pc}

08002d6c <ADC001_SetChannelEventMode>:
 8002d6c:	b51f      	push	{r0, r1, r2, r3, r4, lr}
 8002d6e:	6c43      	ldr	r3, [r0, #68]	; 0x44
 8002d70:	9300      	str	r3, [sp, #0]
 8002d72:	6c83      	ldr	r3, [r0, #72]	; 0x48
 8002d74:	9301      	str	r3, [sp, #4]
 8002d76:	6cc3      	ldr	r3, [r0, #76]	; 0x4c
 8002d78:	9302      	str	r3, [sp, #8]
 8002d7a:	6d03      	ldr	r3, [r0, #80]	; 0x50
 8002d7c:	9303      	str	r3, [sp, #12]
 8002d7e:	6bc3      	ldr	r3, [r0, #60]	; 0x3c
 8002d80:	791b      	ldrb	r3, [r3, #4]
 8002d82:	2b01      	cmp	r3, #1
 8002d84:	d126      	bne.n	8002dd4 <ADC001_SetChannelEventMode+0x68>
 8002d86:	b339      	cbz	r1, 8002dd8 <ADC001_SetChannelEventMode+0x6c>
 8002d88:	780b      	ldrb	r3, [r1, #0]
 8002d8a:	7849      	ldrb	r1, [r1, #1]
 8002d8c:	18c4      	adds	r4, r0, r3
 8002d8e:	eb00 00c3 	add.w	r0, r0, r3, lsl #3
 8002d92:	1840      	adds	r0, r0, r1
 8002d94:	2b04      	cmp	r3, #4
 8002d96:	f894 402a 	ldrb.w	r4, [r4, #42]	; 0x2a
 8002d9a:	7a80      	ldrb	r0, [r0, #10]
 8002d9c:	d81c      	bhi.n	8002dd8 <ADC001_SetChannelEventMode+0x6c>
 8002d9e:	2908      	cmp	r1, #8
 8002da0:	d81a      	bhi.n	8002dd8 <ADC001_SetChannelEventMode+0x6c>
 8002da2:	2c01      	cmp	r4, #1
 8002da4:	d118      	bne.n	8002dd8 <ADC001_SetChannelEventMode+0x6c>
 8002da6:	2801      	cmp	r0, #1
 8002da8:	d116      	bne.n	8002dd8 <ADC001_SetChannelEventMode+0x6c>
 8002daa:	b10a      	cbz	r2, 8002db0 <ADC001_SetChannelEventMode+0x44>
 8002dac:	2a03      	cmp	r2, #3
 8002dae:	d113      	bne.n	8002dd8 <ADC001_SetChannelEventMode+0x6c>
 8002db0:	a804      	add	r0, sp, #16
 8002db2:	eb00 0383 	add.w	r3, r0, r3, lsl #2
 8002db6:	3180      	adds	r1, #128	; 0x80
 8002db8:	f853 3c10 	ldr.w	r3, [r3, #-16]
 8002dbc:	f853 0021 	ldr.w	r0, [r3, r1, lsl #2]
 8002dc0:	0212      	lsls	r2, r2, #8
 8002dc2:	f420 7040 	bic.w	r0, r0, #768	; 0x300
 8002dc6:	f402 7240 	and.w	r2, r2, #768	; 0x300
 8002dca:	4302      	orrs	r2, r0
 8002dcc:	f843 2021 	str.w	r2, [r3, r1, lsl #2]
 8002dd0:	2000      	movs	r0, #0
 8002dd2:	e002      	b.n	8002dda <ADC001_SetChannelEventMode+0x6e>
 8002dd4:	2001      	movs	r0, #1
 8002dd6:	e000      	b.n	8002dda <ADC001_SetChannelEventMode+0x6e>
 8002dd8:	2002      	movs	r0, #2
 8002dda:	b004      	add	sp, #16
 8002ddc:	bd10      	pop	{r4, pc}
	...

08002de0 <__libc_init_array>:
 8002de0:	b5f8      	push	{r3, r4, r5, r6, r7, lr}
 8002de2:	4f20      	ldr	r7, [pc, #128]	; (8002e64 <__libc_init_array+0x84>)
 8002de4:	4c20      	ldr	r4, [pc, #128]	; (8002e68 <__libc_init_array+0x88>)
 8002de6:	1b38      	subs	r0, r7, r4
 8002de8:	1087      	asrs	r7, r0, #2
 8002dea:	d017      	beq.n	8002e1c <__libc_init_array+0x3c>
 8002dec:	1e7a      	subs	r2, r7, #1
 8002dee:	6823      	ldr	r3, [r4, #0]
 8002df0:	2501      	movs	r5, #1
 8002df2:	f002 0601 	and.w	r6, r2, #1
 8002df6:	4798      	blx	r3
 8002df8:	42af      	cmp	r7, r5
 8002dfa:	d00f      	beq.n	8002e1c <__libc_init_array+0x3c>
 8002dfc:	b12e      	cbz	r6, 8002e0a <__libc_init_array+0x2a>
 8002dfe:	f854 1f04 	ldr.w	r1, [r4, #4]!
 8002e02:	2502      	movs	r5, #2
 8002e04:	4788      	blx	r1
 8002e06:	42af      	cmp	r7, r5
 8002e08:	d008      	beq.n	8002e1c <__libc_init_array+0x3c>
 8002e0a:	6860      	ldr	r0, [r4, #4]
 8002e0c:	4780      	blx	r0
 8002e0e:	3502      	adds	r5, #2
 8002e10:	68a2      	ldr	r2, [r4, #8]
 8002e12:	1d26      	adds	r6, r4, #4
 8002e14:	4790      	blx	r2
 8002e16:	3408      	adds	r4, #8
 8002e18:	42af      	cmp	r7, r5
 8002e1a:	d1f6      	bne.n	8002e0a <__libc_init_array+0x2a>
 8002e1c:	4f13      	ldr	r7, [pc, #76]	; (8002e6c <__libc_init_array+0x8c>)
 8002e1e:	4c14      	ldr	r4, [pc, #80]	; (8002e70 <__libc_init_array+0x90>)
 8002e20:	f7fe f8ae 	bl	8000f80 <_init>
 8002e24:	1b3b      	subs	r3, r7, r4
 8002e26:	109f      	asrs	r7, r3, #2
 8002e28:	d018      	beq.n	8002e5c <__libc_init_array+0x7c>
 8002e2a:	1e7d      	subs	r5, r7, #1
 8002e2c:	6821      	ldr	r1, [r4, #0]
 8002e2e:	f005 0601 	and.w	r6, r5, #1
 8002e32:	2501      	movs	r5, #1
 8002e34:	4788      	blx	r1
 8002e36:	42af      	cmp	r7, r5
 8002e38:	d011      	beq.n	8002e5e <__libc_init_array+0x7e>
 8002e3a:	b12e      	cbz	r6, 8002e48 <__libc_init_array+0x68>
 8002e3c:	f854 0f04 	ldr.w	r0, [r4, #4]!
 8002e40:	2502      	movs	r5, #2
 8002e42:	4780      	blx	r0
 8002e44:	42af      	cmp	r7, r5
 8002e46:	d00b      	beq.n	8002e60 <__libc_init_array+0x80>
 8002e48:	6862      	ldr	r2, [r4, #4]
 8002e4a:	4790      	blx	r2
 8002e4c:	3502      	adds	r5, #2
 8002e4e:	68a3      	ldr	r3, [r4, #8]
 8002e50:	1d26      	adds	r6, r4, #4
 8002e52:	4798      	blx	r3
 8002e54:	3408      	adds	r4, #8
 8002e56:	42af      	cmp	r7, r5
 8002e58:	d1f6      	bne.n	8002e48 <__libc_init_array+0x68>
 8002e5a:	bdf8      	pop	{r3, r4, r5, r6, r7, pc}
 8002e5c:	bdf8      	pop	{r3, r4, r5, r6, r7, pc}
 8002e5e:	bdf8      	pop	{r3, r4, r5, r6, r7, pc}
 8002e60:	bdf8      	pop	{r3, r4, r5, r6, r7, pc}
 8002e62:	bf00      	nop
 8002e64:	08002e74 	.word	0x08002e74
 8002e68:	08002e74 	.word	0x08002e74
 8002e6c:	08002e74 	.word	0x08002e74
 8002e70:	08002e74 	.word	0x08002e74
