   1              		.syntax unified
   2              		.cpu cortex-m4
   3              		.eabi_attribute 27, 3
   4              		.fpu fpv4-sp-d16
   5              		.eabi_attribute 20, 1
   6              		.eabi_attribute 21, 1
   7              		.eabi_attribute 23, 3
   8              		.eabi_attribute 24, 1
   9              		.eabi_attribute 25, 1
  10              		.eabi_attribute 26, 1
  11              		.eabi_attribute 30, 6
  12              		.eabi_attribute 34, 1
  13              		.eabi_attribute 18, 4
  14              		.thumb
  15              		.file	"Main.c"
  16              		.text
  17              	.Ltext0:
  18              		.cfi_sections	.debug_frame
  19              		.global	ticks
  20              		.bss
  21              		.align	2
  24              	ticks:
  25 0000 00000000 		.space	4
  26              		.global	value
  29              	value:
  30 0004 00       		.space	1
  31 0005 000000   		.section	.text.main,"ax",%progbits
  32              		.align	2
  33              		.global	main
  34              		.thumb
  35              		.thumb_func
  37              	main:
  38              	.LFB117:
  39              		.file 1 "../Main.c"
   1:../Main.c     **** /*
   2:../Main.c     ****  * Main.c
   3:../Main.c     ****  *
   4:../Main.c     ****  *  Created on: May 9, 2015
   5:../Main.c     ****  *      Author: JM
   6:../Main.c     ****  */
   7:../Main.c     **** 
   8:../Main.c     **** #include <DAVE3.h> //Declarations from DAVE3 Code Generation (includes SFR declaration)
   9:../Main.c     **** void Tick_Handler(void);
  10:../Main.c     **** void Testando_Handler(void);
  11:../Main.c     **** void delayms(uint32_t delay_ms);
  12:../Main.c     **** void delayus(uint32_t delay_us);
  13:../Main.c     **** void Software_Timers_Init(void);
  14:../Main.c     **** void WakeUp(void);
  15:../Main.c     **** 
  16:../Main.c     **** uint32_t ticks = 0UL;
  17:../Main.c     **** bool value = 0UL;
  18:../Main.c     **** 
  19:../Main.c     **** int main(void) {
  40              		.loc 1 19 0
  41              		.cfi_startproc
  42              		@ args = 0, pretend = 0, frame = 0
  43              		@ frame_needed = 1, uses_anonymous_args = 0
  44 0000 80B5     		push	{r7, lr}
  45              	.LCFI0:
  46              		.cfi_def_cfa_offset 8
  47              		.cfi_offset 7, -8
  48              		.cfi_offset 14, -4
  49 0002 00AF     		add	r7, sp, #0
  50              	.LCFI1:
  51              		.cfi_def_cfa_register 7
  20:../Main.c     **** //	status_t status;		// Declaration of return variable for DAVE3 APIs (toggle comment if required)
  21:../Main.c     **** 
  22:../Main.c     **** 	DAVE_Init(); // Initialization of DAVE Apps
  52              		.loc 1 22 0
  53 0004 FFF7FEFF 		bl	DAVE_Init
  23:../Main.c     **** 
  24:../Main.c     **** 	ticks = 0;
  54              		.loc 1 24 0
  55 0008 40F20003 		movw	r3, #:lower16:ticks
  56 000c C0F20003 		movt	r3, #:upper16:ticks
  57 0010 4FF00002 		mov	r2, #0
  58 0014 1A60     		str	r2, [r3, #0]
  25:../Main.c     **** 	Software_Timers_Init();
  59              		.loc 1 25 0
  60 0016 FFF7FEFF 		bl	Software_Timers_Init
  26:../Main.c     **** 
  27:../Main.c     **** 	/*PWMSP001_SetDutyCycle(&PWMSP001_Handle0,1);
  28:../Main.c     **** 	 PWMSP001_Start(&PWMSP001_Handle0);
  29:../Main.c     **** 	 delayms(100);
  30:../Main.c     **** 	 IO004_TogglePin(IO004_Handle5);
  31:../Main.c     **** 	 IO004_TogglePin(IO004_Handle0);
  32:../Main.c     **** 	 delayms(100);
  33:../Main.c     **** 	 */
  34:../Main.c     **** 
  35:../Main.c     **** 	IO004_TogglePin(IO004_Handle0);
  61              		.loc 1 35 0
  62 001a 40F20003 		movw	r3, #:lower16:IO004_Handle0
  63 001e C0F20003 		movt	r3, #:upper16:IO004_Handle0
  64 0022 5A68     		ldr	r2, [r3, #4]
  65 0024 40F20003 		movw	r3, #:lower16:IO004_Handle0
  66 0028 C0F20003 		movt	r3, #:upper16:IO004_Handle0
  67 002c 5B78     		ldrb	r3, [r3, #1]	@ zero_extendqisi2
  68 002e 4FF00111 		mov	r1, #65537
  69 0032 01FA03F3 		lsl	r3, r1, r3
  70 0036 5360     		str	r3, [r2, #4]
  36:../Main.c     **** 
  37:../Main.c     **** 	WakeUp();
  71              		.loc 1 37 0
  72 0038 FFF7FEFF 		bl	WakeUp
  73 003c 00E0     		b	.L6
  74              	.L7:
  38:../Main.c     **** 
  39:../Main.c     **** 	while (1) {
  40:../Main.c     **** 
  41:../Main.c     **** 		/*value = IO004_ReadPin(IO004_Handle7);
  42:../Main.c     **** 
  43:../Main.c     **** 		 if (value == 0)
  44:../Main.c     **** 		 value = 0;*/
  45:../Main.c     **** 
  46:../Main.c     **** 		//DIR
  47:../Main.c     **** 		/*if (IO004_ReadPin(IO004_Handle7) == 0) {
  48:../Main.c     **** 			delayms(100); //Anti debounce
  49:../Main.c     **** 			while (IO004_ReadPin(IO004_Handle7) == 0)
  50:../Main.c     **** 				; //Wait until button released
  51:../Main.c     **** 			IO004_TogglePin(IO004_Handle5);
  52:../Main.c     **** 			PWMSP001_SetDutyCycle(&PWMSP001_Handle0, 100.0);
  53:../Main.c     **** 			delayus(100);
  54:../Main.c     **** 			IO004_TogglePin(IO004_Handle0);
  55:../Main.c     **** 			delayus(100);
  56:../Main.c     **** 			PWMSP001_SetDutyCycle(&PWMSP001_Handle0, 50);
  57:../Main.c     **** 
  58:../Main.c     **** 		}*/
  59:../Main.c     **** 
  60:../Main.c     **** 		//DrvDis
  61:../Main.c     **** 		if (IO004_ReadPin(IO004_Handle7) == 0) {
  62:../Main.c     **** 			delayms(100); //Anti debounce
  63:../Main.c     **** 			while (IO004_ReadPin(IO004_Handle7) == 0);
  64:../Main.c     **** 			IO004_TogglePin(IO004_Handle5);
  65:../Main.c     **** 			IO004_TogglePin(IO004_Handle2);
  66:../Main.c     **** 
  67:../Main.c     **** 		}
  68:../Main.c     **** 
  69:../Main.c     **** 		//ENABLE
  70:../Main.c     **** 		if (IO004_ReadPin(IO004_Handle8) == 0) {
  71:../Main.c     **** 			delayms(100);
  72:../Main.c     **** 			while (IO004_ReadPin(IO004_Handle8) == 0)
  73:../Main.c     **** 				;
  74:../Main.c     **** 			IO004_TogglePin(IO004_Handle6);
  75:../Main.c     **** 			IO004_TogglePin(IO004_Handle1);
  76:../Main.c     **** 			/*delayms(10);
  77:../Main.c     **** 			 IO004_TogglePin(IO004_Handle6);
  78:../Main.c     **** 			 IO004_TogglePin(IO004_Handle1);*/
  79:../Main.c     **** 		}
  80:../Main.c     **** 
  81:../Main.c     **** 		//delayus(100);
  82:../Main.c     **** 		//IO004_TogglePin(IO004_Handle0);
  83:../Main.c     **** 
  84:../Main.c     **** 	}
  75              		.loc 1 84 0
  76 003e 00BF     		nop
  77              	.L6:
  61:../Main.c     **** 		if (IO004_ReadPin(IO004_Handle7) == 0) {
  78              		.loc 1 61 0
  79 0040 40F20003 		movw	r3, #:lower16:IO004_Handle7
  80 0044 C0F20003 		movt	r3, #:upper16:IO004_Handle7
  81 0048 5B68     		ldr	r3, [r3, #4]
  82 004a 5A6A     		ldr	r2, [r3, #36]
  83 004c 40F20003 		movw	r3, #:lower16:IO004_Handle7
  84 0050 C0F20003 		movt	r3, #:upper16:IO004_Handle7
  85 0054 5B78     		ldrb	r3, [r3, #1]	@ zero_extendqisi2
  86 0056 22FA03F3 		lsr	r3, r2, r3
  87 005a 03F00103 		and	r3, r3, #1
  88 005e 002B     		cmp	r3, #0
  89 0060 33D1     		bne	.L2
  62:../Main.c     **** 			delayms(100); //Anti debounce
  90              		.loc 1 62 0
  91 0062 4FF06400 		mov	r0, #100
  92 0066 FFF7FEFF 		bl	delayms
  63:../Main.c     **** 			while (IO004_ReadPin(IO004_Handle7) == 0);
  93              		.loc 1 63 0
  94 006a 00BF     		nop
  95              	.L3:
  63:../Main.c     **** 			while (IO004_ReadPin(IO004_Handle7) == 0);
  96              		.loc 1 63 0 is_stmt 0 discriminator 1
  97 006c 40F20003 		movw	r3, #:lower16:IO004_Handle7
  98 0070 C0F20003 		movt	r3, #:upper16:IO004_Handle7
  99 0074 5B68     		ldr	r3, [r3, #4]
 100 0076 5A6A     		ldr	r2, [r3, #36]
 101 0078 40F20003 		movw	r3, #:lower16:IO004_Handle7
 102 007c C0F20003 		movt	r3, #:upper16:IO004_Handle7
 103 0080 5B78     		ldrb	r3, [r3, #1]	@ zero_extendqisi2
 104 0082 22FA03F3 		lsr	r3, r2, r3
 105 0086 03F00103 		and	r3, r3, #1
 106 008a 002B     		cmp	r3, #0
 107 008c EED0     		beq	.L3
  64:../Main.c     **** 			IO004_TogglePin(IO004_Handle5);
 108              		.loc 1 64 0 is_stmt 1
 109 008e 40F20003 		movw	r3, #:lower16:IO004_Handle5
 110 0092 C0F20003 		movt	r3, #:upper16:IO004_Handle5
 111 0096 5A68     		ldr	r2, [r3, #4]
 112 0098 40F20003 		movw	r3, #:lower16:IO004_Handle5
 113 009c C0F20003 		movt	r3, #:upper16:IO004_Handle5
 114 00a0 5B78     		ldrb	r3, [r3, #1]	@ zero_extendqisi2
 115 00a2 4FF00111 		mov	r1, #65537
 116 00a6 01FA03F3 		lsl	r3, r1, r3
 117 00aa 5360     		str	r3, [r2, #4]
  65:../Main.c     **** 			IO004_TogglePin(IO004_Handle2);
 118              		.loc 1 65 0
 119 00ac 40F20003 		movw	r3, #:lower16:IO004_Handle2
 120 00b0 C0F20003 		movt	r3, #:upper16:IO004_Handle2
 121 00b4 5A68     		ldr	r2, [r3, #4]
 122 00b6 40F20003 		movw	r3, #:lower16:IO004_Handle2
 123 00ba C0F20003 		movt	r3, #:upper16:IO004_Handle2
 124 00be 5B78     		ldrb	r3, [r3, #1]	@ zero_extendqisi2
 125 00c0 4FF00111 		mov	r1, #65537
 126 00c4 01FA03F3 		lsl	r3, r1, r3
 127 00c8 5360     		str	r3, [r2, #4]
 128              	.L2:
  70:../Main.c     **** 		if (IO004_ReadPin(IO004_Handle8) == 0) {
 129              		.loc 1 70 0
 130 00ca 40F20003 		movw	r3, #:lower16:IO004_Handle8
 131 00ce C0F20003 		movt	r3, #:upper16:IO004_Handle8
 132 00d2 5B68     		ldr	r3, [r3, #4]
 133 00d4 5A6A     		ldr	r2, [r3, #36]
 134 00d6 40F20003 		movw	r3, #:lower16:IO004_Handle8
 135 00da C0F20003 		movt	r3, #:upper16:IO004_Handle8
 136 00de 5B78     		ldrb	r3, [r3, #1]	@ zero_extendqisi2
 137 00e0 22FA03F3 		lsr	r3, r2, r3
 138 00e4 03F00103 		and	r3, r3, #1
 139 00e8 002B     		cmp	r3, #0
 140 00ea A8D1     		bne	.L7
  71:../Main.c     **** 			delayms(100);
 141              		.loc 1 71 0
 142 00ec 4FF06400 		mov	r0, #100
 143 00f0 FFF7FEFF 		bl	delayms
  72:../Main.c     **** 			while (IO004_ReadPin(IO004_Handle8) == 0)
 144              		.loc 1 72 0
 145 00f4 00BF     		nop
 146              	.L5:
  72:../Main.c     **** 			while (IO004_ReadPin(IO004_Handle8) == 0)
 147              		.loc 1 72 0 is_stmt 0 discriminator 1
 148 00f6 40F20003 		movw	r3, #:lower16:IO004_Handle8
 149 00fa C0F20003 		movt	r3, #:upper16:IO004_Handle8
 150 00fe 5B68     		ldr	r3, [r3, #4]
 151 0100 5A6A     		ldr	r2, [r3, #36]
 152 0102 40F20003 		movw	r3, #:lower16:IO004_Handle8
 153 0106 C0F20003 		movt	r3, #:upper16:IO004_Handle8
 154 010a 5B78     		ldrb	r3, [r3, #1]	@ zero_extendqisi2
 155 010c 22FA03F3 		lsr	r3, r2, r3
 156 0110 03F00103 		and	r3, r3, #1
 157 0114 002B     		cmp	r3, #0
 158 0116 EED0     		beq	.L5
  74:../Main.c     **** 			IO004_TogglePin(IO004_Handle6);
 159              		.loc 1 74 0 is_stmt 1
 160 0118 40F20003 		movw	r3, #:lower16:IO004_Handle6
 161 011c C0F20003 		movt	r3, #:upper16:IO004_Handle6
 162 0120 5A68     		ldr	r2, [r3, #4]
 163 0122 40F20003 		movw	r3, #:lower16:IO004_Handle6
 164 0126 C0F20003 		movt	r3, #:upper16:IO004_Handle6
 165 012a 5B78     		ldrb	r3, [r3, #1]	@ zero_extendqisi2
 166 012c 4FF00111 		mov	r1, #65537
 167 0130 01FA03F3 		lsl	r3, r1, r3
 168 0134 5360     		str	r3, [r2, #4]
  75:../Main.c     **** 			IO004_TogglePin(IO004_Handle1);
 169              		.loc 1 75 0
 170 0136 40F20003 		movw	r3, #:lower16:IO004_Handle1
 171 013a C0F20003 		movt	r3, #:upper16:IO004_Handle1
 172 013e 5A68     		ldr	r2, [r3, #4]
 173 0140 40F20003 		movw	r3, #:lower16:IO004_Handle1
 174 0144 C0F20003 		movt	r3, #:upper16:IO004_Handle1
 175 0148 5B78     		ldrb	r3, [r3, #1]	@ zero_extendqisi2
 176 014a 4FF00111 		mov	r1, #65537
 177 014e 01FA03F3 		lsl	r3, r1, r3
 178 0152 5360     		str	r3, [r2, #4]
 179              		.loc 1 84 0
 180 0154 73E7     		b	.L7
 181              		.cfi_endproc
 182              	.LFE117:
 184 0156 00BF     		.section	.text.WakeUp,"ax",%progbits
 185              		.align	2
 186              		.global	WakeUp
 187              		.thumb
 188              		.thumb_func
 190              	WakeUp:
 191              	.LFB118:
  85:../Main.c     **** 	return 0;
  86:../Main.c     **** }
  87:../Main.c     **** 
  88:../Main.c     **** void WakeUp(void) {
 192              		.loc 1 88 0
 193              		.cfi_startproc
 194              		@ args = 0, pretend = 0, frame = 0
 195              		@ frame_needed = 1, uses_anonymous_args = 0
 196 0000 80B5     		push	{r7, lr}
 197              	.LCFI2:
 198              		.cfi_def_cfa_offset 8
 199              		.cfi_offset 7, -8
 200              		.cfi_offset 14, -4
 201 0002 00AF     		add	r7, sp, #0
 202              	.LCFI3:
 203              		.cfi_def_cfa_register 7
  89:../Main.c     **** 
  90:../Main.c     **** 	//Enable
  91:../Main.c     **** 	IO004_TogglePin(IO004_Handle1);
 204              		.loc 1 91 0
 205 0004 40F20003 		movw	r3, #:lower16:IO004_Handle1
 206 0008 C0F20003 		movt	r3, #:upper16:IO004_Handle1
 207 000c 5A68     		ldr	r2, [r3, #4]
 208 000e 40F20003 		movw	r3, #:lower16:IO004_Handle1
 209 0012 C0F20003 		movt	r3, #:upper16:IO004_Handle1
 210 0016 5B78     		ldrb	r3, [r3, #1]	@ zero_extendqisi2
 211 0018 4FF00111 		mov	r1, #65537
 212 001c 01FA03F3 		lsl	r3, r1, r3
 213 0020 5360     		str	r3, [r2, #4]
  92:../Main.c     **** 	delayus(100);
 214              		.loc 1 92 0
 215 0022 4FF06400 		mov	r0, #100
 216 0026 FFF7FEFF 		bl	delayus
  93:../Main.c     **** 	IO004_TogglePin(IO004_Handle1);
 217              		.loc 1 93 0
 218 002a 40F20003 		movw	r3, #:lower16:IO004_Handle1
 219 002e C0F20003 		movt	r3, #:upper16:IO004_Handle1
 220 0032 5A68     		ldr	r2, [r3, #4]
 221 0034 40F20003 		movw	r3, #:lower16:IO004_Handle1
 222 0038 C0F20003 		movt	r3, #:upper16:IO004_Handle1
 223 003c 5B78     		ldrb	r3, [r3, #1]	@ zero_extendqisi2
 224 003e 4FF00111 		mov	r1, #65537
 225 0042 01FA03F3 		lsl	r3, r1, r3
 226 0046 5360     		str	r3, [r2, #4]
  94:../Main.c     **** 
  95:../Main.c     **** 	//DrvDis
  96:../Main.c     **** 	/*IO004_SetPin(IO004_Handle2);
  97:../Main.c     **** 	delayms(1);
  98:../Main.c     **** 	IO004_TogglePin(IO004_Handle2);*/
  99:../Main.c     **** 
 100:../Main.c     **** }
 227              		.loc 1 100 0
 228 0048 80BD     		pop	{r7, pc}
 229              		.cfi_endproc
 230              	.LFE118:
 232 004a 00BF     		.section	.text.Software_Timers_Init,"ax",%progbits
 233              		.align	2
 234              		.global	Software_Timers_Init
 235              		.thumb
 236              		.thumb_func
 238              	Software_Timers_Init:
 239              	.LFB119:
 101:../Main.c     **** 
 102:../Main.c     **** void Software_Timers_Init() {
 240              		.loc 1 102 0
 241              		.cfi_startproc
 242              		@ args = 0, pretend = 0, frame = 8
 243              		@ frame_needed = 1, uses_anonymous_args = 0
 244 0000 80B5     		push	{r7, lr}
 245              	.LCFI4:
 246              		.cfi_def_cfa_offset 8
 247              		.cfi_offset 7, -8
 248              		.cfi_offset 14, -4
 249 0002 82B0     		sub	sp, sp, #8
 250              	.LCFI5:
 251              		.cfi_def_cfa_offset 16
 252 0004 00AF     		add	r7, sp, #0
 253              	.LCFI6:
 254              		.cfi_def_cfa_register 7
 103:../Main.c     **** 	handle_t TaskTimerId;
 104:../Main.c     **** 
 105:../Main.c     **** 	TaskTimerId = SYSTM002_CreateTimer(SYSTM002_SYSTICK_INTERVAL,
 255              		.loc 1 105 0
 256 0006 4FF06400 		mov	r0, #100
 257 000a 4FF00101 		mov	r1, #1
 258 000e 40F20002 		movw	r2, #:lower16:Tick_Handler
 259 0012 C0F20002 		movt	r2, #:upper16:Tick_Handler
 260 0016 4FF00003 		mov	r3, #0
 261 001a FFF7FEFF 		bl	SYSTM002_CreateTimer
 262 001e 7860     		str	r0, [r7, #4]
 106:../Main.c     **** 			SYSTM002_PERIODIC, &Tick_Handler, NULL);
 107:../Main.c     **** 	if (TaskTimerId != 0) {
 263              		.loc 1 107 0
 264 0020 7B68     		ldr	r3, [r7, #4]
 265 0022 002B     		cmp	r3, #0
 266 0024 02D0     		beq	.L9
 108:../Main.c     **** //Timer created successfully so start it
 109:../Main.c     **** 		SYSTM002_StartTimer(TaskTimerId);
 267              		.loc 1 109 0
 268 0026 7868     		ldr	r0, [r7, #4]
 269 0028 FFF7FEFF 		bl	SYSTM002_StartTimer
 270              	.L9:
 110:../Main.c     **** 	}
 111:../Main.c     **** }
 271              		.loc 1 111 0
 272 002c 07F10807 		add	r7, r7, #8
 273 0030 BD46     		mov	sp, r7
 274 0032 80BD     		pop	{r7, pc}
 275              		.cfi_endproc
 276              	.LFE119:
 278              		.section	.text.delayus,"ax",%progbits
 279              		.align	2
 280              		.global	delayus
 281              		.thumb
 282              		.thumb_func
 284              	delayus:
 285              	.LFB120:
 112:../Main.c     **** 
 113:../Main.c     **** void delayus(uint32_t delay_us) {
 286              		.loc 1 113 0
 287              		.cfi_startproc
 288              		@ args = 0, pretend = 0, frame = 16
 289              		@ frame_needed = 1, uses_anonymous_args = 0
 290              		@ link register save eliminated.
 291 0000 80B4     		push	{r7}
 292              	.LCFI7:
 293              		.cfi_def_cfa_offset 4
 294              		.cfi_offset 7, -4
 295 0002 85B0     		sub	sp, sp, #20
 296              	.LCFI8:
 297              		.cfi_def_cfa_offset 24
 298 0004 00AF     		add	r7, sp, #0
 299              	.LCFI9:
 300              		.cfi_def_cfa_register 7
 301 0006 7860     		str	r0, [r7, #4]
 114:../Main.c     **** 	uint32_t currenttick = ticks;
 302              		.loc 1 114 0
 303 0008 40F20003 		movw	r3, #:lower16:ticks
 304 000c C0F20003 		movt	r3, #:upper16:ticks
 305 0010 1B68     		ldr	r3, [r3, #0]
 306 0012 FB60     		str	r3, [r7, #12]
 115:../Main.c     **** 	while (ticks - currenttick < (delay_us / SYSTM002_SYSTICK_INTERVAL))
 307              		.loc 1 115 0
 308 0014 00BF     		nop
 309              	.L12:
 310              		.loc 1 115 0 is_stmt 0 discriminator 1
 311 0016 40F20003 		movw	r3, #:lower16:ticks
 312 001a C0F20003 		movt	r3, #:upper16:ticks
 313 001e 1A68     		ldr	r2, [r3, #0]
 314 0020 FB68     		ldr	r3, [r7, #12]
 315 0022 D21A     		subs	r2, r2, r3
 316 0024 7968     		ldr	r1, [r7, #4]
 317 0026 48F21F53 		movw	r3, #34079
 318 002a C5F2EB13 		movt	r3, 20971
 319 002e A3FB0103 		umull	r0, r3, r3, r1
 320 0032 4FEA5313 		lsr	r3, r3, #5
 321 0036 9A42     		cmp	r2, r3
 322 0038 EDD3     		bcc	.L12
 116:../Main.c     **** 		;
 117:../Main.c     **** 	ticks = 0;
 323              		.loc 1 117 0 is_stmt 1
 324 003a 40F20003 		movw	r3, #:lower16:ticks
 325 003e C0F20003 		movt	r3, #:upper16:ticks
 326 0042 4FF00002 		mov	r2, #0
 327 0046 1A60     		str	r2, [r3, #0]
 118:../Main.c     **** }
 328              		.loc 1 118 0
 329 0048 07F11407 		add	r7, r7, #20
 330 004c BD46     		mov	sp, r7
 331 004e 80BC     		pop	{r7}
 332 0050 7047     		bx	lr
 333              		.cfi_endproc
 334              	.LFE120:
 336 0052 00BF     		.section	.text.delayms,"ax",%progbits
 337              		.align	2
 338              		.global	delayms
 339              		.thumb
 340              		.thumb_func
 342              	delayms:
 343              	.LFB121:
 119:../Main.c     **** 
 120:../Main.c     **** void delayms(uint32_t delay_ms) {
 344              		.loc 1 120 0
 345              		.cfi_startproc
 346              		@ args = 0, pretend = 0, frame = 8
 347              		@ frame_needed = 1, uses_anonymous_args = 0
 348 0000 80B5     		push	{r7, lr}
 349              	.LCFI10:
 350              		.cfi_def_cfa_offset 8
 351              		.cfi_offset 7, -8
 352              		.cfi_offset 14, -4
 353 0002 82B0     		sub	sp, sp, #8
 354              	.LCFI11:
 355              		.cfi_def_cfa_offset 16
 356 0004 00AF     		add	r7, sp, #0
 357              	.LCFI12:
 358              		.cfi_def_cfa_register 7
 359 0006 7860     		str	r0, [r7, #4]
 121:../Main.c     **** 	delayus(1000 * delay_ms);
 360              		.loc 1 121 0
 361 0008 7B68     		ldr	r3, [r7, #4]
 362 000a 4FF47A72 		mov	r2, #1000
 363 000e 02FB03F3 		mul	r3, r2, r3
 364 0012 1846     		mov	r0, r3
 365 0014 FFF7FEFF 		bl	delayus
 122:../Main.c     **** }
 366              		.loc 1 122 0
 367 0018 07F10807 		add	r7, r7, #8
 368 001c BD46     		mov	sp, r7
 369 001e 80BD     		pop	{r7, pc}
 370              		.cfi_endproc
 371              	.LFE121:
 373              		.section	.text.Tick_Handler,"ax",%progbits
 374              		.align	2
 375              		.global	Tick_Handler
 376              		.thumb
 377              		.thumb_func
 379              	Tick_Handler:
 380              	.LFB122:
 123:../Main.c     **** 
 124:../Main.c     **** void Tick_Handler(void) {
 381              		.loc 1 124 0
 382              		.cfi_startproc
 383              		@ args = 0, pretend = 0, frame = 0
 384              		@ frame_needed = 1, uses_anonymous_args = 0
 385              		@ link register save eliminated.
 386 0000 80B4     		push	{r7}
 387              	.LCFI13:
 388              		.cfi_def_cfa_offset 4
 389              		.cfi_offset 7, -4
 390 0002 00AF     		add	r7, sp, #0
 391              	.LCFI14:
 392              		.cfi_def_cfa_register 7
 125:../Main.c     **** 	ticks++;
 393              		.loc 1 125 0
 394 0004 40F20003 		movw	r3, #:lower16:ticks
 395 0008 C0F20003 		movt	r3, #:upper16:ticks
 396 000c 1B68     		ldr	r3, [r3, #0]
 397 000e 03F10102 		add	r2, r3, #1
 398 0012 40F20003 		movw	r3, #:lower16:ticks
 399 0016 C0F20003 		movt	r3, #:upper16:ticks
 400 001a 1A60     		str	r2, [r3, #0]
 126:../Main.c     **** }
 401              		.loc 1 126 0
 402 001c BD46     		mov	sp, r7
 403 001e 80BC     		pop	{r7}
 404 0020 7047     		bx	lr
 405              		.cfi_endproc
 406              	.LFE122:
 408 0022 00BF     		.section	.text.ERU0_3_IRQHandler,"ax",%progbits
 409              		.align	2
 410              		.global	ERU0_3_IRQHandler
 411              		.thumb
 412              		.thumb_func
 414              	ERU0_3_IRQHandler:
 415              	.LFB123:
 127:../Main.c     **** 
 128:../Main.c     **** void Testando_Handler(void) {
 416              		.loc 1 128 0
 417              		.cfi_startproc
 418              		@ args = 0, pretend = 0, frame = 0
 419              		@ frame_needed = 1, uses_anonymous_args = 0
 420              		@ link register save eliminated.
 421 0000 80B4     		push	{r7}
 422              	.LCFI15:
 423              		.cfi_def_cfa_offset 4
 424              		.cfi_offset 7, -4
 425 0002 00AF     		add	r7, sp, #0
 426              	.LCFI16:
 427              		.cfi_def_cfa_register 7
 129:../Main.c     **** 
 130:../Main.c     **** 	uint32_t status;
 131:../Main.c     **** 
 132:../Main.c     **** 	/*status = RD_REG(ERU001_Handle0.ERURegs->EXICON[ERU001_Handle0.InputChannel],ERU_EXICON_FL_Msk , 
 133:../Main.c     **** 
 134:../Main.c     **** 	 if(status)
 135:../Main.c     **** 	 {
 136:../Main.c     **** 	 IO004_ResetPin(IO004_Handle6);		// ERU event received, turn on LED
 137:../Main.c     **** 	 ERU001_ClearFlag(ERU001_Handle0);	// Clears the Status Flag
 138:../Main.c     **** 	 }*/
 139:../Main.c     **** }
 428              		.loc 1 139 0
 429 0004 BD46     		mov	sp, r7
 430 0006 80BC     		pop	{r7}
 431 0008 7047     		bx	lr
 432              		.cfi_endproc
 433              	.LFE123:
 435 000a 00BF     		.text
 436              	.Letext0:
 437              		.file 2 "c:\\dave-3.1.10\\arm-gcc\\bin\\../lib/gcc/arm-none-eabi/4.7.4/../../../../arm-none-eabi/i
 438              		.file 3 "C:\\Users\\Carlos\\Documents\\GitHub\\Controle-e-Telemetria\\DAVE\\Feather-PonteH\\Dave\\
 439              		.file 4 "C:\\Users\\Carlos\\Documents\\GitHub\\Controle-e-Telemetria\\DAVE\\Feather-PonteH\\Dave\\
 440              		.file 5 "C:\\DAVE-3.1.10\\eclipse\\/../CMSIS/Include/core_cm4.h"
 441              		.file 6 "C:\\Users\\Carlos\\Documents\\GitHub\\Controle-e-Telemetria\\DAVE\\Feather-PonteH\\Dave\\
 442              		.file 7 "C:\\Users\\Carlos\\Documents\\GitHub\\Controle-e-Telemetria\\DAVE\\Feather-PonteH\\Dave\\