
ControleInterno.elf:     file format elf32-littlearm

Sections:
Idx Name          Size      VMA       LMA       File off  Algn
  0 .text         00001b40  08000000  0c000000  00008000  2**2
                  CONTENTS, ALLOC, LOAD, READONLY, CODE
  1 .ARM.exidx    00000010  08001b40  0c001b40  00009b40  2**2
                  CONTENTS, ALLOC, LOAD, READONLY, DATA
  2 .rodata       0000010c  08001b50  0c001b50  00009b50  2**2
                  CONTENTS, ALLOC, LOAD, READONLY, DATA
  3 Stack         00000800  10000000  10000000  00018000  2**0
                  ALLOC
  4 .data         00000008  20000000  0c001c60  00010000  2**2
                  CONTENTS, ALLOC, LOAD, DATA
  5 .bss          00000030  20000008  0c001c68  00010008  2**2
                  ALLOC
  6 .debug_frame  00000030  00000000  00000000  00010008  2**2
                  CONTENTS, READONLY, DEBUGGING
  7 .build_attributes 000003ac  00000000  00000000  00010038  2**0
                  CONTENTS, READONLY

Disassembly of section .text:

08000000 <__Xmc4500_interrupt_vector_cortex_m>:
 8000000:	00 08 00 10 01 02 00 08 c9 02 00 08 cb 02 00 08     ................
 8000010:	cd 02 00 08 cf 02 00 08 d1 02 00 08 00 00 00 00     ................
	...
 800002c:	d3 02 00 08 d5 02 00 08 00 00 00 00 d7 02 00 08     ................
 800003c:	d9 02 00 08 db 02 00 08 dd 02 00 08 df 02 00 08     ................
 800004c:	e1 02 00 08 e3 02 00 08 e5 02 00 08 e7 02 00 08     ................
 800005c:	e9 02 00 08 eb 02 00 08 00 00 00 00 00 00 00 00     ................
 800006c:	00 00 00 00 ed 02 00 08 00 00 00 00 ef 02 00 08     ................
 800007c:	f1 02 00 08 f3 02 00 08 f5 02 00 08 f7 02 00 08     ................
 800008c:	f9 02 00 08 fb 02 00 08 fd 02 00 08 ff 02 00 08     ................
 800009c:	01 03 00 08 03 03 00 08 05 03 00 08 07 03 00 08     ................
 80000ac:	09 03 00 08 0b 03 00 08 0d 03 00 08 0f 03 00 08     ................
 80000bc:	11 03 00 08 13 03 00 08 15 03 00 08 17 03 00 08     ................
 80000cc:	19 03 00 08 1b 03 00 08 1d 03 00 08 1f 03 00 08     ................
 80000dc:	21 03 00 08 23 03 00 08 25 03 00 08 27 03 00 08     !...#...%...'...
 80000ec:	29 03 00 08 2b 03 00 08 2d 03 00 08 2f 03 00 08     )...+...-.../...
 80000fc:	31 03 00 08 33 03 00 08 35 03 00 08 37 03 00 08     1...3...5...7...
 800010c:	39 03 00 08 3b 03 00 08 3d 03 00 08 3f 03 00 08     9...;...=...?...
 800011c:	41 03 00 08 43 03 00 08 45 03 00 08 47 03 00 08     A...C...E...G...
 800012c:	49 03 00 08 4b 03 00 08 4d 03 00 08 4f 03 00 08     I...K...M...O...
 800013c:	51 03 00 08 53 03 00 08 55 03 00 08 57 03 00 08     Q...S...U...W...
 800014c:	59 03 00 08 5b 03 00 08 5d 03 00 08 5f 03 00 08     Y...[...]..._...
 800015c:	61 03 00 08 00 00 00 00 00 00 00 00 00 00 00 00     a...............
 800016c:	00 00 00 00 63 03 00 08 65 03 00 08 67 03 00 08     ....c...e...g...
 800017c:	69 03 00 08 6b 03 00 08 6d 03 00 08 6f 03 00 08     i...k...m...o...
 800018c:	71 03 00 08 73 03 00 08 75 03 00 08 77 03 00 08     q...s...u...w...
 800019c:	79 03 00 08 7b 03 00 08 7d 03 00 08 7f 03 00 08     y...{...}.......
 80001ac:	81 03 00 08 83 03 00 08 85 03 00 08 87 03 00 08     ................
 80001bc:	89 03 00 08 8b 03 00 08 8d 03 00 08 8f 03 00 08     ................
 80001cc:	91 03 00 08 93 03 00 08 95 03 00 08 97 03 00 08     ................
 80001dc:	00 00 00 00 99 03 00 08 9b 03 00 08 9d 03 00 08     ................
 80001ec:	9f 03 00 08 a1 03 00 08 00 00 00 00 a3 03 00 08     ................
 80001fc:	00 00 00 00                                         ....

08000200 <__Xmc4500_reset_cortex_m>:
 8000200:	f8df d00c 	ldr.w	sp, [pc, #12]	; 8000210 <__Xmc4500_reset_cortex_m+0x10>
 8000204:	4803      	ldr	r0, [pc, #12]	; (8000214 <__Xmc4500_reset_cortex_m+0x14>)
 8000206:	4780      	blx	r0
 8000208:	4803      	ldr	r0, [pc, #12]	; (8000218 <__Xmc4500_reset_cortex_m+0x18>)
 800020a:	4780      	blx	r0
 800020c:	f000 b817 	b.w	800023e <__Xmc4500_Program_Loader>
 8000210:	10000800 	.word	0x10000800
 8000214:	0800041d 	.word	0x0800041d
 8000218:	08001835 	.word	0x08001835

0800021c <__COPY_FLASH2RAM>:
 800021c:	2a00      	cmp	r2, #0
 800021e:	f000 800d 	beq.w	800023c <SKIPCOPY>

08000222 <STARTCOPY>:
 8000222:	ea4f 0292 	mov.w	r2, r2, lsr #2

08000226 <COPYLOOP>:
 8000226:	6803      	ldr	r3, [r0, #0]
 8000228:	600b      	str	r3, [r1, #0]
 800022a:	3a01      	subs	r2, #1
 800022c:	f000 8006 	beq.w	800023c <SKIPCOPY>
 8000230:	f100 0004 	add.w	r0, r0, #4
 8000234:	f101 0104 	add.w	r1, r1, #4
 8000238:	f7ff bff5 	b.w	8000226 <COPYLOOP>

0800023c <SKIPCOPY>:
 800023c:	4770      	bx	lr

0800023e <__Xmc4500_Program_Loader>:
 800023e:	4814      	ldr	r0, [pc, #80]	; (8000290 <SKIPCLEAR+0x1c>)
 8000240:	4914      	ldr	r1, [pc, #80]	; (8000294 <SKIPCLEAR+0x20>)
 8000242:	4a15      	ldr	r2, [pc, #84]	; (8000298 <SKIPCLEAR+0x24>)
 8000244:	f7ff ffea 	bl	800021c <__COPY_FLASH2RAM>
 8000248:	4814      	ldr	r0, [pc, #80]	; (800029c <SKIPCLEAR+0x28>)
 800024a:	4915      	ldr	r1, [pc, #84]	; (80002a0 <SKIPCLEAR+0x2c>)
 800024c:	4a15      	ldr	r2, [pc, #84]	; (80002a4 <SKIPCLEAR+0x30>)
 800024e:	f7ff ffe5 	bl	800021c <__COPY_FLASH2RAM>
 8000252:	4815      	ldr	r0, [pc, #84]	; (80002a8 <SKIPCLEAR+0x34>)
 8000254:	4915      	ldr	r1, [pc, #84]	; (80002ac <SKIPCLEAR+0x38>)
 8000256:	2900      	cmp	r1, #0
 8000258:	f000 800c 	beq.w	8000274 <SKIPCLEAR>

0800025c <STARTCLEAR>:
 800025c:	ea4f 0191 	mov.w	r1, r1, lsr #2
 8000260:	f04f 0200 	mov.w	r2, #0

08000264 <CLEARLOOP>:
 8000264:	6002      	str	r2, [r0, #0]
 8000266:	3901      	subs	r1, #1
 8000268:	f000 8004 	beq.w	8000274 <SKIPCLEAR>
 800026c:	f100 0004 	add.w	r0, r0, #4
 8000270:	f7ff bff8 	b.w	8000264 <CLEARLOOP>

08000274 <SKIPCLEAR>:
 8000274:	480e      	ldr	r0, [pc, #56]	; (80002b0 <SKIPCLEAR+0x3c>)
 8000276:	490f      	ldr	r1, [pc, #60]	; (80002b4 <SKIPCLEAR+0x40>)
 8000278:	6008      	str	r0, [r1, #0]
 800027a:	480f      	ldr	r0, [pc, #60]	; (80002b8 <SKIPCLEAR+0x44>)
 800027c:	4780      	blx	r0
 800027e:	f8df d03c 	ldr.w	sp, [pc, #60]	; 80002bc <SKIPCLEAR+0x48>
 8000282:	f04f 0000 	mov.w	r0, #0
 8000286:	f04f 0100 	mov.w	r1, #0
 800028a:	f8df f034 	ldr.w	pc, [pc, #52]	; 80002c0 <SKIPCLEAR+0x4c>
 800028e:	0000      	.short	0x0000
 8000290:	0c001c60 	.word	0x0c001c60
 8000294:	20000000 	.word	0x20000000
 8000298:	00000008 	.word	0x00000008
 800029c:	0c001c68 	.word	0x0c001c68
 80002a0:	10000800 	.word	0x10000800
 80002a4:	00000000 	.word	0x00000000
 80002a8:	20000008 	.word	0x20000008
 80002ac:	00000030 	.word	0x00000030
 80002b0:	08000000 	.word	0x08000000
 80002b4:	e000ed08 	.word	0xe000ed08
 80002b8:	08001aad 	.word	0x08001aad
 80002bc:	10000800 	.word	0x10000800
 80002c0:	080008c5 	.word	0x080008c5
 80002c4:	bf00      	nop
 80002c6:	4770      	bx	lr

080002c8 <NMI_Handler>:
 80002c8:	e7fe      	b.n	80002c8 <NMI_Handler>

080002ca <HardFault_Handler>:
 80002ca:	e7fe      	b.n	80002ca <HardFault_Handler>

080002cc <MemManage_Handler>:
 80002cc:	e7fe      	b.n	80002cc <MemManage_Handler>

080002ce <BusFault_Handler>:
 80002ce:	e7fe      	b.n	80002ce <BusFault_Handler>

080002d0 <UsageFault_Handler>:
 80002d0:	e7fe      	b.n	80002d0 <UsageFault_Handler>

080002d2 <SVC_Handler>:
 80002d2:	e7fe      	b.n	80002d2 <SVC_Handler>

080002d4 <DebugMon_Handler>:
 80002d4:	e7fe      	b.n	80002d4 <DebugMon_Handler>

080002d6 <PendSV_Handler>:
 80002d6:	e7fe      	b.n	80002d6 <PendSV_Handler>

080002d8 <SysTick_Handler>:
 80002d8:	e7fe      	b.n	80002d8 <SysTick_Handler>

080002da <SCU_0_IRQHandler>:
 80002da:	e7fe      	b.n	80002da <SCU_0_IRQHandler>

080002dc <ERU0_0_IRQHandler>:
 80002dc:	e7fe      	b.n	80002dc <ERU0_0_IRQHandler>

080002de <ERU0_1_IRQHandler>:
 80002de:	e7fe      	b.n	80002de <ERU0_1_IRQHandler>

080002e0 <ERU0_2_IRQHandler>:
 80002e0:	e7fe      	b.n	80002e0 <ERU0_2_IRQHandler>

080002e2 <ERU0_3_IRQHandler>:
 80002e2:	e7fe      	b.n	80002e2 <ERU0_3_IRQHandler>

080002e4 <ERU1_0_IRQHandler>:
 80002e4:	e7fe      	b.n	80002e4 <ERU1_0_IRQHandler>

080002e6 <ERU1_1_IRQHandler>:
 80002e6:	e7fe      	b.n	80002e6 <ERU1_1_IRQHandler>

080002e8 <ERU1_2_IRQHandler>:
 80002e8:	e7fe      	b.n	80002e8 <ERU1_2_IRQHandler>

080002ea <ERU1_3_IRQHandler>:
 80002ea:	e7fe      	b.n	80002ea <ERU1_3_IRQHandler>

080002ec <PMU0_0_IRQHandler>:
 80002ec:	e7fe      	b.n	80002ec <PMU0_0_IRQHandler>

080002ee <VADC0_C0_0_IRQHandler>:
 80002ee:	e7fe      	b.n	80002ee <VADC0_C0_0_IRQHandler>

080002f0 <VADC0_C0_1_IRQHandler>:
 80002f0:	e7fe      	b.n	80002f0 <VADC0_C0_1_IRQHandler>

080002f2 <VADC0_C0_2_IRQHandler>:
 80002f2:	e7fe      	b.n	80002f2 <VADC0_C0_2_IRQHandler>

080002f4 <VADC0_C0_3_IRQHandler>:
 80002f4:	e7fe      	b.n	80002f4 <VADC0_C0_3_IRQHandler>

080002f6 <VADC0_G0_0_IRQHandler>:
 80002f6:	e7fe      	b.n	80002f6 <VADC0_G0_0_IRQHandler>

080002f8 <VADC0_G0_1_IRQHandler>:
 80002f8:	e7fe      	b.n	80002f8 <VADC0_G0_1_IRQHandler>

080002fa <VADC0_G0_2_IRQHandler>:
 80002fa:	e7fe      	b.n	80002fa <VADC0_G0_2_IRQHandler>

080002fc <VADC0_G0_3_IRQHandler>:
 80002fc:	e7fe      	b.n	80002fc <VADC0_G0_3_IRQHandler>

080002fe <VADC0_G1_0_IRQHandler>:
 80002fe:	e7fe      	b.n	80002fe <VADC0_G1_0_IRQHandler>

08000300 <VADC0_G1_1_IRQHandler>:
 8000300:	e7fe      	b.n	8000300 <VADC0_G1_1_IRQHandler>

08000302 <VADC0_G1_2_IRQHandler>:
 8000302:	e7fe      	b.n	8000302 <VADC0_G1_2_IRQHandler>

08000304 <VADC0_G1_3_IRQHandler>:
 8000304:	e7fe      	b.n	8000304 <VADC0_G1_3_IRQHandler>

08000306 <VADC0_G2_0_IRQHandler>:
 8000306:	e7fe      	b.n	8000306 <VADC0_G2_0_IRQHandler>

08000308 <VADC0_G2_1_IRQHandler>:
 8000308:	e7fe      	b.n	8000308 <VADC0_G2_1_IRQHandler>

0800030a <VADC0_G2_2_IRQHandler>:
 800030a:	e7fe      	b.n	800030a <VADC0_G2_2_IRQHandler>

0800030c <VADC0_G2_3_IRQHandler>:
 800030c:	e7fe      	b.n	800030c <VADC0_G2_3_IRQHandler>

0800030e <VADC0_G3_0_IRQHandler>:
 800030e:	e7fe      	b.n	800030e <VADC0_G3_0_IRQHandler>

08000310 <VADC0_G3_1_IRQHandler>:
 8000310:	e7fe      	b.n	8000310 <VADC0_G3_1_IRQHandler>

08000312 <VADC0_G3_2_IRQHandler>:
 8000312:	e7fe      	b.n	8000312 <VADC0_G3_2_IRQHandler>

08000314 <VADC0_G3_3_IRQHandler>:
 8000314:	e7fe      	b.n	8000314 <VADC0_G3_3_IRQHandler>

08000316 <DSD0_0_IRQHandler>:
 8000316:	e7fe      	b.n	8000316 <DSD0_0_IRQHandler>

08000318 <DSD0_1_IRQHandler>:
 8000318:	e7fe      	b.n	8000318 <DSD0_1_IRQHandler>

0800031a <DSD0_2_IRQHandler>:
 800031a:	e7fe      	b.n	800031a <DSD0_2_IRQHandler>

0800031c <DSD0_3_IRQHandler>:
 800031c:	e7fe      	b.n	800031c <DSD0_3_IRQHandler>

0800031e <DSD0_4_IRQHandler>:
 800031e:	e7fe      	b.n	800031e <DSD0_4_IRQHandler>

08000320 <DSD0_5_IRQHandler>:
 8000320:	e7fe      	b.n	8000320 <DSD0_5_IRQHandler>

08000322 <DSD0_6_IRQHandler>:
 8000322:	e7fe      	b.n	8000322 <DSD0_6_IRQHandler>

08000324 <DSD0_7_IRQHandler>:
 8000324:	e7fe      	b.n	8000324 <DSD0_7_IRQHandler>

08000326 <DAC0_0_IRQHandler>:
 8000326:	e7fe      	b.n	8000326 <DAC0_0_IRQHandler>

08000328 <DAC0_1_IRQHandler>:
 8000328:	e7fe      	b.n	8000328 <DAC0_1_IRQHandler>

0800032a <CCU40_0_IRQHandler>:
 800032a:	e7fe      	b.n	800032a <CCU40_0_IRQHandler>

0800032c <CCU40_1_IRQHandler>:
 800032c:	e7fe      	b.n	800032c <CCU40_1_IRQHandler>

0800032e <CCU40_2_IRQHandler>:
 800032e:	e7fe      	b.n	800032e <CCU40_2_IRQHandler>

08000330 <CCU40_3_IRQHandler>:
 8000330:	e7fe      	b.n	8000330 <CCU40_3_IRQHandler>

08000332 <CCU41_0_IRQHandler>:
 8000332:	e7fe      	b.n	8000332 <CCU41_0_IRQHandler>

08000334 <CCU41_1_IRQHandler>:
 8000334:	e7fe      	b.n	8000334 <CCU41_1_IRQHandler>

08000336 <CCU41_2_IRQHandler>:
 8000336:	e7fe      	b.n	8000336 <CCU41_2_IRQHandler>

08000338 <CCU41_3_IRQHandler>:
 8000338:	e7fe      	b.n	8000338 <CCU41_3_IRQHandler>

0800033a <CCU42_0_IRQHandler>:
 800033a:	e7fe      	b.n	800033a <CCU42_0_IRQHandler>

0800033c <CCU42_1_IRQHandler>:
 800033c:	e7fe      	b.n	800033c <CCU42_1_IRQHandler>

0800033e <CCU42_2_IRQHandler>:
 800033e:	e7fe      	b.n	800033e <CCU42_2_IRQHandler>

08000340 <CCU42_3_IRQHandler>:
 8000340:	e7fe      	b.n	8000340 <CCU42_3_IRQHandler>

08000342 <CCU43_0_IRQHandler>:
 8000342:	e7fe      	b.n	8000342 <CCU43_0_IRQHandler>

08000344 <CCU43_1_IRQHandler>:
 8000344:	e7fe      	b.n	8000344 <CCU43_1_IRQHandler>

08000346 <CCU43_2_IRQHandler>:
 8000346:	e7fe      	b.n	8000346 <CCU43_2_IRQHandler>

08000348 <CCU43_3_IRQHandler>:
 8000348:	e7fe      	b.n	8000348 <CCU43_3_IRQHandler>

0800034a <CCU80_0_IRQHandler>:
 800034a:	e7fe      	b.n	800034a <CCU80_0_IRQHandler>

0800034c <CCU80_1_IRQHandler>:
 800034c:	e7fe      	b.n	800034c <CCU80_1_IRQHandler>

0800034e <CCU80_2_IRQHandler>:
 800034e:	e7fe      	b.n	800034e <CCU80_2_IRQHandler>

08000350 <CCU80_3_IRQHandler>:
 8000350:	e7fe      	b.n	8000350 <CCU80_3_IRQHandler>

08000352 <CCU81_0_IRQHandler>:
 8000352:	e7fe      	b.n	8000352 <CCU81_0_IRQHandler>

08000354 <CCU81_1_IRQHandler>:
 8000354:	e7fe      	b.n	8000354 <CCU81_1_IRQHandler>

08000356 <CCU81_2_IRQHandler>:
 8000356:	e7fe      	b.n	8000356 <CCU81_2_IRQHandler>

08000358 <CCU81_3_IRQHandler>:
 8000358:	e7fe      	b.n	8000358 <CCU81_3_IRQHandler>

0800035a <POSIF0_0_IRQHandler>:
 800035a:	e7fe      	b.n	800035a <POSIF0_0_IRQHandler>

0800035c <POSIF0_1_IRQHandler>:
 800035c:	e7fe      	b.n	800035c <POSIF0_1_IRQHandler>

0800035e <POSIF1_0_IRQHandler>:
 800035e:	e7fe      	b.n	800035e <POSIF1_0_IRQHandler>

08000360 <POSIF1_1_IRQHandler>:
 8000360:	e7fe      	b.n	8000360 <POSIF1_1_IRQHandler>

08000362 <CAN0_0_IRQHandler>:
 8000362:	e7fe      	b.n	8000362 <CAN0_0_IRQHandler>

08000364 <CAN0_1_IRQHandler>:
 8000364:	e7fe      	b.n	8000364 <CAN0_1_IRQHandler>

08000366 <CAN0_2_IRQHandler>:
 8000366:	e7fe      	b.n	8000366 <CAN0_2_IRQHandler>

08000368 <CAN0_3_IRQHandler>:
 8000368:	e7fe      	b.n	8000368 <CAN0_3_IRQHandler>

0800036a <CAN0_4_IRQHandler>:
 800036a:	e7fe      	b.n	800036a <CAN0_4_IRQHandler>

0800036c <CAN0_5_IRQHandler>:
 800036c:	e7fe      	b.n	800036c <CAN0_5_IRQHandler>

0800036e <CAN0_6_IRQHandler>:
 800036e:	e7fe      	b.n	800036e <CAN0_6_IRQHandler>

08000370 <CAN0_7_IRQHandler>:
 8000370:	e7fe      	b.n	8000370 <CAN0_7_IRQHandler>

08000372 <USIC0_0_IRQHandler>:
 8000372:	e7fe      	b.n	8000372 <USIC0_0_IRQHandler>

08000374 <USIC0_1_IRQHandler>:
 8000374:	e7fe      	b.n	8000374 <USIC0_1_IRQHandler>

08000376 <USIC0_2_IRQHandler>:
 8000376:	e7fe      	b.n	8000376 <USIC0_2_IRQHandler>

08000378 <USIC0_3_IRQHandler>:
 8000378:	e7fe      	b.n	8000378 <USIC0_3_IRQHandler>

0800037a <USIC0_4_IRQHandler>:
 800037a:	e7fe      	b.n	800037a <USIC0_4_IRQHandler>

0800037c <USIC0_5_IRQHandler>:
 800037c:	e7fe      	b.n	800037c <USIC0_5_IRQHandler>

0800037e <USIC1_0_IRQHandler>:
 800037e:	e7fe      	b.n	800037e <USIC1_0_IRQHandler>

08000380 <USIC1_1_IRQHandler>:
 8000380:	e7fe      	b.n	8000380 <USIC1_1_IRQHandler>

08000382 <USIC1_2_IRQHandler>:
 8000382:	e7fe      	b.n	8000382 <USIC1_2_IRQHandler>

08000384 <USIC1_3_IRQHandler>:
 8000384:	e7fe      	b.n	8000384 <USIC1_3_IRQHandler>

08000386 <USIC1_4_IRQHandler>:
 8000386:	e7fe      	b.n	8000386 <USIC1_4_IRQHandler>

08000388 <USIC1_5_IRQHandler>:
 8000388:	e7fe      	b.n	8000388 <USIC1_5_IRQHandler>

0800038a <USIC2_0_IRQHandler>:
 800038a:	e7fe      	b.n	800038a <USIC2_0_IRQHandler>

0800038c <USIC2_1_IRQHandler>:
 800038c:	e7fe      	b.n	800038c <USIC2_1_IRQHandler>

0800038e <USIC2_2_IRQHandler>:
 800038e:	e7fe      	b.n	800038e <USIC2_2_IRQHandler>

08000390 <USIC2_3_IRQHandler>:
 8000390:	e7fe      	b.n	8000390 <USIC2_3_IRQHandler>

08000392 <USIC2_4_IRQHandler>:
 8000392:	e7fe      	b.n	8000392 <USIC2_4_IRQHandler>

08000394 <USIC2_5_IRQHandler>:
 8000394:	e7fe      	b.n	8000394 <USIC2_5_IRQHandler>

08000396 <LEDTS0_0_IRQHandler>:
 8000396:	e7fe      	b.n	8000396 <LEDTS0_0_IRQHandler>

08000398 <FCE0_0_IRQHandler>:
 8000398:	e7fe      	b.n	8000398 <FCE0_0_IRQHandler>

0800039a <GPDMA0_0_IRQHandler>:
 800039a:	e7fe      	b.n	800039a <GPDMA0_0_IRQHandler>

0800039c <SDMMC0_0_IRQHandler>:
 800039c:	e7fe      	b.n	800039c <SDMMC0_0_IRQHandler>

0800039e <USB0_0_IRQHandler>:
 800039e:	e7fe      	b.n	800039e <USB0_0_IRQHandler>

080003a0 <ETH0_0_IRQHandler>:
 80003a0:	e7fe      	b.n	80003a0 <ETH0_0_IRQHandler>

080003a2 <GPDMA1_0_IRQHandler>:
 80003a2:	e7fe      	b.n	80003a2 <GPDMA1_0_IRQHandler>
 80003a4:	f04f 0001 	mov.w	r0, #1
 80003a8:	4770      	bx	lr
	...

080003ac <SystemCoreClockUpdate>:
 80003ac:	4a16      	ldr	r2, [pc, #88]	; (8000408 <SystemCoreClockUpdate+0x5c>)
 80003ae:	68d3      	ldr	r3, [r2, #12]
 80003b0:	f5b3 3f80 	cmp.w	r3, #65536	; 0x10000
 80003b4:	b530      	push	{r4, r5, lr}
 80003b6:	d122      	bne.n	80003fe <SystemCoreClockUpdate+0x52>
 80003b8:	4b14      	ldr	r3, [pc, #80]	; (800040c <SystemCoreClockUpdate+0x60>)
 80003ba:	6818      	ldr	r0, [r3, #0]
 80003bc:	0741      	lsls	r1, r0, #29
 80003be:	d521      	bpl.n	8000404 <SystemCoreClockUpdate+0x58>
 80003c0:	689c      	ldr	r4, [r3, #8]
 80003c2:	6898      	ldr	r0, [r3, #8]
 80003c4:	f3c4 6103 	ubfx	r1, r4, #24, #4
 80003c8:	1c4c      	adds	r4, r1, #1
 80003ca:	f3c0 2106 	ubfx	r1, r0, #8, #7
 80003ce:	1c48      	adds	r0, r1, #1
 80003d0:	6899      	ldr	r1, [r3, #8]
 80003d2:	68db      	ldr	r3, [r3, #12]
 80003d4:	68d2      	ldr	r2, [r2, #12]
 80003d6:	f3c1 4106 	ubfx	r1, r1, #16, #7
 80003da:	3101      	adds	r1, #1
 80003dc:	f013 0f01 	tst.w	r3, #1
 80003e0:	bf14      	ite	ne
 80003e2:	4d0b      	ldrne	r5, [pc, #44]	; (8000410 <SystemCoreClockUpdate+0x64>)
 80003e4:	4d0b      	ldreq	r5, [pc, #44]	; (8000414 <SystemCoreClockUpdate+0x68>)
 80003e6:	4b0c      	ldr	r3, [pc, #48]	; (8000418 <SystemCoreClockUpdate+0x6c>)
 80003e8:	fbb5 f4f4 	udiv	r4, r5, r4
 80003ec:	4360      	muls	r0, r4
 80003ee:	fbb0 f0f1 	udiv	r0, r0, r1
 80003f2:	b2d1      	uxtb	r1, r2
 80003f4:	1c4a      	adds	r2, r1, #1
 80003f6:	fbb0 f0f2 	udiv	r0, r0, r2
 80003fa:	6018      	str	r0, [r3, #0]
 80003fc:	bd30      	pop	{r4, r5, pc}
 80003fe:	4804      	ldr	r0, [pc, #16]	; (8000410 <SystemCoreClockUpdate+0x64>)
 8000400:	4905      	ldr	r1, [pc, #20]	; (8000418 <SystemCoreClockUpdate+0x6c>)
 8000402:	6008      	str	r0, [r1, #0]
 8000404:	bd30      	pop	{r4, r5, pc}
 8000406:	bf00      	nop
 8000408:	50004600 	.word	0x50004600
 800040c:	50004710 	.word	0x50004710
 8000410:	016e3600 	.word	0x016e3600
 8000414:	00b71b00 	.word	0x00b71b00
 8000418:	20000000 	.word	0x20000000

0800041c <SystemInit>:
 800041c:	4b73      	ldr	r3, [pc, #460]	; (80005ec <SystemInit+0x1d0>)
 800041e:	f8d3 2088 	ldr.w	r2, [r3, #136]	; 0x88
 8000422:	f442 0070 	orr.w	r0, r2, #15728640	; 0xf00000
 8000426:	b510      	push	{r4, lr}
 8000428:	f8c3 0088 	str.w	r0, [r3, #136]	; 0x88
 800042c:	6959      	ldr	r1, [r3, #20]
 800042e:	f021 0208 	bic.w	r2, r1, #8
 8000432:	615a      	str	r2, [r3, #20]
 8000434:	4b6e      	ldr	r3, [pc, #440]	; (80005f0 <SystemInit+0x1d4>)
 8000436:	6858      	ldr	r0, [r3, #4]
 8000438:	f020 0101 	bic.w	r1, r0, #1
 800043c:	6059      	str	r1, [r3, #4]
 800043e:	4b6d      	ldr	r3, [pc, #436]	; (80005f4 <SystemInit+0x1d8>)
 8000440:	695a      	ldr	r2, [r3, #20]
 8000442:	f022 000f 	bic.w	r0, r2, #15
 8000446:	f040 0103 	orr.w	r1, r0, #3
 800044a:	6159      	str	r1, [r3, #20]
 800044c:	f001 fb16 	bl	8001a7c <AllowPLLInitByStartup>
 8000450:	2800      	cmp	r0, #0
 8000452:	f000 80c7 	beq.w	80005e4 <SystemInit+0x1c8>
 8000456:	4b68      	ldr	r3, [pc, #416]	; (80005f8 <SystemInit+0x1dc>)
 8000458:	4a68      	ldr	r2, [pc, #416]	; (80005fc <SystemInit+0x1e0>)
 800045a:	6858      	ldr	r0, [r3, #4]
 800045c:	4002      	ands	r2, r0
 800045e:	b12a      	cbz	r2, 800046c <SystemInit+0x50>
 8000460:	6859      	ldr	r1, [r3, #4]
 8000462:	f421 3080 	bic.w	r0, r1, #65536	; 0x10000
 8000466:	f020 0202 	bic.w	r2, r0, #2
 800046a:	605a      	str	r2, [r3, #4]
 800046c:	4b64      	ldr	r3, [pc, #400]	; (8000600 <SystemInit+0x1e4>)
 800046e:	6859      	ldr	r1, [r3, #4]
 8000470:	f011 0f30 	tst.w	r1, #48	; 0x30
 8000474:	d104      	bne.n	8000480 <SystemInit+0x64>
 8000476:	4b60      	ldr	r3, [pc, #384]	; (80005f8 <SystemInit+0x1dc>)
 8000478:	6818      	ldr	r0, [r3, #0]
 800047a:	0740      	lsls	r0, r0, #29
 800047c:	d531      	bpl.n	80004e2 <SystemInit+0xc6>
 800047e:	e0b1      	b.n	80005e4 <SystemInit+0x1c8>
 8000480:	6858      	ldr	r0, [r3, #4]
 8000482:	f020 02f0 	bic.w	r2, r0, #240	; 0xf0
 8000486:	605a      	str	r2, [r3, #4]
 8000488:	6859      	ldr	r1, [r3, #4]
 800048a:	f441 3000 	orr.w	r0, r1, #131072	; 0x20000
 800048e:	6058      	str	r0, [r3, #4]
 8000490:	4b59      	ldr	r3, [pc, #356]	; (80005f8 <SystemInit+0x1dc>)
 8000492:	68da      	ldr	r2, [r3, #12]
 8000494:	f022 0101 	bic.w	r1, r2, #1
 8000498:	60d9      	str	r1, [r3, #12]
 800049a:	6858      	ldr	r0, [r3, #4]
 800049c:	4959      	ldr	r1, [pc, #356]	; (8000604 <SystemInit+0x1e8>)
 800049e:	f420 3200 	bic.w	r2, r0, #131072	; 0x20000
 80004a2:	605a      	str	r2, [r3, #4]
 80004a4:	4b58      	ldr	r3, [pc, #352]	; (8000608 <SystemInit+0x1ec>)
 80004a6:	2000      	movs	r0, #0
 80004a8:	2205      	movs	r2, #5
 80004aa:	6059      	str	r1, [r3, #4]
 80004ac:	6098      	str	r0, [r3, #8]
 80004ae:	601a      	str	r2, [r3, #0]
 80004b0:	4b51      	ldr	r3, [pc, #324]	; (80005f8 <SystemInit+0x1dc>)
 80004b2:	6819      	ldr	r1, [r3, #0]
 80004b4:	4b54      	ldr	r3, [pc, #336]	; (8000608 <SystemInit+0x1ec>)
 80004b6:	f401 7060 	and.w	r0, r1, #896	; 0x380
 80004ba:	f5b0 7f60 	cmp.w	r0, #896	; 0x380
 80004be:	d003      	beq.n	80004c8 <SystemInit+0xac>
 80004c0:	689a      	ldr	r2, [r3, #8]
 80004c2:	f5b2 7ffa 	cmp.w	r2, #500	; 0x1f4
 80004c6:	d2f3      	bcs.n	80004b0 <SystemInit+0x94>
 80004c8:	6819      	ldr	r1, [r3, #0]
 80004ca:	f021 0001 	bic.w	r0, r1, #1
 80004ce:	6018      	str	r0, [r3, #0]
 80004d0:	4b49      	ldr	r3, [pc, #292]	; (80005f8 <SystemInit+0x1dc>)
 80004d2:	681a      	ldr	r2, [r3, #0]
 80004d4:	f402 7160 	and.w	r1, r2, #896	; 0x380
 80004d8:	f5b1 7f60 	cmp.w	r1, #896	; 0x380
 80004dc:	f040 8082 	bne.w	80005e4 <SystemInit+0x1c8>
 80004e0:	e7c9      	b.n	8000476 <SystemInit+0x5a>
 80004e2:	4a4a      	ldr	r2, [pc, #296]	; (800060c <SystemInit+0x1f0>)
 80004e4:	68d1      	ldr	r1, [r2, #12]
 80004e6:	03c9      	lsls	r1, r1, #15
 80004e8:	d503      	bpl.n	80004f2 <SystemInit+0xd6>
 80004ea:	68d0      	ldr	r0, [r2, #12]
 80004ec:	f420 3180 	bic.w	r1, r0, #65536	; 0x10000
 80004f0:	60d1      	str	r1, [r2, #12]
 80004f2:	685a      	ldr	r2, [r3, #4]
 80004f4:	f042 0001 	orr.w	r0, r2, #1
 80004f8:	6058      	str	r0, [r3, #4]
 80004fa:	6859      	ldr	r1, [r3, #4]
 80004fc:	4844      	ldr	r0, [pc, #272]	; (8000610 <SystemInit+0x1f4>)
 80004fe:	f041 0210 	orr.w	r2, r1, #16
 8000502:	605a      	str	r2, [r3, #4]
 8000504:	6098      	str	r0, [r3, #8]
 8000506:	6859      	ldr	r1, [r3, #4]
 8000508:	f041 0240 	orr.w	r2, r1, #64	; 0x40
 800050c:	605a      	str	r2, [r3, #4]
 800050e:	6858      	ldr	r0, [r3, #4]
 8000510:	f020 0110 	bic.w	r1, r0, #16
 8000514:	6059      	str	r1, [r3, #4]
 8000516:	685a      	ldr	r2, [r3, #4]
 8000518:	493a      	ldr	r1, [pc, #232]	; (8000604 <SystemInit+0x1e8>)
 800051a:	f442 2080 	orr.w	r0, r2, #262144	; 0x40000
 800051e:	6058      	str	r0, [r3, #4]
 8000520:	4b39      	ldr	r3, [pc, #228]	; (8000608 <SystemInit+0x1ec>)
 8000522:	2200      	movs	r2, #0
 8000524:	2005      	movs	r0, #5
 8000526:	6059      	str	r1, [r3, #4]
 8000528:	609a      	str	r2, [r3, #8]
 800052a:	6018      	str	r0, [r3, #0]
 800052c:	4b32      	ldr	r3, [pc, #200]	; (80005f8 <SystemInit+0x1dc>)
 800052e:	6819      	ldr	r1, [r3, #0]
 8000530:	4b35      	ldr	r3, [pc, #212]	; (8000608 <SystemInit+0x1ec>)
 8000532:	f011 0f04 	tst.w	r1, #4
 8000536:	d103      	bne.n	8000540 <SystemInit+0x124>
 8000538:	689a      	ldr	r2, [r3, #8]
 800053a:	f5b2 7ffa 	cmp.w	r2, #500	; 0x1f4
 800053e:	d2f5      	bcs.n	800052c <SystemInit+0x110>
 8000540:	6819      	ldr	r1, [r3, #0]
 8000542:	4831      	ldr	r0, [pc, #196]	; (8000608 <SystemInit+0x1ec>)
 8000544:	f021 0201 	bic.w	r2, r1, #1
 8000548:	601a      	str	r2, [r3, #0]
 800054a:	4b2b      	ldr	r3, [pc, #172]	; (80005f8 <SystemInit+0x1dc>)
 800054c:	6819      	ldr	r1, [r3, #0]
 800054e:	074a      	lsls	r2, r1, #29
 8000550:	d548      	bpl.n	80005e4 <SystemInit+0x1c8>
 8000552:	685c      	ldr	r4, [r3, #4]
 8000554:	f024 0201 	bic.w	r2, r4, #1
 8000558:	605a      	str	r2, [r3, #4]
 800055a:	4a2c      	ldr	r2, [pc, #176]	; (800060c <SystemInit+0x1f0>)
 800055c:	2100      	movs	r1, #0
 800055e:	6111      	str	r1, [r2, #16]
 8000560:	6151      	str	r1, [r2, #20]
 8000562:	6211      	str	r1, [r2, #32]
 8000564:	68d4      	ldr	r4, [r2, #12]
 8000566:	f444 3480 	orr.w	r4, r4, #65536	; 0x10000
 800056a:	60d4      	str	r4, [r2, #12]
 800056c:	685a      	ldr	r2, [r3, #4]
 800056e:	f022 0240 	bic.w	r2, r2, #64	; 0x40
 8000572:	605a      	str	r2, [r3, #4]
 8000574:	f240 5345 	movw	r3, #1349	; 0x545
 8000578:	6043      	str	r3, [r0, #4]
 800057a:	6081      	str	r1, [r0, #8]
 800057c:	2105      	movs	r1, #5
 800057e:	6001      	str	r1, [r0, #0]
 8000580:	4821      	ldr	r0, [pc, #132]	; (8000608 <SystemInit+0x1ec>)
 8000582:	6882      	ldr	r2, [r0, #8]
 8000584:	2a63      	cmp	r2, #99	; 0x63
 8000586:	d8fb      	bhi.n	8000580 <SystemInit+0x164>
 8000588:	6803      	ldr	r3, [r0, #0]
 800058a:	4a1b      	ldr	r2, [pc, #108]	; (80005f8 <SystemInit+0x1dc>)
 800058c:	f023 0101 	bic.w	r1, r3, #1
 8000590:	4b20      	ldr	r3, [pc, #128]	; (8000614 <SystemInit+0x1f8>)
 8000592:	6001      	str	r1, [r0, #0]
 8000594:	f640 411b 	movw	r1, #3099	; 0xc1b
 8000598:	6093      	str	r3, [r2, #8]
 800059a:	6041      	str	r1, [r0, #4]
 800059c:	2300      	movs	r3, #0
 800059e:	2105      	movs	r1, #5
 80005a0:	6083      	str	r3, [r0, #8]
 80005a2:	6001      	str	r1, [r0, #0]
 80005a4:	4818      	ldr	r0, [pc, #96]	; (8000608 <SystemInit+0x1ec>)
 80005a6:	6883      	ldr	r3, [r0, #8]
 80005a8:	2b63      	cmp	r3, #99	; 0x63
 80005aa:	d8fb      	bhi.n	80005a4 <SystemInit+0x188>
 80005ac:	6801      	ldr	r1, [r0, #0]
 80005ae:	f021 0301 	bic.w	r3, r1, #1
 80005b2:	4919      	ldr	r1, [pc, #100]	; (8000618 <SystemInit+0x1fc>)
 80005b4:	6003      	str	r3, [r0, #0]
 80005b6:	6091      	str	r1, [r2, #8]
 80005b8:	2300      	movs	r3, #0
 80005ba:	f241 3223 	movw	r2, #4899	; 0x1323
 80005be:	2105      	movs	r1, #5
 80005c0:	6042      	str	r2, [r0, #4]
 80005c2:	6083      	str	r3, [r0, #8]
 80005c4:	6001      	str	r1, [r0, #0]
 80005c6:	4810      	ldr	r0, [pc, #64]	; (8000608 <SystemInit+0x1ec>)
 80005c8:	6882      	ldr	r2, [r0, #8]
 80005ca:	2a63      	cmp	r2, #99	; 0x63
 80005cc:	d8fb      	bhi.n	80005c6 <SystemInit+0x1aa>
 80005ce:	6803      	ldr	r3, [r0, #0]
 80005d0:	f023 0101 	bic.w	r1, r3, #1
 80005d4:	4b08      	ldr	r3, [pc, #32]	; (80005f8 <SystemInit+0x1dc>)
 80005d6:	6001      	str	r1, [r0, #0]
 80005d8:	4810      	ldr	r0, [pc, #64]	; (800061c <SystemInit+0x200>)
 80005da:	f5a3 61b6 	sub.w	r1, r3, #1456	; 0x5b0
 80005de:	2205      	movs	r2, #5
 80005e0:	6098      	str	r0, [r3, #8]
 80005e2:	60ca      	str	r2, [r1, #12]
 80005e4:	e8bd 4010 	ldmia.w	sp!, {r4, lr}
 80005e8:	f7ff bee0 	b.w	80003ac <SystemCoreClockUpdate>
 80005ec:	e000ed00 	.word	0xe000ed00
 80005f0:	50008000 	.word	0x50008000
 80005f4:	58002000 	.word	0x58002000
 80005f8:	50004710 	.word	0x50004710
 80005fc:	00010002 	.word	0x00010002
 8000600:	50004700 	.word	0x50004700
 8000604:	004c4ba3 	.word	0x004c4ba3
 8000608:	e000e010 	.word	0xe000e010
 800060c:	50004600 	.word	0x50004600
 8000610:	01134f01 	.word	0x01134f01
 8000614:	01074f01 	.word	0x01074f01
 8000618:	01044f01 	.word	0x01044f01
 800061c:	01034f01 	.word	0x01034f01

08000620 <start_PWM_signals>:
 8000620:	b570      	push	{r4, r5, r6, lr}
 8000622:	4c14      	ldr	r4, [pc, #80]	; (8000674 <start_PWM_signals+0x54>)
 8000624:	4d14      	ldr	r5, [pc, #80]	; (8000678 <start_PWM_signals+0x58>)
 8000626:	4e15      	ldr	r6, [pc, #84]	; (800067c <start_PWM_signals+0x5c>)
 8000628:	4620      	mov	r0, r4
 800062a:	f000 fa2a 	bl	8000a82 <PWMSP001_Start>
 800062e:	4629      	mov	r1, r5
 8000630:	4620      	mov	r0, r4
 8000632:	f000 fc2d 	bl	8000e90 <PWMSP001_SetPwmFreq>
 8000636:	4620      	mov	r0, r4
 8000638:	4c11      	ldr	r4, [pc, #68]	; (8000680 <start_PWM_signals+0x60>)
 800063a:	4631      	mov	r1, r6
 800063c:	f000 fb12 	bl	8000c64 <PWMSP001_SetDutyCycle>
 8000640:	4620      	mov	r0, r4
 8000642:	f000 fa1e 	bl	8000a82 <PWMSP001_Start>
 8000646:	4629      	mov	r1, r5
 8000648:	4620      	mov	r0, r4
 800064a:	f000 fc21 	bl	8000e90 <PWMSP001_SetPwmFreq>
 800064e:	4620      	mov	r0, r4
 8000650:	4c0c      	ldr	r4, [pc, #48]	; (8000684 <start_PWM_signals+0x64>)
 8000652:	4631      	mov	r1, r6
 8000654:	f000 fb06 	bl	8000c64 <PWMSP001_SetDutyCycle>
 8000658:	4620      	mov	r0, r4
 800065a:	f000 fa12 	bl	8000a82 <PWMSP001_Start>
 800065e:	4629      	mov	r1, r5
 8000660:	4620      	mov	r0, r4
 8000662:	f000 fc15 	bl	8000e90 <PWMSP001_SetPwmFreq>
 8000666:	4908      	ldr	r1, [pc, #32]	; (8000688 <start_PWM_signals+0x68>)
 8000668:	4620      	mov	r0, r4
 800066a:	e8bd 4070 	ldmia.w	sp!, {r4, r5, r6, lr}
 800066e:	f000 baf9 	b.w	8000c64 <PWMSP001_SetDutyCycle>
 8000672:	bf00      	nop
 8000674:	08001be0 	.word	0x08001be0
 8000678:	42700000 	.word	0x42700000
 800067c:	41199999 	.word	0x41199999
 8000680:	08001b98 	.word	0x08001b98
 8000684:	08001b50 	.word	0x08001b50
 8000688:	40c00000 	.word	0x40c00000

0800068c <update_PWM_signals>:
 800068c:	b510      	push	{r4, lr}
 800068e:	ed2d 8b04 	vpush	{d8-d9}
 8000692:	4c24      	ldr	r4, [pc, #144]	; (8000724 <update_PWM_signals+0x98>)
 8000694:	4824      	ldr	r0, [pc, #144]	; (8000728 <update_PWM_signals+0x9c>)
 8000696:	7863      	ldrb	r3, [r4, #1]
 8000698:	ee07 3a90 	vmov	s15, r3
 800069c:	ed9f 8a23 	vldr	s16, [pc, #140]	; 800072c <update_PWM_signals+0xa0>
 80006a0:	eeb8 0ae7 	vcvt.f32.s32	s0, s15
 80006a4:	eddf 9a22 	vldr	s19, [pc, #136]	; 8000730 <update_PWM_signals+0xa4>
 80006a8:	ee60 0a08 	vmul.f32	s1, s0, s16
 80006ac:	ed9f 9a21 	vldr	s18, [pc, #132]	; 8000734 <update_PWM_signals+0xa8>
 80006b0:	ee80 1aa9 	vdiv.f32	s2, s1, s19
 80006b4:	eddf 8a20 	vldr	s17, [pc, #128]	; 8000738 <update_PWM_signals+0xac>
 80006b8:	ee71 1a08 	vadd.f32	s3, s2, s16
 80006bc:	ee21 2a89 	vmul.f32	s4, s3, s18
 80006c0:	eec2 2a28 	vdiv.f32	s5, s4, s17
 80006c4:	ee12 1a90 	vmov	r1, s5
 80006c8:	f000 facc 	bl	8000c64 <PWMSP001_SetDutyCycle>
 80006cc:	78a0      	ldrb	r0, [r4, #2]
 80006ce:	ee03 0a10 	vmov	s6, r0
 80006d2:	eef8 3ac3 	vcvt.f32.s32	s7, s6
 80006d6:	4819      	ldr	r0, [pc, #100]	; (800073c <update_PWM_signals+0xb0>)
 80006d8:	ee23 4a88 	vmul.f32	s8, s7, s16
 80006dc:	eec4 4a29 	vdiv.f32	s9, s8, s19
 80006e0:	ee34 5a88 	vadd.f32	s10, s9, s16
 80006e4:	ee65 5a09 	vmul.f32	s11, s10, s18
 80006e8:	ee85 6aa8 	vdiv.f32	s12, s11, s17
 80006ec:	ee16 1a10 	vmov	r1, s12
 80006f0:	f000 fab8 	bl	8000c64 <PWMSP001_SetDutyCycle>
 80006f4:	7924      	ldrb	r4, [r4, #4]
 80006f6:	4812      	ldr	r0, [pc, #72]	; (8000740 <update_PWM_signals+0xb4>)
 80006f8:	ee06 4a90 	vmov	s13, r4
 80006fc:	eeb8 7ae6 	vcvt.f32.s32	s14, s13
 8000700:	ee67 7a08 	vmul.f32	s15, s14, s16
 8000704:	eec7 9aa9 	vdiv.f32	s19, s15, s19
 8000708:	ee39 8a88 	vadd.f32	s16, s19, s16
 800070c:	ee28 0a09 	vmul.f32	s0, s16, s18
 8000710:	ee80 9a28 	vdiv.f32	s18, s0, s17
 8000714:	ee19 1a10 	vmov	r1, s18
 8000718:	ecbd 8b04 	vpop	{d8-d9}
 800071c:	e8bd 4010 	ldmia.w	sp!, {r4, lr}
 8000720:	f000 baa0 	b.w	8000c64 <PWMSP001_SetDutyCycle>
 8000724:	20000033 	.word	0x20000033
 8000728:	08001be0 	.word	0x08001be0
 800072c:	3a83126f 	.word	0x3a83126f
 8000730:	437f0000 	.word	0x437f0000
 8000734:	42c80000 	.word	0x42c80000
 8000738:	3c888889 	.word	0x3c888889
 800073c:	08001b98 	.word	0x08001b98
 8000740:	08001b50 	.word	0x08001b50

08000744 <delay>:
 8000744:	f110 30ff 	adds.w	r0, r0, #4294967295
 8000748:	d301      	bcc.n	800074e <delay+0xa>
 800074a:	bf00      	nop
 800074c:	e7fa      	b.n	8000744 <delay>
 800074e:	4770      	bx	lr

08000750 <pulse_R>:
 8000750:	b538      	push	{r3, r4, r5, lr}
 8000752:	f44f 7096 	mov.w	r0, #300	; 0x12c
 8000756:	f7ff fff5 	bl	8000744 <delay>
 800075a:	4b08      	ldr	r3, [pc, #32]	; (800077c <pulse_R+0x2c>)
 800075c:	785d      	ldrb	r5, [r3, #1]
 800075e:	685c      	ldr	r4, [r3, #4]
 8000760:	2001      	movs	r0, #1
 8000762:	fa00 f005 	lsl.w	r0, r0, r5
 8000766:	6060      	str	r0, [r4, #4]
 8000768:	f44f 7096 	mov.w	r0, #300	; 0x12c
 800076c:	f7ff ffea 	bl	8000744 <delay>
 8000770:	f44f 3180 	mov.w	r1, #65536	; 0x10000
 8000774:	fa01 f505 	lsl.w	r5, r1, r5
 8000778:	6065      	str	r5, [r4, #4]
 800077a:	bd38      	pop	{r3, r4, r5, pc}
 800077c:	08001c40 	.word	0x08001c40

08000780 <configure_R>:
 8000780:	e92d 43f8 	stmdb	sp!, {r3, r4, r5, r6, r7, r8, r9, lr}
 8000784:	4b2e      	ldr	r3, [pc, #184]	; (8000840 <configure_R+0xc0>)
 8000786:	22c5      	movs	r2, #197	; 0xc5
 8000788:	204f      	movs	r0, #79	; 0x4f
 800078a:	21a3      	movs	r1, #163	; 0xa3
 800078c:	701a      	strb	r2, [r3, #0]
 800078e:	7058      	strb	r0, [r3, #1]
 8000790:	7099      	strb	r1, [r3, #2]
 8000792:	2000      	movs	r0, #0
 8000794:	24ee      	movs	r4, #238	; 0xee
 8000796:	25dd      	movs	r5, #221	; 0xdd
 8000798:	26cc      	movs	r6, #204	; 0xcc
 800079a:	27bb      	movs	r7, #187	; 0xbb
 800079c:	22aa      	movs	r2, #170	; 0xaa
 800079e:	2128      	movs	r1, #40	; 0x28
 80007a0:	70dc      	strb	r4, [r3, #3]
 80007a2:	711d      	strb	r5, [r3, #4]
 80007a4:	715e      	strb	r6, [r3, #5]
 80007a6:	719f      	strb	r7, [r3, #6]
 80007a8:	71da      	strb	r2, [r3, #7]
 80007aa:	7218      	strb	r0, [r3, #8]
 80007ac:	7258      	strb	r0, [r3, #9]
 80007ae:	7298      	strb	r0, [r3, #10]
 80007b0:	72d8      	strb	r0, [r3, #11]
 80007b2:	7318      	strb	r0, [r3, #12]
 80007b4:	7398      	strb	r0, [r3, #14]
 80007b6:	7359      	strb	r1, [r3, #13]
 80007b8:	4d22      	ldr	r5, [pc, #136]	; (8000844 <configure_R+0xc4>)
 80007ba:	4b23      	ldr	r3, [pc, #140]	; (8000848 <configure_R+0xc8>)
 80007bc:	f895 9001 	ldrb.w	r9, [r5, #1]
 80007c0:	785f      	ldrb	r7, [r3, #1]
 80007c2:	f8d5 8004 	ldr.w	r8, [r5, #4]
 80007c6:	685e      	ldr	r6, [r3, #4]
 80007c8:	f44f 3480 	mov.w	r4, #65536	; 0x10000
 80007cc:	2201      	movs	r2, #1
 80007ce:	fa04 f407 	lsl.w	r4, r4, r7
 80007d2:	fa02 f009 	lsl.w	r0, r2, r9
 80007d6:	6074      	str	r4, [r6, #4]
 80007d8:	250e      	movs	r5, #14
 80007da:	f8c8 0004 	str.w	r0, [r8, #4]
 80007de:	2407      	movs	r4, #7
 80007e0:	4b17      	ldr	r3, [pc, #92]	; (8000840 <configure_R+0xc0>)
 80007e2:	2101      	movs	r1, #1
 80007e4:	5ce8      	ldrb	r0, [r5, r3]
 80007e6:	4b19      	ldr	r3, [pc, #100]	; (800084c <configure_R+0xcc>)
 80007e8:	fa01 f204 	lsl.w	r2, r1, r4
 80007ec:	4202      	tst	r2, r0
 80007ee:	685a      	ldr	r2, [r3, #4]
 80007f0:	7858      	ldrb	r0, [r3, #1]
 80007f2:	d003      	beq.n	80007fc <configure_R+0x7c>
 80007f4:	fa01 f100 	lsl.w	r1, r1, r0
 80007f8:	6051      	str	r1, [r2, #4]
 80007fa:	e004      	b.n	8000806 <configure_R+0x86>
 80007fc:	f44f 3180 	mov.w	r1, #65536	; 0x10000
 8000800:	fa01 f300 	lsl.w	r3, r1, r0
 8000804:	6053      	str	r3, [r2, #4]
 8000806:	f7ff ffa3 	bl	8000750 <pulse_R>
 800080a:	f114 34ff 	adds.w	r4, r4, #4294967295
 800080e:	d2e7      	bcs.n	80007e0 <configure_R+0x60>
 8000810:	f115 35ff 	adds.w	r5, r5, #4294967295
 8000814:	d2e3      	bcs.n	80007de <configure_R+0x5e>
 8000816:	2103      	movs	r1, #3
 8000818:	480c      	ldr	r0, [pc, #48]	; (800084c <configure_R+0xcc>)
 800081a:	f000 ff3d 	bl	8001698 <IO004_DisableOutputDriver>
 800081e:	f44f 3280 	mov.w	r2, #65536	; 0x10000
 8000822:	fa02 f009 	lsl.w	r0, r2, r9
 8000826:	2101      	movs	r1, #1
 8000828:	f8c8 0004 	str.w	r0, [r8, #4]
 800082c:	fa01 f707 	lsl.w	r7, r1, r7
 8000830:	f24c 3050 	movw	r0, #50000	; 0xc350
 8000834:	6077      	str	r7, [r6, #4]
 8000836:	e8bd 43f8 	ldmia.w	sp!, {r3, r4, r5, r6, r7, r8, r9, lr}
 800083a:	f7ff bf83 	b.w	8000744 <delay>
 800083e:	bf00      	nop
 8000840:	20000024 	.word	0x20000024
 8000844:	08001c48 	.word	0x08001c48
 8000848:	08001c28 	.word	0x08001c28
 800084c:	08001c38 	.word	0x08001c38

08000850 <read_R>:
 8000850:	4b19      	ldr	r3, [pc, #100]	; (80008b8 <read_R+0x68>)
 8000852:	e92d 41f0 	stmdb	sp!, {r4, r5, r6, r7, r8, lr}
 8000856:	f893 8001 	ldrb.w	r8, [r3, #1]
 800085a:	685f      	ldr	r7, [r3, #4]
 800085c:	f44f 3080 	mov.w	r0, #65536	; 0x10000
 8000860:	fa00 f108 	lsl.w	r1, r0, r8
 8000864:	6079      	str	r1, [r7, #4]
 8000866:	f24c 3050 	movw	r0, #50000	; 0xc350
 800086a:	f7ff ff6b 	bl	8000744 <delay>
 800086e:	2500      	movs	r5, #0
 8000870:	2600      	movs	r6, #0
 8000872:	2407      	movs	r4, #7
 8000874:	4b11      	ldr	r3, [pc, #68]	; (80008bc <read_R+0x6c>)
 8000876:	685a      	ldr	r2, [r3, #4]
 8000878:	7859      	ldrb	r1, [r3, #1]
 800087a:	6a50      	ldr	r0, [r2, #36]	; 0x24
 800087c:	fa20 f301 	lsr.w	r3, r0, r1
 8000880:	07db      	lsls	r3, r3, #31
 8000882:	d504      	bpl.n	800088e <read_R+0x3e>
 8000884:	2201      	movs	r2, #1
 8000886:	fa02 f204 	lsl.w	r2, r2, r4
 800088a:	4316      	orrs	r6, r2
 800088c:	b2f6      	uxtb	r6, r6
 800088e:	f7ff ff5f 	bl	8000750 <pulse_R>
 8000892:	f114 34ff 	adds.w	r4, r4, #4294967295
 8000896:	d2ed      	bcs.n	8000874 <read_R+0x24>
 8000898:	4809      	ldr	r0, [pc, #36]	; (80008c0 <read_R+0x70>)
 800089a:	542e      	strb	r6, [r5, r0]
 800089c:	3501      	adds	r5, #1
 800089e:	2d05      	cmp	r5, #5
 80008a0:	d1e6      	bne.n	8000870 <read_R+0x20>
 80008a2:	2101      	movs	r1, #1
 80008a4:	fa01 f308 	lsl.w	r3, r1, r8
 80008a8:	f24c 3050 	movw	r0, #50000	; 0xc350
 80008ac:	607b      	str	r3, [r7, #4]
 80008ae:	e8bd 41f0 	ldmia.w	sp!, {r4, r5, r6, r7, r8, lr}
 80008b2:	f7ff bf47 	b.w	8000744 <delay>
 80008b6:	bf00      	nop
 80008b8:	08001c28 	.word	0x08001c28
 80008bc:	08001c38 	.word	0x08001c38
 80008c0:	20000033 	.word	0x20000033

080008c4 <main>:
 80008c4:	b508      	push	{r3, lr}
 80008c6:	f000 ff99 	bl	80017fc <DAVE_Init>
 80008ca:	f7ff ff59 	bl	8000780 <configure_R>
 80008ce:	f7ff fea7 	bl	8000620 <start_PWM_signals>
 80008d2:	4b07      	ldr	r3, [pc, #28]	; (80008f0 <main+0x2c>)
 80008d4:	7858      	ldrb	r0, [r3, #1]
 80008d6:	685a      	ldr	r2, [r3, #4]
 80008d8:	2101      	movs	r1, #1
 80008da:	fa01 f100 	lsl.w	r1, r1, r0
 80008de:	6a53      	ldr	r3, [r2, #36]	; 0x24
 80008e0:	4219      	tst	r1, r3
 80008e2:	d0fc      	beq.n	80008de <main+0x1a>
 80008e4:	f7ff ffb4 	bl	8000850 <read_R>
 80008e8:	f7ff fed0 	bl	800068c <update_PWM_signals>
 80008ec:	e7f1      	b.n	80008d2 <main+0xe>
 80008ee:	bf00      	nop
 80008f0:	08001c30 	.word	0x08001c30

080008f4 <_open>:
 80008f4:	f04f 30ff 	mov.w	r0, #4294967295
 80008f8:	4770      	bx	lr

080008fa <_lseek>:
 80008fa:	f04f 30ff 	mov.w	r0, #4294967295
 80008fe:	4770      	bx	lr

08000900 <_read>:
 8000900:	2000      	movs	r0, #0
 8000902:	4770      	bx	lr

08000904 <_write>:
 8000904:	f04f 30ff 	mov.w	r0, #4294967295
 8000908:	4770      	bx	lr

0800090a <_close>:
 800090a:	f04f 30ff 	mov.w	r0, #4294967295
 800090e:	4770      	bx	lr

08000910 <_fstat>:
 8000910:	2900      	cmp	r1, #0
 8000912:	bf0c      	ite	eq
 8000914:	f06f 0001 	mvneq.w	r0, #1
 8000918:	f04f 30ff 	movne.w	r0, #4294967295
 800091c:	4770      	bx	lr

0800091e <_link>:
 800091e:	4281      	cmp	r1, r0
 8000920:	bf14      	ite	ne
 8000922:	f06f 0001 	mvnne.w	r0, #1
 8000926:	f04f 30ff 	moveq.w	r0, #4294967295
 800092a:	4770      	bx	lr

0800092c <_unlink>:
 800092c:	f04f 30ff 	mov.w	r0, #4294967295
 8000930:	4770      	bx	lr
	...

08000934 <_sbrk>:
 8000934:	4b0a      	ldr	r3, [pc, #40]	; (8000960 <_sbrk+0x2c>)
 8000936:	681a      	ldr	r2, [r3, #0]
 8000938:	b922      	cbnz	r2, 8000944 <_sbrk+0x10>
 800093a:	4a0a      	ldr	r2, [pc, #40]	; (8000964 <_sbrk+0x30>)
 800093c:	490a      	ldr	r1, [pc, #40]	; (8000968 <_sbrk+0x34>)
 800093e:	601a      	str	r2, [r3, #0]
 8000940:	1852      	adds	r2, r2, r1
 8000942:	605a      	str	r2, [r3, #4]
 8000944:	681a      	ldr	r2, [r3, #0]
 8000946:	685b      	ldr	r3, [r3, #4]
 8000948:	1dd1      	adds	r1, r2, #7
 800094a:	1808      	adds	r0, r1, r0
 800094c:	f020 0107 	bic.w	r1, r0, #7
 8000950:	4299      	cmp	r1, r3
 8000952:	bf3a      	itte	cc
 8000954:	4b02      	ldrcc	r3, [pc, #8]	; (8000960 <_sbrk+0x2c>)
 8000956:	6019      	strcc	r1, [r3, #0]
 8000958:	2200      	movcs	r2, #0
 800095a:	4610      	mov	r0, r2
 800095c:	4770      	bx	lr
 800095e:	bf00      	nop
 8000960:	20000008 	.word	0x20000008
 8000964:	20000038 	.word	0x20000038
 8000968:	0000ffc8 	.word	0x0000ffc8

0800096c <_times>:
 800096c:	f04f 30ff 	mov.w	r0, #4294967295
 8000970:	4770      	bx	lr

08000972 <_wait>:
 8000972:	f04f 30ff 	mov.w	r0, #4294967295
 8000976:	4770      	bx	lr

08000978 <_kill>:
 8000978:	f04f 30ff 	mov.w	r0, #4294967295
 800097c:	4770      	bx	lr

0800097e <_fork>:
 800097e:	f04f 30ff 	mov.w	r0, #4294967295
 8000982:	4770      	bx	lr

08000984 <_getpid>:
 8000984:	f04f 30ff 	mov.w	r0, #4294967295
 8000988:	4770      	bx	lr

0800098a <_exit>:
 800098a:	e7fe      	b.n	800098a <_exit>

0800098c <_init>:
 800098c:	4770      	bx	lr

0800098e <_isatty>:
 800098e:	f04f 30ff 	mov.w	r0, #4294967295
 8000992:	4770      	bx	lr

08000994 <RESET001_AssertReset>:
 8000994:	0f03      	lsrs	r3, r0, #28
 8000996:	220c      	movs	r2, #12
 8000998:	435a      	muls	r2, r3
 800099a:	4902      	ldr	r1, [pc, #8]	; (80009a4 <RESET001_AssertReset+0x10>)
 800099c:	f020 4070 	bic.w	r0, r0, #4026531840	; 0xf0000000
 80009a0:	5050      	str	r0, [r2, r1]
 80009a2:	4770      	bx	lr
 80009a4:	50004410 	.word	0x50004410

080009a8 <RESET001_DeassertReset>:
 80009a8:	0f03      	lsrs	r3, r0, #28
 80009aa:	220c      	movs	r2, #12
 80009ac:	435a      	muls	r2, r3
 80009ae:	4902      	ldr	r1, [pc, #8]	; (80009b8 <RESET001_DeassertReset+0x10>)
 80009b0:	f020 4070 	bic.w	r0, r0, #4026531840	; 0xf0000000
 80009b4:	5050      	str	r0, [r2, r1]
 80009b6:	4770      	bx	lr
 80009b8:	50004414 	.word	0x50004414

080009bc <RESET001_GetResetInfo>:
 80009bc:	4b01      	ldr	r3, [pc, #4]	; (80009c4 <RESET001_GetResetInfo+0x8>)
 80009be:	6818      	ldr	r0, [r3, #0]
 80009c0:	b2c0      	uxtb	r0, r0
 80009c2:	4770      	bx	lr
 80009c4:	50004400 	.word	0x50004400

080009c8 <RESET001_GetStatus>:
 80009c8:	f020 4270 	bic.w	r2, r0, #4026531840	; 0xf0000000
 80009cc:	230c      	movs	r3, #12
 80009ce:	0f00      	lsrs	r0, r0, #28
 80009d0:	4358      	muls	r0, r3
 80009d2:	4903      	ldr	r1, [pc, #12]	; (80009e0 <RESET001_GetStatus+0x18>)
 80009d4:	5840      	ldr	r0, [r0, r1]
 80009d6:	4202      	tst	r2, r0
 80009d8:	bf0c      	ite	eq
 80009da:	2000      	moveq	r0, #0
 80009dc:	2001      	movne	r0, #1
 80009de:	4770      	bx	lr
 80009e0:	5000440c 	.word	0x5000440c

080009e4 <RESET001_ClearResetInfo>:
 80009e4:	4b02      	ldr	r3, [pc, #8]	; (80009f0 <RESET001_ClearResetInfo+0xc>)
 80009e6:	689a      	ldr	r2, [r3, #8]
 80009e8:	f042 0001 	orr.w	r0, r2, #1
 80009ec:	6098      	str	r0, [r3, #8]
 80009ee:	4770      	bx	lr
 80009f0:	50004400 	.word	0x50004400

080009f4 <PWMSP001_Deinit>:
 80009f4:	e92d 41f0 	stmdb	sp!, {r4, r5, r6, r7, r8, lr}
 80009f8:	6bc4      	ldr	r4, [r0, #60]	; 0x3c
 80009fa:	7823      	ldrb	r3, [r4, #0]
 80009fc:	2b00      	cmp	r3, #0
 80009fe:	d03d      	beq.n	8000a7c <PWMSP001_Deinit+0x88>
 8000a00:	6982      	ldr	r2, [r0, #24]
 8000a02:	6941      	ldr	r1, [r0, #20]
 8000a04:	2300      	movs	r3, #0
 8000a06:	2707      	movs	r7, #7
 8000a08:	f640 760f 	movw	r6, #3855	; 0xf0f
 8000a0c:	6117      	str	r7, [r2, #16]
 8000a0e:	f8c2 60b0 	str.w	r6, [r2, #176]	; 0xb0
 8000a12:	f8c2 30a4 	str.w	r3, [r2, #164]	; 0xa4
 8000a16:	688d      	ldr	r5, [r1, #8]
 8000a18:	f445 7c40 	orr.w	ip, r5, #768	; 0x300
 8000a1c:	f890 5037 	ldrb.w	r5, [r0, #55]	; 0x37
 8000a20:	f04f 0801 	mov.w	r8, #1
 8000a24:	fa08 f505 	lsl.w	r5, r8, r5
 8000a28:	ea4c 0505 	orr.w	r5, ip, r5
 8000a2c:	608d      	str	r5, [r1, #8]
 8000a2e:	6013      	str	r3, [r2, #0]
 8000a30:	6053      	str	r3, [r2, #4]
 8000a32:	6153      	str	r3, [r2, #20]
 8000a34:	6253      	str	r3, [r2, #36]	; 0x24
 8000a36:	6193      	str	r3, [r2, #24]
 8000a38:	6213      	str	r3, [r2, #32]
 8000a3a:	63d3      	str	r3, [r2, #60]	; 0x3c
 8000a3c:	6353      	str	r3, [r2, #52]	; 0x34
 8000a3e:	f890 5020 	ldrb.w	r5, [r0, #32]
 8000a42:	4545      	cmp	r5, r8
 8000a44:	d116      	bne.n	8000a74 <PWMSP001_Deinit+0x80>
 8000a46:	69c2      	ldr	r2, [r0, #28]
 8000a48:	f890 0038 	ldrb.w	r0, [r0, #56]	; 0x38
 8000a4c:	6117      	str	r7, [r2, #16]
 8000a4e:	f8c2 60b0 	str.w	r6, [r2, #176]	; 0xb0
 8000a52:	f8c2 30a4 	str.w	r3, [r2, #164]	; 0xa4
 8000a56:	688e      	ldr	r6, [r1, #8]
 8000a58:	fa05 f500 	lsl.w	r5, r5, r0
 8000a5c:	f446 7640 	orr.w	r6, r6, #768	; 0x300
 8000a60:	4335      	orrs	r5, r6
 8000a62:	608d      	str	r5, [r1, #8]
 8000a64:	6013      	str	r3, [r2, #0]
 8000a66:	6053      	str	r3, [r2, #4]
 8000a68:	6153      	str	r3, [r2, #20]
 8000a6a:	6253      	str	r3, [r2, #36]	; 0x24
 8000a6c:	6193      	str	r3, [r2, #24]
 8000a6e:	6213      	str	r3, [r2, #32]
 8000a70:	63d3      	str	r3, [r2, #60]	; 0x3c
 8000a72:	6353      	str	r3, [r2, #52]	; 0x34
 8000a74:	2000      	movs	r0, #0
 8000a76:	7020      	strb	r0, [r4, #0]
 8000a78:	e8bd 81f0 	ldmia.w	sp!, {r4, r5, r6, r7, r8, pc}
 8000a7c:	2001      	movs	r0, #1
 8000a7e:	e8bd 81f0 	ldmia.w	sp!, {r4, r5, r6, r7, r8, pc}

08000a82 <PWMSP001_Start>:
 8000a82:	6bc1      	ldr	r1, [r0, #60]	; 0x3c
 8000a84:	780b      	ldrb	r3, [r1, #0]
 8000a86:	2b01      	cmp	r3, #1
 8000a88:	b570      	push	{r4, r5, r6, lr}
 8000a8a:	d001      	beq.n	8000a90 <PWMSP001_Start+0xe>
 8000a8c:	2b03      	cmp	r3, #3
 8000a8e:	d162      	bne.n	8000b56 <PWMSP001_Start+0xd4>
 8000a90:	6983      	ldr	r3, [r0, #24]
 8000a92:	f890 4037 	ldrb.w	r4, [r0, #55]	; 0x37
 8000a96:	f640 720f 	movw	r2, #3855	; 0xf0f
 8000a9a:	f8c3 20b0 	str.w	r2, [r3, #176]	; 0xb0
 8000a9e:	6942      	ldr	r2, [r0, #20]
 8000aa0:	2601      	movs	r6, #1
 8000aa2:	68d5      	ldr	r5, [r2, #12]
 8000aa4:	fa06 f404 	lsl.w	r4, r6, r4
 8000aa8:	432c      	orrs	r4, r5
 8000aaa:	60d4      	str	r4, [r2, #12]
 8000aac:	f890 4020 	ldrb.w	r4, [r0, #32]
 8000ab0:	42b4      	cmp	r4, r6
 8000ab2:	d106      	bne.n	8000ac2 <PWMSP001_Start+0x40>
 8000ab4:	f890 6038 	ldrb.w	r6, [r0, #56]	; 0x38
 8000ab8:	68d5      	ldr	r5, [r2, #12]
 8000aba:	fa04 f406 	lsl.w	r4, r4, r6
 8000abe:	432c      	orrs	r4, r5
 8000ac0:	60d4      	str	r4, [r2, #12]
 8000ac2:	7b82      	ldrb	r2, [r0, #14]
 8000ac4:	b96a      	cbnz	r2, 8000ae2 <PWMSP001_Start+0x60>
 8000ac6:	68da      	ldr	r2, [r3, #12]
 8000ac8:	f042 0201 	orr.w	r2, r2, #1
 8000acc:	60da      	str	r2, [r3, #12]
 8000ace:	f890 3020 	ldrb.w	r3, [r0, #32]
 8000ad2:	2b01      	cmp	r3, #1
 8000ad4:	d13b      	bne.n	8000b4e <PWMSP001_Start+0xcc>
 8000ad6:	69c0      	ldr	r0, [r0, #28]
 8000ad8:	68c2      	ldr	r2, [r0, #12]
 8000ada:	f042 0301 	orr.w	r3, r2, #1
 8000ade:	60c3      	str	r3, [r0, #12]
 8000ae0:	e035      	b.n	8000b4e <PWMSP001_Start+0xcc>
 8000ae2:	2a01      	cmp	r2, #1
 8000ae4:	d115      	bne.n	8000b12 <PWMSP001_Start+0x90>
 8000ae6:	681c      	ldr	r4, [r3, #0]
 8000ae8:	f024 62c0 	bic.w	r2, r4, #100663296	; 0x6000000
 8000aec:	f422 3440 	bic.w	r4, r2, #196608	; 0x30000
 8000af0:	601c      	str	r4, [r3, #0]
 8000af2:	685a      	ldr	r2, [r3, #4]
 8000af4:	f022 0403 	bic.w	r4, r2, #3
 8000af8:	f890 2023 	ldrb.w	r2, [r0, #35]	; 0x23
 8000afc:	605c      	str	r4, [r3, #4]
 8000afe:	681c      	ldr	r4, [r3, #0]
 8000b00:	0412      	lsls	r2, r2, #16
 8000b02:	f402 3240 	and.w	r2, r2, #196608	; 0x30000
 8000b06:	4322      	orrs	r2, r4
 8000b08:	601a      	str	r2, [r3, #0]
 8000b0a:	685a      	ldr	r2, [r3, #4]
 8000b0c:	f042 0201 	orr.w	r2, r2, #1
 8000b10:	605a      	str	r2, [r3, #4]
 8000b12:	7b83      	ldrb	r3, [r0, #14]
 8000b14:	2b01      	cmp	r3, #1
 8000b16:	d11a      	bne.n	8000b4e <PWMSP001_Start+0xcc>
 8000b18:	f890 2020 	ldrb.w	r2, [r0, #32]
 8000b1c:	2a01      	cmp	r2, #1
 8000b1e:	d116      	bne.n	8000b4e <PWMSP001_Start+0xcc>
 8000b20:	69c3      	ldr	r3, [r0, #28]
 8000b22:	f890 0023 	ldrb.w	r0, [r0, #35]	; 0x23
 8000b26:	681c      	ldr	r4, [r3, #0]
 8000b28:	f024 62c0 	bic.w	r2, r4, #100663296	; 0x6000000
 8000b2c:	f422 3440 	bic.w	r4, r2, #196608	; 0x30000
 8000b30:	601c      	str	r4, [r3, #0]
 8000b32:	685a      	ldr	r2, [r3, #4]
 8000b34:	f022 0403 	bic.w	r4, r2, #3
 8000b38:	605c      	str	r4, [r3, #4]
 8000b3a:	681c      	ldr	r4, [r3, #0]
 8000b3c:	0402      	lsls	r2, r0, #16
 8000b3e:	f402 3040 	and.w	r0, r2, #196608	; 0x30000
 8000b42:	4320      	orrs	r0, r4
 8000b44:	6018      	str	r0, [r3, #0]
 8000b46:	685a      	ldr	r2, [r3, #4]
 8000b48:	f042 0001 	orr.w	r0, r2, #1
 8000b4c:	6058      	str	r0, [r3, #4]
 8000b4e:	2002      	movs	r0, #2
 8000b50:	7008      	strb	r0, [r1, #0]
 8000b52:	2000      	movs	r0, #0
 8000b54:	bd70      	pop	{r4, r5, r6, pc}
 8000b56:	2001      	movs	r0, #1
 8000b58:	bd70      	pop	{r4, r5, r6, pc}

08000b5a <PWMSP001_Stop>:
 8000b5a:	6bc2      	ldr	r2, [r0, #60]	; 0x3c
 8000b5c:	7813      	ldrb	r3, [r2, #0]
 8000b5e:	2b02      	cmp	r3, #2
 8000b60:	b570      	push	{r4, r5, r6, lr}
 8000b62:	d120      	bne.n	8000ba6 <PWMSP001_Stop+0x4c>
 8000b64:	6981      	ldr	r1, [r0, #24]
 8000b66:	6943      	ldr	r3, [r0, #20]
 8000b68:	f890 6037 	ldrb.w	r6, [r0, #55]	; 0x37
 8000b6c:	2407      	movs	r4, #7
 8000b6e:	610c      	str	r4, [r1, #16]
 8000b70:	689d      	ldr	r5, [r3, #8]
 8000b72:	2101      	movs	r1, #1
 8000b74:	f445 7500 	orr.w	r5, r5, #512	; 0x200
 8000b78:	fa01 f106 	lsl.w	r1, r1, r6
 8000b7c:	4329      	orrs	r1, r5
 8000b7e:	6099      	str	r1, [r3, #8]
 8000b80:	f890 1020 	ldrb.w	r1, [r0, #32]
 8000b84:	2901      	cmp	r1, #1
 8000b86:	d10a      	bne.n	8000b9e <PWMSP001_Stop+0x44>
 8000b88:	69c5      	ldr	r5, [r0, #28]
 8000b8a:	f890 0038 	ldrb.w	r0, [r0, #56]	; 0x38
 8000b8e:	612c      	str	r4, [r5, #16]
 8000b90:	689c      	ldr	r4, [r3, #8]
 8000b92:	fa01 f100 	lsl.w	r1, r1, r0
 8000b96:	f444 7400 	orr.w	r4, r4, #512	; 0x200
 8000b9a:	4321      	orrs	r1, r4
 8000b9c:	6099      	str	r1, [r3, #8]
 8000b9e:	2303      	movs	r3, #3
 8000ba0:	7013      	strb	r3, [r2, #0]
 8000ba2:	2000      	movs	r0, #0
 8000ba4:	bd70      	pop	{r4, r5, r6, pc}
 8000ba6:	2001      	movs	r0, #1
 8000ba8:	bd70      	pop	{r4, r5, r6, pc}

08000baa <PWMSP001_SetCompare>:
 8000baa:	b538      	push	{r3, r4, r5, lr}
 8000bac:	f890 2020 	ldrb.w	r2, [r0, #32]
 8000bb0:	6984      	ldr	r4, [r0, #24]
 8000bb2:	2a01      	cmp	r2, #1
 8000bb4:	d105      	bne.n	8000bc2 <PWMSP001_SetCompare+0x18>
 8000bb6:	69c5      	ldr	r5, [r0, #28]
 8000bb8:	6b6d      	ldr	r5, [r5, #52]	; 0x34
 8000bba:	6b64      	ldr	r4, [r4, #52]	; 0x34
 8000bbc:	ea44 4305 	orr.w	r3, r4, r5, lsl #16
 8000bc0:	e000      	b.n	8000bc4 <PWMSP001_SetCompare+0x1a>
 8000bc2:	6b63      	ldr	r3, [r4, #52]	; 0x34
 8000bc4:	6bc4      	ldr	r4, [r0, #60]	; 0x3c
 8000bc6:	7824      	ldrb	r4, [r4, #0]
 8000bc8:	b154      	cbz	r4, 8000be0 <PWMSP001_SetCompare+0x36>
 8000bca:	6ac4      	ldr	r4, [r0, #44]	; 0x2c
 8000bcc:	42a1      	cmp	r1, r4
 8000bce:	d900      	bls.n	8000bd2 <PWMSP001_SetCompare+0x28>
 8000bd0:	b142      	cbz	r2, 8000be4 <PWMSP001_SetCompare+0x3a>
 8000bd2:	4299      	cmp	r1, r3
 8000bd4:	bf28      	it	cs
 8000bd6:	1c59      	addcs	r1, r3, #1
 8000bd8:	6c02      	ldr	r2, [r0, #64]	; 0x40
 8000bda:	4790      	blx	r2
 8000bdc:	2000      	movs	r0, #0
 8000bde:	bd38      	pop	{r3, r4, r5, pc}
 8000be0:	2001      	movs	r0, #1
 8000be2:	bd38      	pop	{r3, r4, r5, pc}
 8000be4:	2002      	movs	r0, #2
 8000be6:	bd38      	pop	{r3, r4, r5, pc}

08000be8 <PWMSP001_lSetCompareEdgeAlign>:
 8000be8:	6983      	ldr	r3, [r0, #24]
 8000bea:	f890 2037 	ldrb.w	r2, [r0, #55]	; 0x37
 8000bee:	b289      	uxth	r1, r1
 8000bf0:	63d9      	str	r1, [r3, #60]	; 0x3c
 8000bf2:	6943      	ldr	r3, [r0, #20]
 8000bf4:	0092      	lsls	r2, r2, #2
 8000bf6:	6919      	ldr	r1, [r3, #16]
 8000bf8:	2001      	movs	r0, #1
 8000bfa:	fa00 f202 	lsl.w	r2, r0, r2
 8000bfe:	430a      	orrs	r2, r1
 8000c00:	611a      	str	r2, [r3, #16]
 8000c02:	4770      	bx	lr

08000c04 <PWMSP001_lSetCompareEdgeAlignTimerConcat>:
 8000c04:	6983      	ldr	r3, [r0, #24]
 8000c06:	6b5a      	ldr	r2, [r3, #52]	; 0x34
 8000c08:	b292      	uxth	r2, r2
 8000c0a:	b530      	push	{r4, r5, lr}
 8000c0c:	6b5c      	ldr	r4, [r3, #52]	; 0x34
 8000c0e:	fbb1 f5f2 	udiv	r5, r1, r2
 8000c12:	fb02 1215 	mls	r2, r2, r5, r1
 8000c16:	b292      	uxth	r2, r2
 8000c18:	b2a4      	uxth	r4, r4
 8000c1a:	63da      	str	r2, [r3, #60]	; 0x3c
 8000c1c:	fbb1 f1f4 	udiv	r1, r1, r4
 8000c20:	69c3      	ldr	r3, [r0, #28]
 8000c22:	f890 4037 	ldrb.w	r4, [r0, #55]	; 0x37
 8000c26:	b28a      	uxth	r2, r1
 8000c28:	63da      	str	r2, [r3, #60]	; 0x3c
 8000c2a:	6943      	ldr	r3, [r0, #20]
 8000c2c:	f890 0038 	ldrb.w	r0, [r0, #56]	; 0x38
 8000c30:	6919      	ldr	r1, [r3, #16]
 8000c32:	2201      	movs	r2, #1
 8000c34:	00a4      	lsls	r4, r4, #2
 8000c36:	0080      	lsls	r0, r0, #2
 8000c38:	fa02 f404 	lsl.w	r4, r2, r4
 8000c3c:	fa02 f200 	lsl.w	r2, r2, r0
 8000c40:	4322      	orrs	r2, r4
 8000c42:	430a      	orrs	r2, r1
 8000c44:	611a      	str	r2, [r3, #16]
 8000c46:	bd30      	pop	{r4, r5, pc}

08000c48 <PWMSP001_lSetCompareCenterAlign>:
 8000c48:	6983      	ldr	r3, [r0, #24]
 8000c4a:	f890 2037 	ldrb.w	r2, [r0, #55]	; 0x37
 8000c4e:	b289      	uxth	r1, r1
 8000c50:	63d9      	str	r1, [r3, #60]	; 0x3c
 8000c52:	6943      	ldr	r3, [r0, #20]
 8000c54:	0092      	lsls	r2, r2, #2
 8000c56:	6919      	ldr	r1, [r3, #16]
 8000c58:	2001      	movs	r0, #1
 8000c5a:	fa00 f202 	lsl.w	r2, r0, r2
 8000c5e:	430a      	orrs	r2, r1
 8000c60:	611a      	str	r2, [r3, #16]
 8000c62:	4770      	bx	lr

08000c64 <PWMSP001_SetDutyCycle>:
 8000c64:	6bc2      	ldr	r2, [r0, #60]	; 0x3c
 8000c66:	7812      	ldrb	r2, [r2, #0]
 8000c68:	b508      	push	{r3, lr}
 8000c6a:	ee07 1a90 	vmov	s15, r1
 8000c6e:	b17a      	cbz	r2, 8000c90 <PWMSP001_SetDutyCycle+0x2c>
 8000c70:	ed9f 7a09 	vldr	s14, [pc, #36]	; 8000c98 <PWMSP001_SetDutyCycle+0x34>
 8000c74:	eef4 7ac7 	vcmpe.f32	s15, s14
 8000c78:	eef1 fa10 	vmrs	APSR_nzcv, fpscr
 8000c7c:	dc0a      	bgt.n	8000c94 <PWMSP001_SetDutyCycle+0x30>
 8000c7e:	eef5 7ac0 	vcmpe.f32	s15, #0.0
 8000c82:	eef1 fa10 	vmrs	APSR_nzcv, fpscr
 8000c86:	d405      	bmi.n	8000c94 <PWMSP001_SetDutyCycle+0x30>
 8000c88:	6c43      	ldr	r3, [r0, #68]	; 0x44
 8000c8a:	4798      	blx	r3
 8000c8c:	2000      	movs	r0, #0
 8000c8e:	bd08      	pop	{r3, pc}
 8000c90:	2001      	movs	r0, #1
 8000c92:	bd08      	pop	{r3, pc}
 8000c94:	2002      	movs	r0, #2
 8000c96:	bd08      	pop	{r3, pc}
 8000c98:	42c80000 	.word	0x42c80000

08000c9c <PWMSP001_lSetDutyEdgeAlign>:
 8000c9c:	eddf 7a10 	vldr	s15, [pc, #64]	; 8000ce0 <PWMSP001_lSetDutyEdgeAlign+0x44>
 8000ca0:	ee00 1a10 	vmov	s0, r1
 8000ca4:	ee77 6ac0 	vsub.f32	s13, s15, s0
 8000ca8:	6983      	ldr	r3, [r0, #24]
 8000caa:	eec6 0aa7 	vdiv.f32	s1, s13, s15
 8000cae:	6b5a      	ldr	r2, [r3, #52]	; 0x34
 8000cb0:	3201      	adds	r2, #1
 8000cb2:	ee06 2a10 	vmov	s12, r2
 8000cb6:	eeb8 7a46 	vcvt.f32.u32	s14, s12
 8000cba:	ee27 1a20 	vmul.f32	s2, s14, s1
 8000cbe:	eefc 1ac1 	vcvt.u32.f32	s3, s2
 8000cc2:	ee11 1a90 	vmov	r1, s3
 8000cc6:	b28a      	uxth	r2, r1
 8000cc8:	63da      	str	r2, [r3, #60]	; 0x3c
 8000cca:	6943      	ldr	r3, [r0, #20]
 8000ccc:	f890 0037 	ldrb.w	r0, [r0, #55]	; 0x37
 8000cd0:	6919      	ldr	r1, [r3, #16]
 8000cd2:	0082      	lsls	r2, r0, #2
 8000cd4:	2001      	movs	r0, #1
 8000cd6:	fa00 f202 	lsl.w	r2, r0, r2
 8000cda:	430a      	orrs	r2, r1
 8000cdc:	611a      	str	r2, [r3, #16]
 8000cde:	4770      	bx	lr
 8000ce0:	42c80000 	.word	0x42c80000

08000ce4 <PWMSP001_lSetDutyEdgeAlignTimerConcat>:
 8000ce4:	eddf 7a1d 	vldr	s15, [pc, #116]	; 8000d5c <PWMSP001_lSetDutyEdgeAlignTimerConcat+0x78>
 8000ce8:	ee00 1a10 	vmov	s0, r1
 8000cec:	ee77 6ac0 	vsub.f32	s13, s15, s0
 8000cf0:	6983      	ldr	r3, [r0, #24]
 8000cf2:	eec6 0aa7 	vdiv.f32	s1, s13, s15
 8000cf6:	b530      	push	{r4, r5, lr}
 8000cf8:	69c4      	ldr	r4, [r0, #28]
 8000cfa:	6b65      	ldr	r5, [r4, #52]	; 0x34
 8000cfc:	6b5a      	ldr	r2, [r3, #52]	; 0x34
 8000cfe:	6b59      	ldr	r1, [r3, #52]	; 0x34
 8000d00:	b292      	uxth	r2, r2
 8000d02:	3501      	adds	r5, #1
 8000d04:	3201      	adds	r2, #1
 8000d06:	436a      	muls	r2, r5
 8000d08:	1c55      	adds	r5, r2, #1
 8000d0a:	ee06 5a10 	vmov	s12, r5
 8000d0e:	eeb8 7a46 	vcvt.f32.u32	s14, s12
 8000d12:	b289      	uxth	r1, r1
 8000d14:	ee27 1a20 	vmul.f32	s2, s14, s1
 8000d18:	eefc 1ac1 	vcvt.u32.f32	s3, s2
 8000d1c:	ee11 2a90 	vmov	r2, s3
 8000d20:	fbb2 f5f1 	udiv	r5, r2, r1
 8000d24:	fb01 2115 	mls	r1, r1, r5, r2
 8000d28:	b289      	uxth	r1, r1
 8000d2a:	63d9      	str	r1, [r3, #60]	; 0x3c
 8000d2c:	6b5b      	ldr	r3, [r3, #52]	; 0x34
 8000d2e:	b299      	uxth	r1, r3
 8000d30:	fbb2 f2f1 	udiv	r2, r2, r1
 8000d34:	b293      	uxth	r3, r2
 8000d36:	63e3      	str	r3, [r4, #60]	; 0x3c
 8000d38:	6943      	ldr	r3, [r0, #20]
 8000d3a:	f890 4037 	ldrb.w	r4, [r0, #55]	; 0x37
 8000d3e:	f890 0038 	ldrb.w	r0, [r0, #56]	; 0x38
 8000d42:	6919      	ldr	r1, [r3, #16]
 8000d44:	2201      	movs	r2, #1
 8000d46:	00a4      	lsls	r4, r4, #2
 8000d48:	0080      	lsls	r0, r0, #2
 8000d4a:	fa02 f404 	lsl.w	r4, r2, r4
 8000d4e:	fa02 f200 	lsl.w	r2, r2, r0
 8000d52:	4322      	orrs	r2, r4
 8000d54:	430a      	orrs	r2, r1
 8000d56:	611a      	str	r2, [r3, #16]
 8000d58:	bd30      	pop	{r4, r5, pc}
 8000d5a:	bf00      	nop
 8000d5c:	42c80000 	.word	0x42c80000

08000d60 <PWMSP001_lSetDutyCenterAlign>:
 8000d60:	eddf 7a0f 	vldr	s15, [pc, #60]	; 8000da0 <PWMSP001_lSetDutyCenterAlign+0x40>
 8000d64:	ee06 1a10 	vmov	s12, r1
 8000d68:	ee77 6ac6 	vsub.f32	s13, s15, s12
 8000d6c:	6983      	ldr	r3, [r0, #24]
 8000d6e:	eec6 0aa7 	vdiv.f32	s1, s13, s15
 8000d72:	ed93 7a0d 	vldr	s14, [r3, #52]	; 0x34
 8000d76:	eeb8 0a47 	vcvt.f32.u32	s0, s14
 8000d7a:	ee20 1a20 	vmul.f32	s2, s0, s1
 8000d7e:	eefc 1ac1 	vcvt.u32.f32	s3, s2
 8000d82:	ee11 2a90 	vmov	r2, s3
 8000d86:	b291      	uxth	r1, r2
 8000d88:	63d9      	str	r1, [r3, #60]	; 0x3c
 8000d8a:	6943      	ldr	r3, [r0, #20]
 8000d8c:	f890 0037 	ldrb.w	r0, [r0, #55]	; 0x37
 8000d90:	6919      	ldr	r1, [r3, #16]
 8000d92:	0082      	lsls	r2, r0, #2
 8000d94:	2001      	movs	r0, #1
 8000d96:	fa00 f202 	lsl.w	r2, r0, r2
 8000d9a:	430a      	orrs	r2, r1
 8000d9c:	611a      	str	r2, [r3, #16]
 8000d9e:	4770      	bx	lr
 8000da0:	42c80000 	.word	0x42c80000

08000da4 <PWMSP001_SetPeriodAndCompare>:
 8000da4:	6bc3      	ldr	r3, [r0, #60]	; 0x3c
 8000da6:	781b      	ldrb	r3, [r3, #0]
 8000da8:	b510      	push	{r4, lr}
 8000daa:	b1d3      	cbz	r3, 8000de2 <PWMSP001_SetPeriodAndCompare+0x3e>
 8000dac:	b1d9      	cbz	r1, 8000de6 <PWMSP001_SetPeriodAndCompare+0x42>
 8000dae:	6ac3      	ldr	r3, [r0, #44]	; 0x2c
 8000db0:	429a      	cmp	r2, r3
 8000db2:	d902      	bls.n	8000dba <PWMSP001_SetPeriodAndCompare+0x16>
 8000db4:	f890 4020 	ldrb.w	r4, [r0, #32]
 8000db8:	b1ac      	cbz	r4, 8000de6 <PWMSP001_SetPeriodAndCompare+0x42>
 8000dba:	4299      	cmp	r1, r3
 8000dbc:	f890 3020 	ldrb.w	r3, [r0, #32]
 8000dc0:	d902      	bls.n	8000dc8 <PWMSP001_SetPeriodAndCompare+0x24>
 8000dc2:	2b01      	cmp	r3, #1
 8000dc4:	d10f      	bne.n	8000de6 <PWMSP001_SetPeriodAndCompare+0x42>
 8000dc6:	e001      	b.n	8000dcc <PWMSP001_SetPeriodAndCompare+0x28>
 8000dc8:	2b01      	cmp	r3, #1
 8000dca:	d102      	bne.n	8000dd2 <PWMSP001_SetPeriodAndCompare+0x2e>
 8000dcc:	69c3      	ldr	r3, [r0, #28]
 8000dce:	0c0c      	lsrs	r4, r1, #16
 8000dd0:	635c      	str	r4, [r3, #52]	; 0x34
 8000dd2:	6983      	ldr	r3, [r0, #24]
 8000dd4:	b289      	uxth	r1, r1
 8000dd6:	6359      	str	r1, [r3, #52]	; 0x34
 8000dd8:	6c03      	ldr	r3, [r0, #64]	; 0x40
 8000dda:	4611      	mov	r1, r2
 8000ddc:	4798      	blx	r3
 8000dde:	2000      	movs	r0, #0
 8000de0:	bd10      	pop	{r4, pc}
 8000de2:	2001      	movs	r0, #1
 8000de4:	bd10      	pop	{r4, pc}
 8000de6:	2002      	movs	r0, #2
 8000de8:	bd10      	pop	{r4, pc}

08000dea <PWMSP001_SetPeriod>:
 8000dea:	6bc3      	ldr	r3, [r0, #60]	; 0x3c
 8000dec:	781a      	ldrb	r2, [r3, #0]
 8000dee:	b510      	push	{r4, lr}
 8000df0:	b33a      	cbz	r2, 8000e42 <PWMSP001_SetPeriod+0x58>
 8000df2:	b341      	cbz	r1, 8000e46 <PWMSP001_SetPeriod+0x5c>
 8000df4:	6ac3      	ldr	r3, [r0, #44]	; 0x2c
 8000df6:	f890 2020 	ldrb.w	r2, [r0, #32]
 8000dfa:	4299      	cmp	r1, r3
 8000dfc:	d902      	bls.n	8000e04 <PWMSP001_SetPeriod+0x1a>
 8000dfe:	2a01      	cmp	r2, #1
 8000e00:	d121      	bne.n	8000e46 <PWMSP001_SetPeriod+0x5c>
 8000e02:	e001      	b.n	8000e08 <PWMSP001_SetPeriod+0x1e>
 8000e04:	2a01      	cmp	r2, #1
 8000e06:	d102      	bne.n	8000e0e <PWMSP001_SetPeriod+0x24>
 8000e08:	69c4      	ldr	r4, [r0, #28]
 8000e0a:	0c0b      	lsrs	r3, r1, #16
 8000e0c:	6363      	str	r3, [r4, #52]	; 0x34
 8000e0e:	6982      	ldr	r2, [r0, #24]
 8000e10:	f890 4037 	ldrb.w	r4, [r0, #55]	; 0x37
 8000e14:	6943      	ldr	r3, [r0, #20]
 8000e16:	b289      	uxth	r1, r1
 8000e18:	6351      	str	r1, [r2, #52]	; 0x34
 8000e1a:	6919      	ldr	r1, [r3, #16]
 8000e1c:	00a2      	lsls	r2, r4, #2
 8000e1e:	2401      	movs	r4, #1
 8000e20:	fa04 f202 	lsl.w	r2, r4, r2
 8000e24:	430a      	orrs	r2, r1
 8000e26:	611a      	str	r2, [r3, #16]
 8000e28:	f890 2020 	ldrb.w	r2, [r0, #32]
 8000e2c:	42a2      	cmp	r2, r4
 8000e2e:	d10c      	bne.n	8000e4a <PWMSP001_SetPeriod+0x60>
 8000e30:	f890 0038 	ldrb.w	r0, [r0, #56]	; 0x38
 8000e34:	6919      	ldr	r1, [r3, #16]
 8000e36:	0080      	lsls	r0, r0, #2
 8000e38:	fa02 f200 	lsl.w	r2, r2, r0
 8000e3c:	430a      	orrs	r2, r1
 8000e3e:	611a      	str	r2, [r3, #16]
 8000e40:	e003      	b.n	8000e4a <PWMSP001_SetPeriod+0x60>
 8000e42:	2001      	movs	r0, #1
 8000e44:	bd10      	pop	{r4, pc}
 8000e46:	2002      	movs	r0, #2
 8000e48:	bd10      	pop	{r4, pc}
 8000e4a:	2000      	movs	r0, #0
 8000e4c:	bd10      	pop	{r4, pc}

08000e4e <PWMSP001_lSetPwmFreqTimerConcat>:
 8000e4e:	1c4b      	adds	r3, r1, #1
 8000e50:	d01b      	beq.n	8000e8a <PWMSP001_lSetPwmFreqTimerConcat+0x3c>
 8000e52:	2300      	movs	r3, #0
 8000e54:	f5b1 3f80 	cmp.w	r1, #65536	; 0x10000
 8000e58:	d30a      	bcc.n	8000e70 <PWMSP001_lSetPwmFreqTimerConcat+0x22>
 8000e5a:	0849      	lsrs	r1, r1, #1
 8000e5c:	f64f 72fe 	movw	r2, #65534	; 0xfffe
 8000e60:	3301      	adds	r3, #1
 8000e62:	4291      	cmp	r1, r2
 8000e64:	b2db      	uxtb	r3, r3
 8000e66:	d8f8      	bhi.n	8000e5a <PWMSP001_lSetPwmFreqTimerConcat+0xc>
 8000e68:	2201      	movs	r2, #1
 8000e6a:	fa02 f303 	lsl.w	r3, r2, r3
 8000e6e:	3b01      	subs	r3, #1
 8000e70:	f890 2036 	ldrb.w	r2, [r0, #54]	; 0x36
 8000e74:	2a01      	cmp	r2, #1
 8000e76:	d101      	bne.n	8000e7c <PWMSP001_lSetPwmFreqTimerConcat+0x2e>
 8000e78:	085b      	lsrs	r3, r3, #1
 8000e7a:	0849      	lsrs	r1, r1, #1
 8000e7c:	6982      	ldr	r2, [r0, #24]
 8000e7e:	69c0      	ldr	r0, [r0, #28]
 8000e80:	6351      	str	r1, [r2, #52]	; 0x34
 8000e82:	b299      	uxth	r1, r3
 8000e84:	6341      	str	r1, [r0, #52]	; 0x34
 8000e86:	2000      	movs	r0, #0
 8000e88:	4770      	bx	lr
 8000e8a:	2002      	movs	r0, #2
 8000e8c:	4770      	bx	lr
	...

08000e90 <PWMSP001_SetPwmFreq>:
 8000e90:	b538      	push	{r3, r4, r5, lr}
 8000e92:	6bc3      	ldr	r3, [r0, #60]	; 0x3c
 8000e94:	ee07 1a90 	vmov	s15, r1
 8000e98:	7819      	ldrb	r1, [r3, #0]
 8000e9a:	4604      	mov	r4, r0
 8000e9c:	2900      	cmp	r1, #0
 8000e9e:	d03d      	beq.n	8000f1c <PWMSP001_SetPwmFreq+0x8c>
 8000ea0:	eef5 7a40 	vcmp.f32	s15, #0.0
 8000ea4:	eef1 fa10 	vmrs	APSR_nzcv, fpscr
 8000ea8:	d03a      	beq.n	8000f20 <PWMSP001_SetPwmFreq+0x90>
 8000eaa:	ed90 7a01 	vldr	s14, [r0, #4]
 8000eae:	eddf 0a1d 	vldr	s1, [pc, #116]	; 8000f24 <PWMSP001_SetPwmFreq+0x94>
 8000eb2:	ee27 0a27 	vmul.f32	s0, s14, s15
 8000eb6:	f890 2020 	ldrb.w	r2, [r0, #32]
 8000eba:	ee80 1a80 	vdiv.f32	s2, s1, s0
 8000ebe:	eefc 1ac1 	vcvt.u32.f32	s3, s2
 8000ec2:	ee11 1a90 	vmov	r1, s3
 8000ec6:	b9aa      	cbnz	r2, 8000ef4 <PWMSP001_SetPwmFreq+0x64>
 8000ec8:	f5b1 3f80 	cmp.w	r1, #65536	; 0x10000
 8000ecc:	d228      	bcs.n	8000f20 <PWMSP001_SetPwmFreq+0x90>
 8000ece:	f890 0036 	ldrb.w	r0, [r0, #54]	; 0x36
 8000ed2:	69a3      	ldr	r3, [r4, #24]
 8000ed4:	3901      	subs	r1, #1
 8000ed6:	b100      	cbz	r0, 8000eda <PWMSP001_SetPwmFreq+0x4a>
 8000ed8:	0849      	lsrs	r1, r1, #1
 8000eda:	6359      	str	r1, [r3, #52]	; 0x34
 8000edc:	f894 2037 	ldrb.w	r2, [r4, #55]	; 0x37
 8000ee0:	6963      	ldr	r3, [r4, #20]
 8000ee2:	2001      	movs	r0, #1
 8000ee4:	6919      	ldr	r1, [r3, #16]
 8000ee6:	0092      	lsls	r2, r2, #2
 8000ee8:	fa00 f202 	lsl.w	r2, r0, r2
 8000eec:	430a      	orrs	r2, r1
 8000eee:	611a      	str	r2, [r3, #16]
 8000ef0:	2000      	movs	r0, #0
 8000ef2:	bd38      	pop	{r3, r4, r5, pc}
 8000ef4:	f7ff ffab 	bl	8000e4e <PWMSP001_lSetPwmFreqTimerConcat>
 8000ef8:	b998      	cbnz	r0, 8000f22 <PWMSP001_SetPwmFreq+0x92>
 8000efa:	6963      	ldr	r3, [r4, #20]
 8000efc:	f894 5037 	ldrb.w	r5, [r4, #55]	; 0x37
 8000f00:	f894 4038 	ldrb.w	r4, [r4, #56]	; 0x38
 8000f04:	6919      	ldr	r1, [r3, #16]
 8000f06:	2201      	movs	r2, #1
 8000f08:	00ad      	lsls	r5, r5, #2
 8000f0a:	00a4      	lsls	r4, r4, #2
 8000f0c:	fa02 f505 	lsl.w	r5, r2, r5
 8000f10:	fa02 f204 	lsl.w	r2, r2, r4
 8000f14:	432a      	orrs	r2, r5
 8000f16:	430a      	orrs	r2, r1
 8000f18:	611a      	str	r2, [r3, #16]
 8000f1a:	bd38      	pop	{r3, r4, r5, pc}
 8000f1c:	2001      	movs	r0, #1
 8000f1e:	bd38      	pop	{r3, r4, r5, pc}
 8000f20:	2002      	movs	r0, #2
 8000f22:	bd38      	pop	{r3, r4, r5, pc}
 8000f24:	4e6e6b28 	.word	0x4e6e6b28

08000f28 <PWMSP001_SetPwmFreqAndDutyCycle>:
 8000f28:	b510      	push	{r4, lr}
 8000f2a:	6bc3      	ldr	r3, [r0, #60]	; 0x3c
 8000f2c:	4604      	mov	r4, r0
 8000f2e:	7818      	ldrb	r0, [r3, #0]
 8000f30:	ed2d 8b02 	vpush	{d8}
 8000f34:	ee07 1a90 	vmov	s15, r1
 8000f38:	ee08 2a10 	vmov	s16, r2
 8000f3c:	2800      	cmp	r0, #0
 8000f3e:	d03a      	beq.n	8000fb6 <PWMSP001_SetPwmFreqAndDutyCycle+0x8e>
 8000f40:	eef5 7a40 	vcmp.f32	s15, #0.0
 8000f44:	eef1 fa10 	vmrs	APSR_nzcv, fpscr
 8000f48:	d037      	beq.n	8000fba <PWMSP001_SetPwmFreqAndDutyCycle+0x92>
 8000f4a:	ed9f 7a1e 	vldr	s14, [pc, #120]	; 8000fc4 <PWMSP001_SetPwmFreqAndDutyCycle+0x9c>
 8000f4e:	eeb4 8ac7 	vcmpe.f32	s16, s14
 8000f52:	eef1 fa10 	vmrs	APSR_nzcv, fpscr
 8000f56:	dc30      	bgt.n	8000fba <PWMSP001_SetPwmFreqAndDutyCycle+0x92>
 8000f58:	eeb5 8ac0 	vcmpe.f32	s16, #0.0
 8000f5c:	eef1 fa10 	vmrs	APSR_nzcv, fpscr
 8000f60:	d42b      	bmi.n	8000fba <PWMSP001_SetPwmFreqAndDutyCycle+0x92>
 8000f62:	ed94 0a01 	vldr	s0, [r4, #4]
 8000f66:	ed9f 1a18 	vldr	s2, [pc, #96]	; 8000fc8 <PWMSP001_SetPwmFreqAndDutyCycle+0xa0>
 8000f6a:	ee60 0a27 	vmul.f32	s1, s0, s15
 8000f6e:	f894 2020 	ldrb.w	r2, [r4, #32]
 8000f72:	eec1 1a20 	vdiv.f32	s3, s2, s1
 8000f76:	eebc 2ae1 	vcvt.u32.f32	s4, s3
 8000f7a:	ee12 1a10 	vmov	r1, s4
 8000f7e:	b952      	cbnz	r2, 8000f96 <PWMSP001_SetPwmFreqAndDutyCycle+0x6e>
 8000f80:	f5b1 3f80 	cmp.w	r1, #65536	; 0x10000
 8000f84:	d219      	bcs.n	8000fba <PWMSP001_SetPwmFreqAndDutyCycle+0x92>
 8000f86:	f894 0036 	ldrb.w	r0, [r4, #54]	; 0x36
 8000f8a:	69a3      	ldr	r3, [r4, #24]
 8000f8c:	3901      	subs	r1, #1
 8000f8e:	b100      	cbz	r0, 8000f92 <PWMSP001_SetPwmFreqAndDutyCycle+0x6a>
 8000f90:	0849      	lsrs	r1, r1, #1
 8000f92:	6359      	str	r1, [r3, #52]	; 0x34
 8000f94:	e008      	b.n	8000fa8 <PWMSP001_SetPwmFreqAndDutyCycle+0x80>
 8000f96:	2a01      	cmp	r2, #1
 8000f98:	d102      	bne.n	8000fa0 <PWMSP001_SetPwmFreqAndDutyCycle+0x78>
 8000f9a:	f5b1 3f80 	cmp.w	r1, #65536	; 0x10000
 8000f9e:	d30c      	bcc.n	8000fba <PWMSP001_SetPwmFreqAndDutyCycle+0x92>
 8000fa0:	4620      	mov	r0, r4
 8000fa2:	f7ff ff54 	bl	8000e4e <PWMSP001_lSetPwmFreqTimerConcat>
 8000fa6:	b948      	cbnz	r0, 8000fbc <PWMSP001_SetPwmFreqAndDutyCycle+0x94>
 8000fa8:	4620      	mov	r0, r4
 8000faa:	6c62      	ldr	r2, [r4, #68]	; 0x44
 8000fac:	ee18 1a10 	vmov	r1, s16
 8000fb0:	4790      	blx	r2
 8000fb2:	2000      	movs	r0, #0
 8000fb4:	e002      	b.n	8000fbc <PWMSP001_SetPwmFreqAndDutyCycle+0x94>
 8000fb6:	2001      	movs	r0, #1
 8000fb8:	e000      	b.n	8000fbc <PWMSP001_SetPwmFreqAndDutyCycle+0x94>
 8000fba:	2002      	movs	r0, #2
 8000fbc:	ecbd 8b02 	vpop	{d8}
 8000fc0:	bd10      	pop	{r4, pc}
 8000fc2:	bf00      	nop
 8000fc4:	42c80000 	.word	0x42c80000
 8000fc8:	4e6e6b28 	.word	0x4e6e6b28

08000fcc <PWMSP001_SetTimerVal>:
 8000fcc:	6bc3      	ldr	r3, [r0, #60]	; 0x3c
 8000fce:	781a      	ldrb	r2, [r3, #0]
 8000fd0:	2a01      	cmp	r2, #1
 8000fd2:	d001      	beq.n	8000fd8 <PWMSP001_SetTimerVal+0xc>
 8000fd4:	2a03      	cmp	r2, #3
 8000fd6:	d10a      	bne.n	8000fee <PWMSP001_SetTimerVal+0x22>
 8000fd8:	6983      	ldr	r3, [r0, #24]
 8000fda:	b28a      	uxth	r2, r1
 8000fdc:	671a      	str	r2, [r3, #112]	; 0x70
 8000fde:	f890 3020 	ldrb.w	r3, [r0, #32]
 8000fe2:	2b01      	cmp	r3, #1
 8000fe4:	d105      	bne.n	8000ff2 <PWMSP001_SetTimerVal+0x26>
 8000fe6:	69c0      	ldr	r0, [r0, #28]
 8000fe8:	0c09      	lsrs	r1, r1, #16
 8000fea:	6701      	str	r1, [r0, #112]	; 0x70
 8000fec:	e001      	b.n	8000ff2 <PWMSP001_SetTimerVal+0x26>
 8000fee:	2001      	movs	r0, #1
 8000ff0:	4770      	bx	lr
 8000ff2:	2000      	movs	r0, #0
 8000ff4:	4770      	bx	lr

08000ff6 <PWMSP001_GetTimerStatus>:
 8000ff6:	6bc3      	ldr	r3, [r0, #60]	; 0x3c
 8000ff8:	781a      	ldrb	r2, [r3, #0]
 8000ffa:	b17a      	cbz	r2, 800101c <PWMSP001_GetTimerStatus+0x26>
 8000ffc:	f890 3020 	ldrb.w	r3, [r0, #32]
 8001000:	2b01      	cmp	r3, #1
 8001002:	6983      	ldr	r3, [r0, #24]
 8001004:	d104      	bne.n	8001010 <PWMSP001_GetTimerStatus+0x1a>
 8001006:	69c2      	ldr	r2, [r0, #28]
 8001008:	6892      	ldr	r2, [r2, #8]
 800100a:	6898      	ldr	r0, [r3, #8]
 800100c:	4010      	ands	r0, r2
 800100e:	e000      	b.n	8001012 <PWMSP001_GetTimerStatus+0x1c>
 8001010:	6898      	ldr	r0, [r3, #8]
 8001012:	f000 0301 	and.w	r3, r0, #1
 8001016:	600b      	str	r3, [r1, #0]
 8001018:	2000      	movs	r0, #0
 800101a:	4770      	bx	lr
 800101c:	2001      	movs	r0, #1
 800101e:	4770      	bx	lr

08001020 <PWMSP001_GetTimerRegsVal>:
 8001020:	6bc3      	ldr	r3, [r0, #60]	; 0x3c
 8001022:	781a      	ldrb	r2, [r3, #0]
 8001024:	b530      	push	{r4, r5, lr}
 8001026:	b312      	cbz	r2, 800106e <PWMSP001_GetTimerRegsVal+0x4e>
 8001028:	f890 3020 	ldrb.w	r3, [r0, #32]
 800102c:	2b01      	cmp	r3, #1
 800102e:	6983      	ldr	r3, [r0, #24]
 8001030:	d114      	bne.n	800105c <PWMSP001_GetTimerRegsVal+0x3c>
 8001032:	69c2      	ldr	r2, [r0, #28]
 8001034:	6f14      	ldr	r4, [r2, #112]	; 0x70
 8001036:	6f1d      	ldr	r5, [r3, #112]	; 0x70
 8001038:	b2a8      	uxth	r0, r5
 800103a:	ea40 4404 	orr.w	r4, r0, r4, lsl #16
 800103e:	6bd5      	ldr	r5, [r2, #60]	; 0x3c
 8001040:	608c      	str	r4, [r1, #8]
 8001042:	6b58      	ldr	r0, [r3, #52]	; 0x34
 8001044:	6bdc      	ldr	r4, [r3, #60]	; 0x3c
 8001046:	fb05 4000 	mla	r0, r5, r0, r4
 800104a:	6008      	str	r0, [r1, #0]
 800104c:	6b50      	ldr	r0, [r2, #52]	; 0x34
 800104e:	6b5b      	ldr	r3, [r3, #52]	; 0x34
 8001050:	b29a      	uxth	r2, r3
 8001052:	3201      	adds	r2, #1
 8001054:	3001      	adds	r0, #1
 8001056:	4350      	muls	r0, r2
 8001058:	1c43      	adds	r3, r0, #1
 800105a:	e005      	b.n	8001068 <PWMSP001_GetTimerRegsVal+0x48>
 800105c:	6f18      	ldr	r0, [r3, #112]	; 0x70
 800105e:	b282      	uxth	r2, r0
 8001060:	6bd8      	ldr	r0, [r3, #60]	; 0x3c
 8001062:	6b5b      	ldr	r3, [r3, #52]	; 0x34
 8001064:	608a      	str	r2, [r1, #8]
 8001066:	6008      	str	r0, [r1, #0]
 8001068:	604b      	str	r3, [r1, #4]
 800106a:	2000      	movs	r0, #0
 800106c:	bd30      	pop	{r4, r5, pc}
 800106e:	2001      	movs	r0, #1
 8001070:	bd30      	pop	{r4, r5, pc}

08001072 <PWMSP001_GetPeriodReg>:
 8001072:	6bc3      	ldr	r3, [r0, #60]	; 0x3c
 8001074:	781a      	ldrb	r2, [r3, #0]
 8001076:	b19a      	cbz	r2, 80010a0 <PWMSP001_GetPeriodReg+0x2e>
 8001078:	f890 3020 	ldrb.w	r3, [r0, #32]
 800107c:	2b01      	cmp	r3, #1
 800107e:	d10a      	bne.n	8001096 <PWMSP001_GetPeriodReg+0x24>
 8001080:	69c3      	ldr	r3, [r0, #28]
 8001082:	6980      	ldr	r0, [r0, #24]
 8001084:	6b5a      	ldr	r2, [r3, #52]	; 0x34
 8001086:	1c53      	adds	r3, r2, #1
 8001088:	600b      	str	r3, [r1, #0]
 800108a:	6b42      	ldr	r2, [r0, #52]	; 0x34
 800108c:	b290      	uxth	r0, r2
 800108e:	1c42      	adds	r2, r0, #1
 8001090:	4353      	muls	r3, r2
 8001092:	1c5a      	adds	r2, r3, #1
 8001094:	e001      	b.n	800109a <PWMSP001_GetPeriodReg+0x28>
 8001096:	6980      	ldr	r0, [r0, #24]
 8001098:	6b42      	ldr	r2, [r0, #52]	; 0x34
 800109a:	600a      	str	r2, [r1, #0]
 800109c:	2000      	movs	r0, #0
 800109e:	4770      	bx	lr
 80010a0:	2001      	movs	r0, #1
 80010a2:	4770      	bx	lr

080010a4 <PWMSP001_SWRequestShadowTransfer>:
 80010a4:	6bc3      	ldr	r3, [r0, #60]	; 0x3c
 80010a6:	7819      	ldrb	r1, [r3, #0]
 80010a8:	b510      	push	{r4, lr}
 80010aa:	b1e1      	cbz	r1, 80010e6 <PWMSP001_SWRequestShadowTransfer+0x42>
 80010ac:	f890 2020 	ldrb.w	r2, [r0, #32]
 80010b0:	6943      	ldr	r3, [r0, #20]
 80010b2:	f890 1037 	ldrb.w	r1, [r0, #55]	; 0x37
 80010b6:	2a01      	cmp	r2, #1
 80010b8:	d10c      	bne.n	80010d4 <PWMSP001_SWRequestShadowTransfer+0x30>
 80010ba:	f890 0038 	ldrb.w	r0, [r0, #56]	; 0x38
 80010be:	691c      	ldr	r4, [r3, #16]
 80010c0:	0089      	lsls	r1, r1, #2
 80010c2:	0080      	lsls	r0, r0, #2
 80010c4:	fa02 f101 	lsl.w	r1, r2, r1
 80010c8:	fa02 f200 	lsl.w	r2, r2, r0
 80010cc:	430a      	orrs	r2, r1
 80010ce:	4322      	orrs	r2, r4
 80010d0:	611a      	str	r2, [r3, #16]
 80010d2:	e006      	b.n	80010e2 <PWMSP001_SWRequestShadowTransfer+0x3e>
 80010d4:	691a      	ldr	r2, [r3, #16]
 80010d6:	0089      	lsls	r1, r1, #2
 80010d8:	2001      	movs	r0, #1
 80010da:	fa00 f101 	lsl.w	r1, r0, r1
 80010de:	4311      	orrs	r1, r2
 80010e0:	6119      	str	r1, [r3, #16]
 80010e2:	2000      	movs	r0, #0
 80010e4:	bd10      	pop	{r4, pc}
 80010e6:	2001      	movs	r0, #1
 80010e8:	bd10      	pop	{r4, pc}

080010ea <PWMSP001_ResetTrapFlag>:
 80010ea:	7cc3      	ldrb	r3, [r0, #19]
 80010ec:	2b01      	cmp	r3, #1
 80010ee:	d111      	bne.n	8001114 <PWMSP001_ResetTrapFlag+0x2a>
 80010f0:	6981      	ldr	r1, [r0, #24]
 80010f2:	f8d1 20b0 	ldr.w	r2, [r1, #176]	; 0xb0
 80010f6:	f442 6380 	orr.w	r3, r2, #1024	; 0x400
 80010fa:	f8c1 30b0 	str.w	r3, [r1, #176]	; 0xb0
 80010fe:	f890 1020 	ldrb.w	r1, [r0, #32]
 8001102:	2901      	cmp	r1, #1
 8001104:	d106      	bne.n	8001114 <PWMSP001_ResetTrapFlag+0x2a>
 8001106:	69c3      	ldr	r3, [r0, #28]
 8001108:	f8d3 20b0 	ldr.w	r2, [r3, #176]	; 0xb0
 800110c:	f442 6180 	orr.w	r1, r2, #1024	; 0x400
 8001110:	f8c3 10b0 	str.w	r1, [r3, #176]	; 0xb0
 8001114:	6983      	ldr	r3, [r0, #24]
 8001116:	f8d3 20b0 	ldr.w	r2, [r3, #176]	; 0xb0
 800111a:	f442 6100 	orr.w	r1, r2, #2048	; 0x800
 800111e:	f8c3 10b0 	str.w	r1, [r3, #176]	; 0xb0
 8001122:	f890 3020 	ldrb.w	r3, [r0, #32]
 8001126:	2b01      	cmp	r3, #1
 8001128:	d106      	bne.n	8001138 <PWMSP001_ResetTrapFlag+0x4e>
 800112a:	69c0      	ldr	r0, [r0, #28]
 800112c:	f8d0 20b0 	ldr.w	r2, [r0, #176]	; 0xb0
 8001130:	f442 6100 	orr.w	r1, r2, #2048	; 0x800
 8001134:	f8c0 10b0 	str.w	r1, [r0, #176]	; 0xb0
 8001138:	4770      	bx	lr

0800113a <PWMSP001_lConfigureSecondSlice>:
 800113a:	b510      	push	{r4, lr}
 800113c:	69c3      	ldr	r3, [r0, #28]
 800113e:	8d41      	ldrh	r1, [r0, #42]	; 0x2a
 8001140:	8944      	ldrh	r4, [r0, #10]
 8001142:	2207      	movs	r2, #7
 8001144:	611a      	str	r2, [r3, #16]
 8001146:	6359      	str	r1, [r3, #52]	; 0x34
 8001148:	63dc      	str	r4, [r3, #60]	; 0x3c
 800114a:	685a      	ldr	r2, [r3, #4]
 800114c:	f442 1180 	orr.w	r1, r2, #1048576	; 0x100000
 8001150:	6059      	str	r1, [r3, #4]
 8001152:	7bc4      	ldrb	r4, [r0, #15]
 8001154:	2c01      	cmp	r4, #1
 8001156:	d115      	bne.n	8001184 <PWMSP001_lConfigureSecondSlice+0x4a>
 8001158:	681a      	ldr	r2, [r3, #0]
 800115a:	f022 51c0 	bic.w	r1, r2, #402653184	; 0x18000000
 800115e:	f421 2440 	bic.w	r4, r1, #786432	; 0xc0000
 8001162:	601c      	str	r4, [r3, #0]
 8001164:	685a      	ldr	r2, [r3, #4]
 8001166:	f022 010c 	bic.w	r1, r2, #12
 800116a:	f890 2024 	ldrb.w	r2, [r0, #36]	; 0x24
 800116e:	6059      	str	r1, [r3, #4]
 8001170:	681c      	ldr	r4, [r3, #0]
 8001172:	0491      	lsls	r1, r2, #18
 8001174:	f401 2240 	and.w	r2, r1, #786432	; 0xc0000
 8001178:	4322      	orrs	r2, r4
 800117a:	601a      	str	r2, [r3, #0]
 800117c:	685c      	ldr	r4, [r3, #4]
 800117e:	f044 0108 	orr.w	r1, r4, #8
 8001182:	6059      	str	r1, [r3, #4]
 8001184:	7c42      	ldrb	r2, [r0, #17]
 8001186:	2a01      	cmp	r2, #1
 8001188:	d114      	bne.n	80011b4 <PWMSP001_lConfigureSecondSlice+0x7a>
 800118a:	681c      	ldr	r4, [r3, #0]
 800118c:	f024 41c2 	bic.w	r1, r4, #1627389952	; 0x61000000
 8001190:	f421 1240 	bic.w	r2, r1, #3145728	; 0x300000
 8001194:	601a      	str	r2, [r3, #0]
 8001196:	685c      	ldr	r4, [r3, #4]
 8001198:	f424 3100 	bic.w	r1, r4, #131072	; 0x20000
 800119c:	6059      	str	r1, [r3, #4]
 800119e:	7802      	ldrb	r2, [r0, #0]
 80011a0:	681c      	ldr	r4, [r3, #0]
 80011a2:	0611      	lsls	r1, r2, #24
 80011a4:	f001 7280 	and.w	r2, r1, #16777216	; 0x1000000
 80011a8:	4322      	orrs	r2, r4
 80011aa:	601a      	str	r2, [r3, #0]
 80011ac:	685c      	ldr	r4, [r3, #4]
 80011ae:	f444 3100 	orr.w	r1, r4, #131072	; 0x20000
 80011b2:	6059      	str	r1, [r3, #4]
 80011b4:	695a      	ldr	r2, [r3, #20]
 80011b6:	f422 44ce 	bic.w	r4, r2, #26368	; 0x6700
 80011ba:	f024 010b 	bic.w	r1, r4, #11
 80011be:	6159      	str	r1, [r3, #20]
 80011c0:	7b02      	ldrb	r2, [r0, #12]
 80011c2:	0054      	lsls	r4, r2, #1
 80011c4:	f890 2034 	ldrb.w	r2, [r0, #52]	; 0x34
 80011c8:	f004 0102 	and.w	r1, r4, #2
 80011cc:	0294      	lsls	r4, r2, #10
 80011ce:	f404 6280 	and.w	r2, r4, #1024	; 0x400
 80011d2:	ea41 0402 	orr.w	r4, r1, r2
 80011d6:	f890 1036 	ldrb.w	r1, [r0, #54]	; 0x36
 80011da:	f001 0201 	and.w	r2, r1, #1
 80011de:	f890 1035 	ldrb.w	r1, [r0, #53]	; 0x35
 80011e2:	4314      	orrs	r4, r2
 80011e4:	020a      	lsls	r2, r1, #8
 80011e6:	f402 7140 	and.w	r1, r2, #768	; 0x300
 80011ea:	430c      	orrs	r4, r1
 80011ec:	615c      	str	r4, [r3, #20]
 80011ee:	f890 2021 	ldrb.w	r2, [r0, #33]	; 0x21
 80011f2:	695c      	ldr	r4, [r3, #20]
 80011f4:	0351      	lsls	r1, r2, #13
 80011f6:	f401 42c0 	and.w	r2, r1, #24576	; 0x6000
 80011fa:	4322      	orrs	r2, r4
 80011fc:	615a      	str	r2, [r3, #20]
 80011fe:	6a1c      	ldr	r4, [r3, #32]
 8001200:	7b41      	ldrb	r1, [r0, #13]
 8001202:	f024 020f 	bic.w	r2, r4, #15
 8001206:	f001 010f 	and.w	r1, r1, #15
 800120a:	ea41 0402 	orr.w	r4, r1, r2
 800120e:	621c      	str	r4, [r3, #32]
 8001210:	7c82      	ldrb	r2, [r0, #18]
 8001212:	6959      	ldr	r1, [r3, #20]
 8001214:	0554      	lsls	r4, r2, #21
 8001216:	f404 1200 	and.w	r2, r4, #2097152	; 0x200000
 800121a:	f421 1100 	bic.w	r1, r1, #2097152	; 0x200000
 800121e:	430a      	orrs	r2, r1
 8001220:	615a      	str	r2, [r3, #20]
 8001222:	7cc2      	ldrb	r2, [r0, #19]
 8001224:	695c      	ldr	r4, [r3, #20]
 8001226:	0591      	lsls	r1, r2, #22
 8001228:	f401 0280 	and.w	r2, r1, #4194304	; 0x400000
 800122c:	f424 0480 	bic.w	r4, r4, #4194304	; 0x400000
 8001230:	4322      	orrs	r2, r4
 8001232:	615a      	str	r2, [r3, #20]
 8001234:	7c42      	ldrb	r2, [r0, #17]
 8001236:	6959      	ldr	r1, [r3, #20]
 8001238:	0454      	lsls	r4, r2, #17
 800123a:	f404 3200 	and.w	r2, r4, #131072	; 0x20000
 800123e:	f421 3100 	bic.w	r1, r1, #131072	; 0x20000
 8001242:	430a      	orrs	r2, r1
 8001244:	615a      	str	r2, [r3, #20]
 8001246:	6a5c      	ldr	r4, [r3, #36]	; 0x24
 8001248:	f890 2022 	ldrb.w	r2, [r0, #34]	; 0x22
 800124c:	f024 040f 	bic.w	r4, r4, #15
 8001250:	f002 010f 	and.w	r1, r2, #15
 8001254:	ea41 0204 	orr.w	r2, r1, r4
 8001258:	625a      	str	r2, [r3, #36]	; 0x24
 800125a:	7c01      	ldrb	r1, [r0, #16]
 800125c:	6199      	str	r1, [r3, #24]
 800125e:	6941      	ldr	r1, [r0, #20]
 8001260:	f890 0038 	ldrb.w	r0, [r0, #56]	; 0x38
 8001264:	690c      	ldr	r4, [r1, #16]
 8001266:	2301      	movs	r3, #1
 8001268:	0082      	lsls	r2, r0, #2
 800126a:	fa03 f002 	lsl.w	r0, r3, r2
 800126e:	4320      	orrs	r0, r4
 8001270:	18d4      	adds	r4, r2, r3
 8001272:	fa03 f404 	lsl.w	r4, r3, r4
 8001276:	3202      	adds	r2, #2
 8001278:	4320      	orrs	r0, r4
 800127a:	fa03 f302 	lsl.w	r3, r3, r2
 800127e:	4303      	orrs	r3, r0
 8001280:	610b      	str	r3, [r1, #16]
 8001282:	bd10      	pop	{r4, pc}

08001284 <PWMSP001_lInit>:
 8001284:	b538      	push	{r3, r4, r5, lr}
 8001286:	6bc3      	ldr	r3, [r0, #60]	; 0x3c
 8001288:	4604      	mov	r4, r0
 800128a:	7818      	ldrb	r0, [r3, #0]
 800128c:	2800      	cmp	r0, #0
 800128e:	f040 80cb 	bne.w	8001428 <PWMSP001_lInit+0x1a4>
 8001292:	69a3      	ldr	r3, [r4, #24]
 8001294:	2207      	movs	r2, #7
 8001296:	611a      	str	r2, [r3, #16]
 8001298:	7be1      	ldrb	r1, [r4, #15]
 800129a:	2901      	cmp	r1, #1
 800129c:	d115      	bne.n	80012ca <PWMSP001_lInit+0x46>
 800129e:	681d      	ldr	r5, [r3, #0]
 80012a0:	f025 50c0 	bic.w	r0, r5, #402653184	; 0x18000000
 80012a4:	f420 2240 	bic.w	r2, r0, #786432	; 0xc0000
 80012a8:	601a      	str	r2, [r3, #0]
 80012aa:	6859      	ldr	r1, [r3, #4]
 80012ac:	f894 2024 	ldrb.w	r2, [r4, #36]	; 0x24
 80012b0:	f021 050c 	bic.w	r5, r1, #12
 80012b4:	605d      	str	r5, [r3, #4]
 80012b6:	6818      	ldr	r0, [r3, #0]
 80012b8:	0491      	lsls	r1, r2, #18
 80012ba:	f401 2540 	and.w	r5, r1, #786432	; 0xc0000
 80012be:	4305      	orrs	r5, r0
 80012c0:	601d      	str	r5, [r3, #0]
 80012c2:	6858      	ldr	r0, [r3, #4]
 80012c4:	f040 0208 	orr.w	r2, r0, #8
 80012c8:	605a      	str	r2, [r3, #4]
 80012ca:	7c61      	ldrb	r1, [r4, #17]
 80012cc:	2901      	cmp	r1, #1
 80012ce:	d118      	bne.n	8001302 <PWMSP001_lInit+0x7e>
 80012d0:	f894 5020 	ldrb.w	r5, [r4, #32]
 80012d4:	2d01      	cmp	r5, #1
 80012d6:	d014      	beq.n	8001302 <PWMSP001_lInit+0x7e>
 80012d8:	6818      	ldr	r0, [r3, #0]
 80012da:	f020 42c2 	bic.w	r2, r0, #1627389952	; 0x61000000
 80012de:	f422 1140 	bic.w	r1, r2, #3145728	; 0x300000
 80012e2:	6019      	str	r1, [r3, #0]
 80012e4:	685d      	ldr	r5, [r3, #4]
 80012e6:	f425 3000 	bic.w	r0, r5, #131072	; 0x20000
 80012ea:	6058      	str	r0, [r3, #4]
 80012ec:	7822      	ldrb	r2, [r4, #0]
 80012ee:	6819      	ldr	r1, [r3, #0]
 80012f0:	0615      	lsls	r5, r2, #24
 80012f2:	f005 7080 	and.w	r0, r5, #16777216	; 0x1000000
 80012f6:	4308      	orrs	r0, r1
 80012f8:	6018      	str	r0, [r3, #0]
 80012fa:	6859      	ldr	r1, [r3, #4]
 80012fc:	f441 3200 	orr.w	r2, r1, #131072	; 0x20000
 8001300:	605a      	str	r2, [r3, #4]
 8001302:	695d      	ldr	r5, [r3, #20]
 8001304:	f894 2036 	ldrb.w	r2, [r4, #54]	; 0x36
 8001308:	f425 40ce 	bic.w	r0, r5, #26368	; 0x6700
 800130c:	f020 0109 	bic.w	r1, r0, #9
 8001310:	6159      	str	r1, [r3, #20]
 8001312:	695d      	ldr	r5, [r3, #20]
 8001314:	f894 1034 	ldrb.w	r1, [r4, #52]	; 0x34
 8001318:	f002 0001 	and.w	r0, r2, #1
 800131c:	4328      	orrs	r0, r5
 800131e:	028d      	lsls	r5, r1, #10
 8001320:	f894 1035 	ldrb.w	r1, [r4, #53]	; 0x35
 8001324:	f405 6280 	and.w	r2, r5, #1024	; 0x400
 8001328:	020d      	lsls	r5, r1, #8
 800132a:	4310      	orrs	r0, r2
 800132c:	f405 7240 	and.w	r2, r5, #768	; 0x300
 8001330:	4310      	orrs	r0, r2
 8001332:	6158      	str	r0, [r3, #20]
 8001334:	f894 0020 	ldrb.w	r0, [r4, #32]
 8001338:	2801      	cmp	r0, #1
 800133a:	d008      	beq.n	800134e <PWMSP001_lInit+0xca>
 800133c:	7b25      	ldrb	r5, [r4, #12]
 800133e:	6959      	ldr	r1, [r3, #20]
 8001340:	006a      	lsls	r2, r5, #1
 8001342:	f002 0002 	and.w	r0, r2, #2
 8001346:	f021 0102 	bic.w	r1, r1, #2
 800134a:	4308      	orrs	r0, r1
 800134c:	6158      	str	r0, [r3, #20]
 800134e:	f894 2021 	ldrb.w	r2, [r4, #33]	; 0x21
 8001352:	695d      	ldr	r5, [r3, #20]
 8001354:	0350      	lsls	r0, r2, #13
 8001356:	f400 41c0 	and.w	r1, r0, #24576	; 0x6000
 800135a:	4329      	orrs	r1, r5
 800135c:	6159      	str	r1, [r3, #20]
 800135e:	6a1d      	ldr	r5, [r3, #32]
 8001360:	7b62      	ldrb	r2, [r4, #13]
 8001362:	f025 010f 	bic.w	r1, r5, #15
 8001366:	f002 000f 	and.w	r0, r2, #15
 800136a:	ea40 0501 	orr.w	r5, r0, r1
 800136e:	621d      	str	r5, [r3, #32]
 8001370:	f894 2020 	ldrb.w	r2, [r4, #32]
 8001374:	2a01      	cmp	r2, #1
 8001376:	d01a      	beq.n	80013ae <PWMSP001_lInit+0x12a>
 8001378:	7ca1      	ldrb	r1, [r4, #18]
 800137a:	6958      	ldr	r0, [r3, #20]
 800137c:	054d      	lsls	r5, r1, #21
 800137e:	f405 1200 	and.w	r2, r5, #2097152	; 0x200000
 8001382:	f420 1000 	bic.w	r0, r0, #2097152	; 0x200000
 8001386:	4302      	orrs	r2, r0
 8001388:	615a      	str	r2, [r3, #20]
 800138a:	7ce5      	ldrb	r5, [r4, #19]
 800138c:	6959      	ldr	r1, [r3, #20]
 800138e:	05aa      	lsls	r2, r5, #22
 8001390:	f402 0080 	and.w	r0, r2, #4194304	; 0x400000
 8001394:	f421 0180 	bic.w	r1, r1, #4194304	; 0x400000
 8001398:	4308      	orrs	r0, r1
 800139a:	6158      	str	r0, [r3, #20]
 800139c:	7c62      	ldrb	r2, [r4, #17]
 800139e:	695d      	ldr	r5, [r3, #20]
 80013a0:	0450      	lsls	r0, r2, #17
 80013a2:	f400 3200 	and.w	r2, r0, #131072	; 0x20000
 80013a6:	f425 3100 	bic.w	r1, r5, #131072	; 0x20000
 80013aa:	430a      	orrs	r2, r1
 80013ac:	615a      	str	r2, [r3, #20]
 80013ae:	6a5d      	ldr	r5, [r3, #36]	; 0x24
 80013b0:	f894 0022 	ldrb.w	r0, [r4, #34]	; 0x22
 80013b4:	f025 020f 	bic.w	r2, r5, #15
 80013b8:	f000 010f 	and.w	r1, r0, #15
 80013bc:	ea41 0502 	orr.w	r5, r1, r2
 80013c0:	625d      	str	r5, [r3, #36]	; 0x24
 80013c2:	7c20      	ldrb	r0, [r4, #16]
 80013c4:	8d21      	ldrh	r1, [r4, #40]	; 0x28
 80013c6:	8922      	ldrh	r2, [r4, #8]
 80013c8:	6198      	str	r0, [r3, #24]
 80013ca:	6359      	str	r1, [r3, #52]	; 0x34
 80013cc:	63da      	str	r2, [r3, #60]	; 0x3c
 80013ce:	f8d3 50b0 	ldr.w	r5, [r3, #176]	; 0xb0
 80013d2:	f445 6070 	orr.w	r0, r5, #3840	; 0xf00
 80013d6:	f040 010f 	orr.w	r1, r0, #15
 80013da:	f8c3 10b0 	str.w	r1, [r3, #176]	; 0xb0
 80013de:	f894 2020 	ldrb.w	r2, [r4, #32]
 80013e2:	2a01      	cmp	r2, #1
 80013e4:	d103      	bne.n	80013ee <PWMSP001_lInit+0x16a>
 80013e6:	4620      	mov	r0, r4
 80013e8:	f7ff fea7 	bl	800113a <PWMSP001_lConfigureSecondSlice>
 80013ec:	69e3      	ldr	r3, [r4, #28]
 80013ee:	f8d3 50a4 	ldr.w	r5, [r3, #164]	; 0xa4
 80013f2:	6b20      	ldr	r0, [r4, #48]	; 0x30
 80013f4:	f894 2037 	ldrb.w	r2, [r4, #55]	; 0x37
 80013f8:	ea45 0100 	orr.w	r1, r5, r0
 80013fc:	f8c3 10a4 	str.w	r1, [r3, #164]	; 0xa4
 8001400:	6961      	ldr	r1, [r4, #20]
 8001402:	2301      	movs	r3, #1
 8001404:	6908      	ldr	r0, [r1, #16]
 8001406:	0092      	lsls	r2, r2, #2
 8001408:	fa03 f502 	lsl.w	r5, r3, r2
 800140c:	4328      	orrs	r0, r5
 800140e:	18d5      	adds	r5, r2, r3
 8001410:	fa03 f505 	lsl.w	r5, r3, r5
 8001414:	3202      	adds	r2, #2
 8001416:	4328      	orrs	r0, r5
 8001418:	fa03 f202 	lsl.w	r2, r3, r2
 800141c:	4310      	orrs	r0, r2
 800141e:	6108      	str	r0, [r1, #16]
 8001420:	6be1      	ldr	r1, [r4, #60]	; 0x3c
 8001422:	2000      	movs	r0, #0
 8001424:	700b      	strb	r3, [r1, #0]
 8001426:	bd38      	pop	{r3, r4, r5, pc}
 8001428:	2001      	movs	r0, #1
 800142a:	bd38      	pop	{r3, r4, r5, pc}

0800142c <PWMSP001_Init>:
 800142c:	b538      	push	{r3, r4, r5, lr}
 800142e:	4c25      	ldr	r4, [pc, #148]	; (80014c4 <PWMSP001_Init+0x98>)
 8001430:	f000 fb26 	bl	8001a80 <CCU4GLOBAL_Init>
 8001434:	4620      	mov	r0, r4
 8001436:	f7ff ff25 	bl	8001284 <PWMSP001_lInit>
 800143a:	b928      	cbnz	r0, 8001448 <PWMSP001_Init+0x1c>
 800143c:	7863      	ldrb	r3, [r4, #1]
 800143e:	2b01      	cmp	r3, #1
 8001440:	d102      	bne.n	8001448 <PWMSP001_Init+0x1c>
 8001442:	4620      	mov	r0, r4
 8001444:	f7ff fb1d 	bl	8000a82 <PWMSP001_Start>
 8001448:	4c1f      	ldr	r4, [pc, #124]	; (80014c8 <PWMSP001_Init+0x9c>)
 800144a:	6c20      	ldr	r0, [r4, #64]	; 0x40
 800144c:	f420 61e0 	bic.w	r1, r0, #1792	; 0x700
 8001450:	6421      	str	r1, [r4, #64]	; 0x40
 8001452:	6c22      	ldr	r2, [r4, #64]	; 0x40
 8001454:	6422      	str	r2, [r4, #64]	; 0x40
 8001456:	6925      	ldr	r5, [r4, #16]
 8001458:	f425 0380 	bic.w	r3, r5, #4194304	; 0x400000
 800145c:	6123      	str	r3, [r4, #16]
 800145e:	6920      	ldr	r0, [r4, #16]
 8001460:	4d1a      	ldr	r5, [pc, #104]	; (80014cc <PWMSP001_Init+0xa0>)
 8001462:	6120      	str	r0, [r4, #16]
 8001464:	4628      	mov	r0, r5
 8001466:	f7ff ff0d 	bl	8001284 <PWMSP001_lInit>
 800146a:	b928      	cbnz	r0, 8001478 <PWMSP001_Init+0x4c>
 800146c:	7869      	ldrb	r1, [r5, #1]
 800146e:	2901      	cmp	r1, #1
 8001470:	d102      	bne.n	8001478 <PWMSP001_Init+0x4c>
 8001472:	4628      	mov	r0, r5
 8001474:	f7ff fb05 	bl	8000a82 <PWMSP001_Start>
 8001478:	6c22      	ldr	r2, [r4, #64]	; 0x40
 800147a:	f022 0370 	bic.w	r3, r2, #112	; 0x70
 800147e:	6423      	str	r3, [r4, #64]	; 0x40
 8001480:	6c20      	ldr	r0, [r4, #64]	; 0x40
 8001482:	6420      	str	r0, [r4, #64]	; 0x40
 8001484:	6921      	ldr	r1, [r4, #16]
 8001486:	f421 4280 	bic.w	r2, r1, #16384	; 0x4000
 800148a:	6122      	str	r2, [r4, #16]
 800148c:	6923      	ldr	r3, [r4, #16]
 800148e:	6123      	str	r3, [r4, #16]
 8001490:	4c0f      	ldr	r4, [pc, #60]	; (80014d0 <PWMSP001_Init+0xa4>)
 8001492:	4620      	mov	r0, r4
 8001494:	f7ff fef6 	bl	8001284 <PWMSP001_lInit>
 8001498:	b928      	cbnz	r0, 80014a6 <PWMSP001_Init+0x7a>
 800149a:	7860      	ldrb	r0, [r4, #1]
 800149c:	2801      	cmp	r0, #1
 800149e:	d102      	bne.n	80014a6 <PWMSP001_Init+0x7a>
 80014a0:	4620      	mov	r0, r4
 80014a2:	f7ff faee 	bl	8000a82 <PWMSP001_Start>
 80014a6:	4908      	ldr	r1, [pc, #32]	; (80014c8 <PWMSP001_Init+0x9c>)
 80014a8:	6c0a      	ldr	r2, [r1, #64]	; 0x40
 80014aa:	f022 0307 	bic.w	r3, r2, #7
 80014ae:	640b      	str	r3, [r1, #64]	; 0x40
 80014b0:	6c08      	ldr	r0, [r1, #64]	; 0x40
 80014b2:	6408      	str	r0, [r1, #64]	; 0x40
 80014b4:	690a      	ldr	r2, [r1, #16]
 80014b6:	f022 0340 	bic.w	r3, r2, #64	; 0x40
 80014ba:	610b      	str	r3, [r1, #16]
 80014bc:	6908      	ldr	r0, [r1, #16]
 80014be:	6108      	str	r0, [r1, #16]
 80014c0:	bd38      	pop	{r3, r4, r5, pc}
 80014c2:	bf00      	nop
 80014c4:	08001be0 	.word	0x08001be0
 80014c8:	48028100 	.word	0x48028100
 80014cc:	08001b98 	.word	0x08001b98
 80014d0:	08001b50 	.word	0x08001b50

080014d4 <PWMSP001_EnableEvent>:
 80014d4:	6bc3      	ldr	r3, [r0, #60]	; 0x3c
 80014d6:	781a      	ldrb	r2, [r3, #0]
 80014d8:	b1ba      	cbz	r2, 800150a <PWMSP001_EnableEvent+0x36>
 80014da:	f890 2020 	ldrb.w	r2, [r0, #32]
 80014de:	2a01      	cmp	r2, #1
 80014e0:	d108      	bne.n	80014f4 <PWMSP001_EnableEvent+0x20>
 80014e2:	69c3      	ldr	r3, [r0, #28]
 80014e4:	f8d3 00a4 	ldr.w	r0, [r3, #164]	; 0xa4
 80014e8:	fa02 f201 	lsl.w	r2, r2, r1
 80014ec:	4302      	orrs	r2, r0
 80014ee:	f8c3 20a4 	str.w	r2, [r3, #164]	; 0xa4
 80014f2:	e008      	b.n	8001506 <PWMSP001_EnableEvent+0x32>
 80014f4:	6983      	ldr	r3, [r0, #24]
 80014f6:	2001      	movs	r0, #1
 80014f8:	f8d3 20a4 	ldr.w	r2, [r3, #164]	; 0xa4
 80014fc:	fa00 f101 	lsl.w	r1, r0, r1
 8001500:	4311      	orrs	r1, r2
 8001502:	f8c3 10a4 	str.w	r1, [r3, #164]	; 0xa4
 8001506:	2000      	movs	r0, #0
 8001508:	4770      	bx	lr
 800150a:	2001      	movs	r0, #1
 800150c:	4770      	bx	lr

0800150e <PWMSP001_DisableEvent>:
 800150e:	6bc3      	ldr	r3, [r0, #60]	; 0x3c
 8001510:	781a      	ldrb	r2, [r3, #0]
 8001512:	b1ca      	cbz	r2, 8001548 <PWMSP001_DisableEvent+0x3a>
 8001514:	f890 2020 	ldrb.w	r2, [r0, #32]
 8001518:	2a01      	cmp	r2, #1
 800151a:	d109      	bne.n	8001530 <PWMSP001_DisableEvent+0x22>
 800151c:	69c3      	ldr	r3, [r0, #28]
 800151e:	f8d3 00a4 	ldr.w	r0, [r3, #164]	; 0xa4
 8001522:	fa02 f201 	lsl.w	r2, r2, r1
 8001526:	ea20 0102 	bic.w	r1, r0, r2
 800152a:	f8c3 10a4 	str.w	r1, [r3, #164]	; 0xa4
 800152e:	e009      	b.n	8001544 <PWMSP001_DisableEvent+0x36>
 8001530:	6983      	ldr	r3, [r0, #24]
 8001532:	2001      	movs	r0, #1
 8001534:	f8d3 20a4 	ldr.w	r2, [r3, #164]	; 0xa4
 8001538:	fa00 f101 	lsl.w	r1, r0, r1
 800153c:	ea22 0201 	bic.w	r2, r2, r1
 8001540:	f8c3 20a4 	str.w	r2, [r3, #164]	; 0xa4
 8001544:	2000      	movs	r0, #0
 8001546:	4770      	bx	lr
 8001548:	2001      	movs	r0, #1
 800154a:	4770      	bx	lr

0800154c <PWMSP001_ClearPendingEvent>:
 800154c:	6bc3      	ldr	r3, [r0, #60]	; 0x3c
 800154e:	781a      	ldrb	r2, [r3, #0]
 8001550:	b1ba      	cbz	r2, 8001582 <PWMSP001_ClearPendingEvent+0x36>
 8001552:	f890 2020 	ldrb.w	r2, [r0, #32]
 8001556:	2a01      	cmp	r2, #1
 8001558:	d108      	bne.n	800156c <PWMSP001_ClearPendingEvent+0x20>
 800155a:	69c3      	ldr	r3, [r0, #28]
 800155c:	f8d3 00b0 	ldr.w	r0, [r3, #176]	; 0xb0
 8001560:	fa02 f201 	lsl.w	r2, r2, r1
 8001564:	4302      	orrs	r2, r0
 8001566:	f8c3 20b0 	str.w	r2, [r3, #176]	; 0xb0
 800156a:	e008      	b.n	800157e <PWMSP001_ClearPendingEvent+0x32>
 800156c:	6983      	ldr	r3, [r0, #24]
 800156e:	2001      	movs	r0, #1
 8001570:	f8d3 20b0 	ldr.w	r2, [r3, #176]	; 0xb0
 8001574:	fa00 f101 	lsl.w	r1, r0, r1
 8001578:	4311      	orrs	r1, r2
 800157a:	f8c3 10b0 	str.w	r1, [r3, #176]	; 0xb0
 800157e:	2000      	movs	r0, #0
 8001580:	4770      	bx	lr
 8001582:	2001      	movs	r0, #1
 8001584:	4770      	bx	lr

08001586 <PWMSP001_SetPendingEvent>:
 8001586:	6bc3      	ldr	r3, [r0, #60]	; 0x3c
 8001588:	781a      	ldrb	r2, [r3, #0]
 800158a:	b1ba      	cbz	r2, 80015bc <PWMSP001_SetPendingEvent+0x36>
 800158c:	f890 2020 	ldrb.w	r2, [r0, #32]
 8001590:	2a01      	cmp	r2, #1
 8001592:	d108      	bne.n	80015a6 <PWMSP001_SetPendingEvent+0x20>
 8001594:	69c3      	ldr	r3, [r0, #28]
 8001596:	f8d3 00ac 	ldr.w	r0, [r3, #172]	; 0xac
 800159a:	fa02 f201 	lsl.w	r2, r2, r1
 800159e:	4302      	orrs	r2, r0
 80015a0:	f8c3 20ac 	str.w	r2, [r3, #172]	; 0xac
 80015a4:	e008      	b.n	80015b8 <PWMSP001_SetPendingEvent+0x32>
 80015a6:	6983      	ldr	r3, [r0, #24]
 80015a8:	2001      	movs	r0, #1
 80015aa:	f8d3 20ac 	ldr.w	r2, [r3, #172]	; 0xac
 80015ae:	fa00 f101 	lsl.w	r1, r0, r1
 80015b2:	4311      	orrs	r1, r2
 80015b4:	f8c3 10ac 	str.w	r1, [r3, #172]	; 0xac
 80015b8:	2000      	movs	r0, #0
 80015ba:	4770      	bx	lr
 80015bc:	2001      	movs	r0, #1
 80015be:	4770      	bx	lr

080015c0 <PWMSP001_GetPendingEvent>:
 80015c0:	6bc3      	ldr	r3, [r0, #60]	; 0x3c
 80015c2:	781b      	ldrb	r3, [r3, #0]
 80015c4:	b510      	push	{r4, lr}
 80015c6:	b1ab      	cbz	r3, 80015f4 <PWMSP001_GetPendingEvent+0x34>
 80015c8:	f890 3020 	ldrb.w	r3, [r0, #32]
 80015cc:	2b01      	cmp	r3, #1
 80015ce:	d103      	bne.n	80015d8 <PWMSP001_GetPendingEvent+0x18>
 80015d0:	69c4      	ldr	r4, [r0, #28]
 80015d2:	f8d4 00a0 	ldr.w	r0, [r4, #160]	; 0xa0
 80015d6:	e003      	b.n	80015e0 <PWMSP001_GetPendingEvent+0x20>
 80015d8:	6980      	ldr	r0, [r0, #24]
 80015da:	f8d0 00a0 	ldr.w	r0, [r0, #160]	; 0xa0
 80015de:	2301      	movs	r3, #1
 80015e0:	fa03 f401 	lsl.w	r4, r3, r1
 80015e4:	4020      	ands	r0, r4
 80015e6:	40c8      	lsrs	r0, r1
 80015e8:	d002      	beq.n	80015f0 <PWMSP001_GetPendingEvent+0x30>
 80015ea:	7013      	strb	r3, [r2, #0]
 80015ec:	2000      	movs	r0, #0
 80015ee:	bd10      	pop	{r4, pc}
 80015f0:	7010      	strb	r0, [r2, #0]
 80015f2:	bd10      	pop	{r4, pc}
 80015f4:	2001      	movs	r0, #1
 80015f6:	bd10      	pop	{r4, pc}

080015f8 <IO004_Init>:
 80015f8:	4b22      	ldr	r3, [pc, #136]	; (8001684 <IO004_Init+0x8c>)
 80015fa:	6858      	ldr	r0, [r3, #4]
 80015fc:	2200      	movs	r2, #0
 80015fe:	6042      	str	r2, [r0, #4]
 8001600:	6c41      	ldr	r1, [r0, #68]	; 0x44
 8001602:	f021 0307 	bic.w	r3, r1, #7
 8001606:	6443      	str	r3, [r0, #68]	; 0x44
 8001608:	6c41      	ldr	r1, [r0, #68]	; 0x44
 800160a:	f041 0304 	orr.w	r3, r1, #4
 800160e:	6443      	str	r3, [r0, #68]	; 0x44
 8001610:	6981      	ldr	r1, [r0, #24]
 8001612:	6181      	str	r1, [r0, #24]
 8001614:	481c      	ldr	r0, [pc, #112]	; (8001688 <IO004_Init+0x90>)
 8001616:	6843      	ldr	r3, [r0, #4]
 8001618:	605a      	str	r2, [r3, #4]
 800161a:	6c19      	ldr	r1, [r3, #64]	; 0x40
 800161c:	f421 00e0 	bic.w	r0, r1, #7340032	; 0x700000
 8001620:	6418      	str	r0, [r3, #64]	; 0x40
 8001622:	6c19      	ldr	r1, [r3, #64]	; 0x40
 8001624:	f441 0080 	orr.w	r0, r1, #4194304	; 0x400000
 8001628:	6418      	str	r0, [r3, #64]	; 0x40
 800162a:	6959      	ldr	r1, [r3, #20]
 800162c:	6159      	str	r1, [r3, #20]
 800162e:	4b17      	ldr	r3, [pc, #92]	; (800168c <IO004_Init+0x94>)
 8001630:	6858      	ldr	r0, [r3, #4]
 8001632:	6042      	str	r2, [r0, #4]
 8001634:	6c01      	ldr	r1, [r0, #64]	; 0x40
 8001636:	f421 23e0 	bic.w	r3, r1, #458752	; 0x70000
 800163a:	6403      	str	r3, [r0, #64]	; 0x40
 800163c:	6c01      	ldr	r1, [r0, #64]	; 0x40
 800163e:	f441 2380 	orr.w	r3, r1, #262144	; 0x40000
 8001642:	6403      	str	r3, [r0, #64]	; 0x40
 8001644:	6941      	ldr	r1, [r0, #20]
 8001646:	6141      	str	r1, [r0, #20]
 8001648:	4811      	ldr	r0, [pc, #68]	; (8001690 <IO004_Init+0x98>)
 800164a:	6843      	ldr	r3, [r0, #4]
 800164c:	605a      	str	r2, [r3, #4]
 800164e:	6c19      	ldr	r1, [r3, #64]	; 0x40
 8001650:	f421 40e0 	bic.w	r0, r1, #28672	; 0x7000
 8001654:	6418      	str	r0, [r3, #64]	; 0x40
 8001656:	6c19      	ldr	r1, [r3, #64]	; 0x40
 8001658:	f441 4080 	orr.w	r0, r1, #16384	; 0x4000
 800165c:	6418      	str	r0, [r3, #64]	; 0x40
 800165e:	6919      	ldr	r1, [r3, #16]
 8001660:	f041 50c0 	orr.w	r0, r1, #402653184	; 0x18000000
 8001664:	6118      	str	r0, [r3, #16]
 8001666:	4b0b      	ldr	r3, [pc, #44]	; (8001694 <IO004_Init+0x9c>)
 8001668:	6859      	ldr	r1, [r3, #4]
 800166a:	604a      	str	r2, [r1, #4]
 800166c:	6c0a      	ldr	r2, [r1, #64]	; 0x40
 800166e:	f422 60e0 	bic.w	r0, r2, #1792	; 0x700
 8001672:	6408      	str	r0, [r1, #64]	; 0x40
 8001674:	6c0b      	ldr	r3, [r1, #64]	; 0x40
 8001676:	f443 6280 	orr.w	r2, r3, #1024	; 0x400
 800167a:	640a      	str	r2, [r1, #64]	; 0x40
 800167c:	6908      	ldr	r0, [r1, #16]
 800167e:	6108      	str	r0, [r1, #16]
 8001680:	4770      	bx	lr
 8001682:	bf00      	nop
 8001684:	08001c48 	.word	0x08001c48
 8001688:	08001c40 	.word	0x08001c40
 800168c:	08001c38 	.word	0x08001c38
 8001690:	08001c30 	.word	0x08001c30
 8001694:	08001c28 	.word	0x08001c28

08001698 <IO004_DisableOutputDriver>:
 8001698:	b510      	push	{r4, lr}
 800169a:	7843      	ldrb	r3, [r0, #1]
 800169c:	2b03      	cmp	r3, #3
 800169e:	d811      	bhi.n	80016c4 <IO004_DisableOutputDriver+0x2c>
 80016a0:	6842      	ldr	r2, [r0, #4]
 80016a2:	00db      	lsls	r3, r3, #3
 80016a4:	6914      	ldr	r4, [r2, #16]
 80016a6:	3303      	adds	r3, #3
 80016a8:	201f      	movs	r0, #31
 80016aa:	fa00 f003 	lsl.w	r0, r0, r3
 80016ae:	ea24 0000 	bic.w	r0, r4, r0
 80016b2:	6110      	str	r0, [r2, #16]
 80016b4:	6910      	ldr	r0, [r2, #16]
 80016b6:	f001 011f 	and.w	r1, r1, #31
 80016ba:	fa01 f303 	lsl.w	r3, r1, r3
 80016be:	4303      	orrs	r3, r0
 80016c0:	6113      	str	r3, [r2, #16]
 80016c2:	bd10      	pop	{r4, pc}
 80016c4:	1f1a      	subs	r2, r3, #4
 80016c6:	b2d2      	uxtb	r2, r2
 80016c8:	2a03      	cmp	r2, #3
 80016ca:	d811      	bhi.n	80016f0 <IO004_DisableOutputDriver+0x58>
 80016cc:	6843      	ldr	r3, [r0, #4]
 80016ce:	00d0      	lsls	r0, r2, #3
 80016d0:	695c      	ldr	r4, [r3, #20]
 80016d2:	1cc2      	adds	r2, r0, #3
 80016d4:	201f      	movs	r0, #31
 80016d6:	fa00 f002 	lsl.w	r0, r0, r2
 80016da:	ea24 0000 	bic.w	r0, r4, r0
 80016de:	6158      	str	r0, [r3, #20]
 80016e0:	6958      	ldr	r0, [r3, #20]
 80016e2:	f001 011f 	and.w	r1, r1, #31
 80016e6:	fa01 f202 	lsl.w	r2, r1, r2
 80016ea:	4302      	orrs	r2, r0
 80016ec:	615a      	str	r2, [r3, #20]
 80016ee:	bd10      	pop	{r4, pc}
 80016f0:	f1a3 0208 	sub.w	r2, r3, #8
 80016f4:	b2d2      	uxtb	r2, r2
 80016f6:	2a03      	cmp	r2, #3
 80016f8:	d811      	bhi.n	800171e <IO004_DisableOutputDriver+0x86>
 80016fa:	6843      	ldr	r3, [r0, #4]
 80016fc:	00d2      	lsls	r2, r2, #3
 80016fe:	699c      	ldr	r4, [r3, #24]
 8001700:	3203      	adds	r2, #3
 8001702:	201f      	movs	r0, #31
 8001704:	fa00 f002 	lsl.w	r0, r0, r2
 8001708:	ea24 0000 	bic.w	r0, r4, r0
 800170c:	6198      	str	r0, [r3, #24]
 800170e:	6998      	ldr	r0, [r3, #24]
 8001710:	f001 011f 	and.w	r1, r1, #31
 8001714:	fa01 f202 	lsl.w	r2, r1, r2
 8001718:	4302      	orrs	r2, r0
 800171a:	619a      	str	r2, [r3, #24]
 800171c:	bd10      	pop	{r4, pc}
 800171e:	3b0c      	subs	r3, #12
 8001720:	b2db      	uxtb	r3, r3
 8001722:	2b03      	cmp	r3, #3
 8001724:	d810      	bhi.n	8001748 <IO004_DisableOutputDriver+0xb0>
 8001726:	6842      	ldr	r2, [r0, #4]
 8001728:	00d8      	lsls	r0, r3, #3
 800172a:	69d4      	ldr	r4, [r2, #28]
 800172c:	1cc3      	adds	r3, r0, #3
 800172e:	201f      	movs	r0, #31
 8001730:	fa00 f003 	lsl.w	r0, r0, r3
 8001734:	ea24 0000 	bic.w	r0, r4, r0
 8001738:	61d0      	str	r0, [r2, #28]
 800173a:	69d0      	ldr	r0, [r2, #28]
 800173c:	f001 011f 	and.w	r1, r1, #31
 8001740:	fa01 f303 	lsl.w	r3, r1, r3
 8001744:	4303      	orrs	r3, r0
 8001746:	61d3      	str	r3, [r2, #28]
 8001748:	bd10      	pop	{r4, pc}

0800174a <IO004_EnableOutputDriver>:
 800174a:	b510      	push	{r4, lr}
 800174c:	7843      	ldrb	r3, [r0, #1]
 800174e:	2b03      	cmp	r3, #3
 8001750:	d811      	bhi.n	8001776 <IO004_EnableOutputDriver+0x2c>
 8001752:	6842      	ldr	r2, [r0, #4]
 8001754:	00db      	lsls	r3, r3, #3
 8001756:	6914      	ldr	r4, [r2, #16]
 8001758:	3303      	adds	r3, #3
 800175a:	201f      	movs	r0, #31
 800175c:	fa00 f003 	lsl.w	r0, r0, r3
 8001760:	ea24 0000 	bic.w	r0, r4, r0
 8001764:	6110      	str	r0, [r2, #16]
 8001766:	6910      	ldr	r0, [r2, #16]
 8001768:	f001 011f 	and.w	r1, r1, #31
 800176c:	fa01 f303 	lsl.w	r3, r1, r3
 8001770:	4303      	orrs	r3, r0
 8001772:	6113      	str	r3, [r2, #16]
 8001774:	bd10      	pop	{r4, pc}
 8001776:	1f1a      	subs	r2, r3, #4
 8001778:	b2d2      	uxtb	r2, r2
 800177a:	2a03      	cmp	r2, #3
 800177c:	d811      	bhi.n	80017a2 <IO004_EnableOutputDriver+0x58>
 800177e:	6843      	ldr	r3, [r0, #4]
 8001780:	00d0      	lsls	r0, r2, #3
 8001782:	695c      	ldr	r4, [r3, #20]
 8001784:	1cc2      	adds	r2, r0, #3
 8001786:	201f      	movs	r0, #31
 8001788:	fa00 f002 	lsl.w	r0, r0, r2
 800178c:	ea24 0000 	bic.w	r0, r4, r0
 8001790:	6158      	str	r0, [r3, #20]
 8001792:	6958      	ldr	r0, [r3, #20]
 8001794:	f001 011f 	and.w	r1, r1, #31
 8001798:	fa01 f202 	lsl.w	r2, r1, r2
 800179c:	4302      	orrs	r2, r0
 800179e:	615a      	str	r2, [r3, #20]
 80017a0:	bd10      	pop	{r4, pc}
 80017a2:	f1a3 0208 	sub.w	r2, r3, #8
 80017a6:	b2d2      	uxtb	r2, r2
 80017a8:	2a03      	cmp	r2, #3
 80017aa:	d811      	bhi.n	80017d0 <IO004_EnableOutputDriver+0x86>
 80017ac:	6843      	ldr	r3, [r0, #4]
 80017ae:	00d2      	lsls	r2, r2, #3
 80017b0:	699c      	ldr	r4, [r3, #24]
 80017b2:	3203      	adds	r2, #3
 80017b4:	201f      	movs	r0, #31
 80017b6:	fa00 f002 	lsl.w	r0, r0, r2
 80017ba:	ea24 0000 	bic.w	r0, r4, r0
 80017be:	6198      	str	r0, [r3, #24]
 80017c0:	6998      	ldr	r0, [r3, #24]
 80017c2:	f001 011f 	and.w	r1, r1, #31
 80017c6:	fa01 f202 	lsl.w	r2, r1, r2
 80017ca:	4302      	orrs	r2, r0
 80017cc:	619a      	str	r2, [r3, #24]
 80017ce:	bd10      	pop	{r4, pc}
 80017d0:	3b0c      	subs	r3, #12
 80017d2:	b2db      	uxtb	r3, r3
 80017d4:	2b03      	cmp	r3, #3
 80017d6:	d810      	bhi.n	80017fa <IO004_EnableOutputDriver+0xb0>
 80017d8:	6842      	ldr	r2, [r0, #4]
 80017da:	00d8      	lsls	r0, r3, #3
 80017dc:	69d4      	ldr	r4, [r2, #28]
 80017de:	1cc3      	adds	r3, r0, #3
 80017e0:	201f      	movs	r0, #31
 80017e2:	fa00 f003 	lsl.w	r0, r0, r3
 80017e6:	ea24 0000 	bic.w	r0, r4, r0
 80017ea:	61d0      	str	r0, [r2, #28]
 80017ec:	69d0      	ldr	r0, [r2, #28]
 80017ee:	f001 011f 	and.w	r1, r1, #31
 80017f2:	fa01 f303 	lsl.w	r3, r1, r3
 80017f6:	4303      	orrs	r3, r0
 80017f8:	61d3      	str	r3, [r2, #28]
 80017fa:	bd10      	pop	{r4, pc}

080017fc <DAVE_Init>:
 80017fc:	490b      	ldr	r1, [pc, #44]	; (800182c <DAVE_Init+0x30>)
 80017fe:	480c      	ldr	r0, [pc, #48]	; (8001830 <DAVE_Init+0x34>)
 8001800:	b508      	push	{r3, lr}
 8001802:	68cb      	ldr	r3, [r1, #12]
 8001804:	f64f 02ff 	movw	r2, #63743	; 0xf8ff
 8001808:	401a      	ands	r2, r3
 800180a:	ea42 0300 	orr.w	r3, r2, r0
 800180e:	60cb      	str	r3, [r1, #12]
 8001810:	f000 f840 	bl	8001894 <DAVE_MUX_PreInit>
 8001814:	f7ff fef0 	bl	80015f8 <IO004_Init>
 8001818:	f000 f84c 	bl	80018b4 <CLK001_Init>
 800181c:	f000 f930 	bl	8001a80 <CCU4GLOBAL_Init>
 8001820:	f7ff fe04 	bl	800142c <PWMSP001_Init>
 8001824:	e8bd 4008 	ldmia.w	sp!, {r3, lr}
 8001828:	f000 b806 	b.w	8001838 <DAVE_MUX_Init>
 800182c:	e000ed00 	.word	0xe000ed00
 8001830:	05fa0100 	.word	0x05fa0100

08001834 <SystemInit_DAVE3>:
 8001834:	f000 b83e 	b.w	80018b4 <CLK001_Init>

08001838 <DAVE_MUX_Init>:
 8001838:	4b15      	ldr	r3, [pc, #84]	; (8001890 <DAVE_MUX_Init+0x58>)
 800183a:	691a      	ldr	r2, [r3, #16]
 800183c:	f022 00b8 	bic.w	r0, r2, #184	; 0xb8
 8001840:	f040 0198 	orr.w	r1, r0, #152	; 0x98
 8001844:	6119      	str	r1, [r3, #16]
 8001846:	691a      	ldr	r2, [r3, #16]
 8001848:	f422 4038 	bic.w	r0, r2, #47104	; 0xb800
 800184c:	f440 4118 	orr.w	r1, r0, #38912	; 0x9800
 8001850:	6119      	str	r1, [r3, #16]
 8001852:	691a      	ldr	r2, [r3, #16]
 8001854:	f422 0038 	bic.w	r0, r2, #12058624	; 0xb80000
 8001858:	f440 0118 	orr.w	r1, r0, #9961472	; 0x980000
 800185c:	6119      	str	r1, [r3, #16]
 800185e:	f8d3 2110 	ldr.w	r2, [r3, #272]	; 0x110
 8001862:	f442 0000 	orr.w	r0, r2, #8388608	; 0x800000
 8001866:	f8c3 0110 	str.w	r0, [r3, #272]	; 0x110
 800186a:	f8d3 1114 	ldr.w	r1, [r3, #276]	; 0x114
 800186e:	f041 0280 	orr.w	r2, r1, #128	; 0x80
 8001872:	f8c3 2114 	str.w	r2, [r3, #276]	; 0x114
 8001876:	f8d3 0114 	ldr.w	r0, [r3, #276]	; 0x114
 800187a:	f440 4100 	orr.w	r1, r0, #32768	; 0x8000
 800187e:	f8c3 1114 	str.w	r1, [r3, #276]	; 0x114
 8001882:	f8d3 2118 	ldr.w	r2, [r3, #280]	; 0x118
 8001886:	f042 0080 	orr.w	r0, r2, #128	; 0x80
 800188a:	f8c3 0118 	str.w	r0, [r3, #280]	; 0x118
 800188e:	4770      	bx	lr
 8001890:	48028100 	.word	0x48028100

08001894 <DAVE_MUX_PreInit>:
 8001894:	4770      	bx	lr

08001896 <CLK001_Delay>:
 8001896:	b082      	sub	sp, #8
 8001898:	2200      	movs	r2, #0
 800189a:	9201      	str	r2, [sp, #4]
 800189c:	9b01      	ldr	r3, [sp, #4]
 800189e:	4283      	cmp	r3, r0
 80018a0:	d206      	bcs.n	80018b0 <CLK001_Delay+0x1a>
 80018a2:	bf00      	nop
 80018a4:	bf00      	nop
 80018a6:	bf00      	nop
 80018a8:	bf00      	nop
 80018aa:	9901      	ldr	r1, [sp, #4]
 80018ac:	1c4a      	adds	r2, r1, #1
 80018ae:	e7f4      	b.n	800189a <CLK001_Delay+0x4>
 80018b0:	b002      	add	sp, #8
 80018b2:	4770      	bx	lr

080018b4 <CLK001_Init>:
 80018b4:	b538      	push	{r3, r4, r5, lr}
 80018b6:	4b64      	ldr	r3, [pc, #400]	; (8001a48 <CLK001_Init+0x194>)
 80018b8:	4864      	ldr	r0, [pc, #400]	; (8001a4c <CLK001_Init+0x198>)
 80018ba:	685a      	ldr	r2, [r3, #4]
 80018bc:	4010      	ands	r0, r2
 80018be:	2800      	cmp	r0, #0
 80018c0:	f000 80ab 	beq.w	8001a1a <CLK001_Init+0x166>
 80018c4:	4962      	ldr	r1, [pc, #392]	; (8001a50 <CLK001_Init+0x19c>)
 80018c6:	680c      	ldr	r4, [r1, #0]
 80018c8:	07e2      	lsls	r2, r4, #31
 80018ca:	d403      	bmi.n	80018d4 <CLK001_Init+0x20>
 80018cc:	684d      	ldr	r5, [r1, #4]
 80018ce:	f045 0301 	orr.w	r3, r5, #1
 80018d2:	604b      	str	r3, [r1, #4]
 80018d4:	485f      	ldr	r0, [pc, #380]	; (8001a54 <CLK001_Init+0x1a0>)
 80018d6:	6802      	ldr	r2, [r0, #0]
 80018d8:	0591      	lsls	r1, r2, #22
 80018da:	d503      	bpl.n	80018e4 <CLK001_Init+0x30>
 80018dc:	6881      	ldr	r1, [r0, #8]
 80018de:	f441 7400 	orr.w	r4, r1, #512	; 0x200
 80018e2:	6084      	str	r4, [r0, #8]
 80018e4:	4d58      	ldr	r5, [pc, #352]	; (8001a48 <CLK001_Init+0x194>)
 80018e6:	686b      	ldr	r3, [r5, #4]
 80018e8:	f423 1080 	bic.w	r0, r3, #1048576	; 0x100000
 80018ec:	6068      	str	r0, [r5, #4]
 80018ee:	2064      	movs	r0, #100	; 0x64
 80018f0:	f7ff ffd1 	bl	8001896 <CLK001_Delay>
 80018f4:	686a      	ldr	r2, [r5, #4]
 80018f6:	f442 2100 	orr.w	r1, r2, #524288	; 0x80000
 80018fa:	2064      	movs	r0, #100	; 0x64
 80018fc:	6069      	str	r1, [r5, #4]
 80018fe:	f7ff ffca 	bl	8001896 <CLK001_Delay>
 8001902:	686c      	ldr	r4, [r5, #4]
 8001904:	4954      	ldr	r1, [pc, #336]	; (8001a58 <CLK001_Init+0x1a4>)
 8001906:	f424 3380 	bic.w	r3, r4, #65536	; 0x10000
 800190a:	f023 0002 	bic.w	r0, r3, #2
 800190e:	6068      	str	r0, [r5, #4]
 8001910:	684a      	ldr	r2, [r1, #4]
 8001912:	f012 0f30 	tst.w	r2, #48	; 0x30
 8001916:	d01c      	beq.n	8001952 <CLK001_Init+0x9e>
 8001918:	684c      	ldr	r4, [r1, #4]
 800191a:	f024 0330 	bic.w	r3, r4, #48	; 0x30
 800191e:	604b      	str	r3, [r1, #4]
 8001920:	6848      	ldr	r0, [r1, #4]
 8001922:	f440 3240 	orr.w	r2, r0, #196608	; 0x30000
 8001926:	604a      	str	r2, [r1, #4]
 8001928:	68e9      	ldr	r1, [r5, #12]
 800192a:	f021 0401 	bic.w	r4, r1, #1
 800192e:	60ec      	str	r4, [r5, #12]
 8001930:	686b      	ldr	r3, [r5, #4]
 8001932:	f423 3000 	bic.w	r0, r3, #131072	; 0x20000
 8001936:	6068      	str	r0, [r5, #4]
 8001938:	f244 6450 	movw	r4, #18000	; 0x4650
 800193c:	4d42      	ldr	r5, [pc, #264]	; (8001a48 <CLK001_Init+0x194>)
 800193e:	200a      	movs	r0, #10
 8001940:	f7ff ffa9 	bl	8001896 <CLK001_Delay>
 8001944:	682a      	ldr	r2, [r5, #0]
 8001946:	f402 7160 	and.w	r1, r2, #896	; 0x380
 800194a:	f5b1 7f60 	cmp.w	r1, #896	; 0x380
 800194e:	d168      	bne.n	8001a22 <CLK001_Init+0x16e>
 8001950:	682b      	ldr	r3, [r5, #0]
 8001952:	4b3d      	ldr	r3, [pc, #244]	; (8001a48 <CLK001_Init+0x194>)
 8001954:	6818      	ldr	r0, [r3, #0]
 8001956:	0742      	lsls	r2, r0, #29
 8001958:	d42d      	bmi.n	80019b6 <CLK001_Init+0x102>
 800195a:	4a40      	ldr	r2, [pc, #256]	; (8001a5c <CLK001_Init+0x1a8>)
 800195c:	4940      	ldr	r1, [pc, #256]	; (8001a60 <CLK001_Init+0x1ac>)
 800195e:	2513      	movs	r5, #19
 8001960:	e882 0022 	stmia.w	r2, {r1, r5}
 8001964:	685d      	ldr	r5, [r3, #4]
 8001966:	4a3f      	ldr	r2, [pc, #252]	; (8001a64 <CLK001_Init+0x1b0>)
 8001968:	f045 0101 	orr.w	r1, r5, #1
 800196c:	6059      	str	r1, [r3, #4]
 800196e:	685c      	ldr	r4, [r3, #4]
 8001970:	f044 0010 	orr.w	r0, r4, #16
 8001974:	6058      	str	r0, [r3, #4]
 8001976:	609a      	str	r2, [r3, #8]
 8001978:	685d      	ldr	r5, [r3, #4]
 800197a:	f045 0140 	orr.w	r1, r5, #64	; 0x40
 800197e:	6059      	str	r1, [r3, #4]
 8001980:	685c      	ldr	r4, [r3, #4]
 8001982:	f024 0010 	bic.w	r0, r4, #16
 8001986:	6058      	str	r0, [r3, #4]
 8001988:	685a      	ldr	r2, [r3, #4]
 800198a:	f442 2580 	orr.w	r5, r2, #262144	; 0x40000
 800198e:	605d      	str	r5, [r3, #4]
 8001990:	f244 6450 	movw	r4, #18000	; 0x4650
 8001994:	200a      	movs	r0, #10
 8001996:	f7ff ff7e 	bl	8001896 <CLK001_Delay>
 800199a:	4b2b      	ldr	r3, [pc, #172]	; (8001a48 <CLK001_Init+0x194>)
 800199c:	6819      	ldr	r1, [r3, #0]
 800199e:	f011 0f04 	tst.w	r1, #4
 80019a2:	4618      	mov	r0, r3
 80019a4:	d040      	beq.n	8001a28 <CLK001_Init+0x174>
 80019a6:	6802      	ldr	r2, [r0, #0]
 80019a8:	4d27      	ldr	r5, [pc, #156]	; (8001a48 <CLK001_Init+0x194>)
 80019aa:	0754      	lsls	r4, r2, #29
 80019ac:	d503      	bpl.n	80019b6 <CLK001_Init+0x102>
 80019ae:	686b      	ldr	r3, [r5, #4]
 80019b0:	f023 0101 	bic.w	r1, r3, #1
 80019b4:	6069      	str	r1, [r5, #4]
 80019b6:	482c      	ldr	r0, [pc, #176]	; (8001a68 <CLK001_Init+0x1b4>)
 80019b8:	4929      	ldr	r1, [pc, #164]	; (8001a60 <CLK001_Init+0x1ac>)
 80019ba:	68c4      	ldr	r4, [r0, #12]
 80019bc:	f444 3580 	orr.w	r5, r4, #65536	; 0x10000
 80019c0:	4c21      	ldr	r4, [pc, #132]	; (8001a48 <CLK001_Init+0x194>)
 80019c2:	60c5      	str	r5, [r0, #12]
 80019c4:	6862      	ldr	r2, [r4, #4]
 80019c6:	4d25      	ldr	r5, [pc, #148]	; (8001a5c <CLK001_Init+0x1a8>)
 80019c8:	f022 0340 	bic.w	r3, r2, #64	; 0x40
 80019cc:	6063      	str	r3, [r4, #4]
 80019ce:	2064      	movs	r0, #100	; 0x64
 80019d0:	6029      	str	r1, [r5, #0]
 80019d2:	f7ff ff60 	bl	8001896 <CLK001_Delay>
 80019d6:	4825      	ldr	r0, [pc, #148]	; (8001a6c <CLK001_Init+0x1b8>)
 80019d8:	60a0      	str	r0, [r4, #8]
 80019da:	2064      	movs	r0, #100	; 0x64
 80019dc:	f7ff ff5b 	bl	8001896 <CLK001_Delay>
 80019e0:	4b23      	ldr	r3, [pc, #140]	; (8001a70 <CLK001_Init+0x1bc>)
 80019e2:	2204      	movs	r2, #4
 80019e4:	606a      	str	r2, [r5, #4]
 80019e6:	2096      	movs	r0, #150	; 0x96
 80019e8:	60a3      	str	r3, [r4, #8]
 80019ea:	f7ff ff54 	bl	8001896 <CLK001_Delay>
 80019ee:	4921      	ldr	r1, [pc, #132]	; (8001a74 <CLK001_Init+0x1c0>)
 80019f0:	60a1      	str	r1, [r4, #8]
 80019f2:	68a0      	ldr	r0, [r4, #8]
 80019f4:	f3c0 6303 	ubfx	r3, r0, #24, #4
 80019f8:	2b00      	cmp	r3, #0
 80019fa:	d123      	bne.n	8001a44 <CLK001_Init+0x190>
 80019fc:	68a2      	ldr	r2, [r4, #8]
 80019fe:	f3c2 2106 	ubfx	r1, r2, #8, #7
 8001a02:	2927      	cmp	r1, #39	; 0x27
 8001a04:	d013      	beq.n	8001a2e <CLK001_Init+0x17a>
 8001a06:	4a1c      	ldr	r2, [pc, #112]	; (8001a78 <CLK001_Init+0x1c4>)
 8001a08:	2105      	movs	r1, #5
 8001a0a:	2b01      	cmp	r3, #1
 8001a0c:	60d1      	str	r1, [r2, #12]
 8001a0e:	d104      	bne.n	8001a1a <CLK001_Init+0x166>
 8001a10:	4815      	ldr	r0, [pc, #84]	; (8001a68 <CLK001_Init+0x1b4>)
 8001a12:	6843      	ldr	r3, [r0, #4]
 8001a14:	f043 0110 	orr.w	r1, r3, #16
 8001a18:	6041      	str	r1, [r0, #4]
 8001a1a:	e8bd 4038 	ldmia.w	sp!, {r3, r4, r5, lr}
 8001a1e:	f7fe bcc5 	b.w	80003ac <SystemCoreClockUpdate>
 8001a22:	3c01      	subs	r4, #1
 8001a24:	d18a      	bne.n	800193c <CLK001_Init+0x88>
 8001a26:	e793      	b.n	8001950 <CLK001_Init+0x9c>
 8001a28:	3c01      	subs	r4, #1
 8001a2a:	d1b3      	bne.n	8001994 <CLK001_Init+0xe0>
 8001a2c:	e7bb      	b.n	80019a6 <CLK001_Init+0xf2>
 8001a2e:	68a0      	ldr	r0, [r4, #8]
 8001a30:	0640      	lsls	r0, r0, #25
 8001a32:	d1e8      	bne.n	8001a06 <CLK001_Init+0x152>
 8001a34:	68a3      	ldr	r3, [r4, #8]
 8001a36:	f3c3 4206 	ubfx	r2, r3, #16, #7
 8001a3a:	1ed1      	subs	r1, r2, #3
 8001a3c:	4248      	negs	r0, r1
 8001a3e:	eb50 0301 	adcs.w	r3, r0, r1
 8001a42:	e7e0      	b.n	8001a06 <CLK001_Init+0x152>
 8001a44:	2300      	movs	r3, #0
 8001a46:	e7de      	b.n	8001a06 <CLK001_Init+0x152>
 8001a48:	50004710 	.word	0x50004710
 8001a4c:	00010002 	.word	0x00010002
 8001a50:	50004200 	.word	0x50004200
 8001a54:	50004400 	.word	0x50004400
 8001a58:	50004700 	.word	0x50004700
 8001a5c:	20000018 	.word	0x20000018
 8001a60:	1c9c3800 	.word	0x1c9c3800
 8001a64:	00132700 	.word	0x00132700
 8001a68:	50004600 	.word	0x50004600
 8001a6c:	00072700 	.word	0x00072700
 8001a70:	00042700 	.word	0x00042700
 8001a74:	00032700 	.word	0x00032700
 8001a78:	50004160 	.word	0x50004160

08001a7c <AllowPLLInitByStartup>:
 8001a7c:	2000      	movs	r0, #0
 8001a7e:	4770      	bx	lr

08001a80 <CCU4GLOBAL_Init>:
 8001a80:	b538      	push	{r3, r4, r5, lr}
 8001a82:	4c08      	ldr	r4, [pc, #32]	; (8001aa4 <CCU4GLOBAL_Init+0x24>)
 8001a84:	6823      	ldr	r3, [r4, #0]
 8001a86:	b95b      	cbnz	r3, 8001aa0 <CCU4GLOBAL_Init+0x20>
 8001a88:	4807      	ldr	r0, [pc, #28]	; (8001aa8 <CCU4GLOBAL_Init+0x28>)
 8001a8a:	6805      	ldr	r5, [r0, #0]
 8001a8c:	68a8      	ldr	r0, [r5, #8]
 8001a8e:	f7fe ff8b 	bl	80009a8 <RESET001_DeassertReset>
 8001a92:	6829      	ldr	r1, [r5, #0]
 8001a94:	68ca      	ldr	r2, [r1, #12]
 8001a96:	2001      	movs	r0, #1
 8001a98:	f442 7380 	orr.w	r3, r2, #256	; 0x100
 8001a9c:	60cb      	str	r3, [r1, #12]
 8001a9e:	6020      	str	r0, [r4, #0]
 8001aa0:	bd38      	pop	{r3, r4, r5, pc}
 8001aa2:	bf00      	nop
 8001aa4:	20000020 	.word	0x20000020
 8001aa8:	20000004 	.word	0x20000004

08001aac <__libc_init_array>:
 8001aac:	b5f8      	push	{r3, r4, r5, r6, r7, lr}
 8001aae:	4f20      	ldr	r7, [pc, #128]	; (8001b30 <__libc_init_array+0x84>)
 8001ab0:	4c20      	ldr	r4, [pc, #128]	; (8001b34 <__libc_init_array+0x88>)
 8001ab2:	1b38      	subs	r0, r7, r4
 8001ab4:	1087      	asrs	r7, r0, #2
 8001ab6:	d017      	beq.n	8001ae8 <__libc_init_array+0x3c>
 8001ab8:	1e7a      	subs	r2, r7, #1
 8001aba:	6823      	ldr	r3, [r4, #0]
 8001abc:	2501      	movs	r5, #1
 8001abe:	f002 0601 	and.w	r6, r2, #1
 8001ac2:	4798      	blx	r3
 8001ac4:	42af      	cmp	r7, r5
 8001ac6:	d00f      	beq.n	8001ae8 <__libc_init_array+0x3c>
 8001ac8:	b12e      	cbz	r6, 8001ad6 <__libc_init_array+0x2a>
 8001aca:	f854 1f04 	ldr.w	r1, [r4, #4]!
 8001ace:	2502      	movs	r5, #2
 8001ad0:	4788      	blx	r1
 8001ad2:	42af      	cmp	r7, r5
 8001ad4:	d008      	beq.n	8001ae8 <__libc_init_array+0x3c>
 8001ad6:	6860      	ldr	r0, [r4, #4]
 8001ad8:	4780      	blx	r0
 8001ada:	3502      	adds	r5, #2
 8001adc:	68a2      	ldr	r2, [r4, #8]
 8001ade:	1d26      	adds	r6, r4, #4
 8001ae0:	4790      	blx	r2
 8001ae2:	3408      	adds	r4, #8
 8001ae4:	42af      	cmp	r7, r5
 8001ae6:	d1f6      	bne.n	8001ad6 <__libc_init_array+0x2a>
 8001ae8:	4f13      	ldr	r7, [pc, #76]	; (8001b38 <__libc_init_array+0x8c>)
 8001aea:	4c14      	ldr	r4, [pc, #80]	; (8001b3c <__libc_init_array+0x90>)
 8001aec:	f7fe ff4e 	bl	800098c <_init>
 8001af0:	1b3b      	subs	r3, r7, r4
 8001af2:	109f      	asrs	r7, r3, #2
 8001af4:	d018      	beq.n	8001b28 <__libc_init_array+0x7c>
 8001af6:	1e7d      	subs	r5, r7, #1
 8001af8:	6821      	ldr	r1, [r4, #0]
 8001afa:	f005 0601 	and.w	r6, r5, #1
 8001afe:	2501      	movs	r5, #1
 8001b00:	4788      	blx	r1
 8001b02:	42af      	cmp	r7, r5
 8001b04:	d011      	beq.n	8001b2a <__libc_init_array+0x7e>
 8001b06:	b12e      	cbz	r6, 8001b14 <__libc_init_array+0x68>
 8001b08:	f854 0f04 	ldr.w	r0, [r4, #4]!
 8001b0c:	2502      	movs	r5, #2
 8001b0e:	4780      	blx	r0
 8001b10:	42af      	cmp	r7, r5
 8001b12:	d00b      	beq.n	8001b2c <__libc_init_array+0x80>
 8001b14:	6862      	ldr	r2, [r4, #4]
 8001b16:	4790      	blx	r2
 8001b18:	3502      	adds	r5, #2
 8001b1a:	68a3      	ldr	r3, [r4, #8]
 8001b1c:	1d26      	adds	r6, r4, #4
 8001b1e:	4798      	blx	r3
 8001b20:	3408      	adds	r4, #8
 8001b22:	42af      	cmp	r7, r5
 8001b24:	d1f6      	bne.n	8001b14 <__libc_init_array+0x68>
 8001b26:	bdf8      	pop	{r3, r4, r5, r6, r7, pc}
 8001b28:	bdf8      	pop	{r3, r4, r5, r6, r7, pc}
 8001b2a:	bdf8      	pop	{r3, r4, r5, r6, r7, pc}
 8001b2c:	bdf8      	pop	{r3, r4, r5, r6, r7, pc}
 8001b2e:	bf00      	nop
 8001b30:	08001b40 	.word	0x08001b40
 8001b34:	08001b40 	.word	0x08001b40
 8001b38:	08001b40 	.word	0x08001b40
 8001b3c:	08001b40 	.word	0x08001b40
