   1              		.syntax unified
   2              		.cpu cortex-m4
   3              		.eabi_attribute 27, 3
   4              		.fpu fpv4-sp-d16
   5              		.eabi_attribute 20, 1
   6              		.eabi_attribute 21, 1
   7              		.eabi_attribute 23, 3
   8              		.eabi_attribute 24, 1
   9              		.eabi_attribute 25, 1
  10              		.eabi_attribute 26, 1
  11              		.eabi_attribute 30, 6
  12              		.eabi_attribute 34, 1
  13              		.eabi_attribute 18, 4
  14              		.thumb
  15              		.file	"IO004.c"
  16              		.text
  17              	.Ltext0:
  18              		.cfi_sections	.debug_frame
  19              		.section	.text.IO004_Init,"ax",%progbits
  20              		.align	2
  21              		.global	IO004_Init
  22              		.thumb
  23              		.thumb_func
  25              	IO004_Init:
  26              	.LFB117:
  27              		.file 1 "../Dave/Generated/src/IO004/IO004.c"
   1:../Dave/Generated/src/IO004/IO004.c **** /*******************************************************************************
   2:../Dave/Generated/src/IO004/IO004.c **** **  DAVE App Name : IO004       App Version: 1.0.22               
   3:../Dave/Generated/src/IO004/IO004.c **** **  This file is generated by DAVE, User modification to this file will be    **
   4:../Dave/Generated/src/IO004/IO004.c **** **  overwritten at the next code generation.                                  **
   5:../Dave/Generated/src/IO004/IO004.c **** *******************************************************************************/
   6:../Dave/Generated/src/IO004/IO004.c **** 
   7:../Dave/Generated/src/IO004/IO004.c **** 
   8:../Dave/Generated/src/IO004/IO004.c **** /*CODE_BLOCK_BEGIN[IO004.c]*/
   9:../Dave/Generated/src/IO004/IO004.c **** /*******************************************************************************
  10:../Dave/Generated/src/IO004/IO004.c ****  Copyright (c) 2012, Infineon Technologies AG                                 **
  11:../Dave/Generated/src/IO004/IO004.c ****  All rights reserved.                                                         **
  12:../Dave/Generated/src/IO004/IO004.c ****                                                                               **
  13:../Dave/Generated/src/IO004/IO004.c ****  Redistribution and use in source and binary forms, with or without           **
  14:../Dave/Generated/src/IO004/IO004.c ****  modification,are permitted provided that the following conditions are met:   **
  15:../Dave/Generated/src/IO004/IO004.c ****                                                                               **
  16:../Dave/Generated/src/IO004/IO004.c ****  *Redistributions of source code must retain the above copyright notice,      **
  17:../Dave/Generated/src/IO004/IO004.c ****  this list of conditions and the following disclaimer.                        **
  18:../Dave/Generated/src/IO004/IO004.c ****  *Redistributions in binary form must reproduce the above copyright notice,   **
  19:../Dave/Generated/src/IO004/IO004.c ****  this list of conditions and the following disclaimer in the documentation    **
  20:../Dave/Generated/src/IO004/IO004.c ****  and/or other materials provided with the distribution.                       **
  21:../Dave/Generated/src/IO004/IO004.c ****  *Neither the name of the copyright holders nor the names of its contributors **
  22:../Dave/Generated/src/IO004/IO004.c ****  may be used to endorse or promote products derived from this software without**
  23:../Dave/Generated/src/IO004/IO004.c ****  specific prior written permission.                                           **
  24:../Dave/Generated/src/IO004/IO004.c ****                                                                               **
  25:../Dave/Generated/src/IO004/IO004.c ****  THIS SOFTWARE IS PROVIDED BY THE COPYRIGHT HOLDERS AND CONTRIBUTORS "AS IS"  **
  26:../Dave/Generated/src/IO004/IO004.c ****  AND ANY EXPRESS OR IMPLIED WARRANTIES, INCLUDING, BUT NOT LIMITED TO, THE    **
  27:../Dave/Generated/src/IO004/IO004.c ****  IMPLIED WARRANTIES OF MERCHANTABILITY AND FITNESS FOR A PARTICULAR PURPOSE   **
  28:../Dave/Generated/src/IO004/IO004.c ****  ARE  DISCLAIMED. IN NO EVENT SHALL THE COPYRIGHT HOLDER OR CONTRIBUTORS BE   **
  29:../Dave/Generated/src/IO004/IO004.c ****  LIABLE  FOR ANY DIRECT, INDIRECT, INCIDENTAL, SPECIAL, EXEMPLARY, OR         **
  30:../Dave/Generated/src/IO004/IO004.c ****  CONSEQUENTIAL DAMAGES (INCLUDING, BUT NOT LIMITED TO, PROCUREMENT OF         **
  31:../Dave/Generated/src/IO004/IO004.c ****  SUBSTITUTE GOODS OR  SERVICES; LOSS OF USE, DATA, OR PROFITS; OR BUSINESS    **
  32:../Dave/Generated/src/IO004/IO004.c ****  INTERRUPTION) HOWEVER CAUSED AND ON ANY THEORY OF LIABILITY, WHETHER IN      **
  33:../Dave/Generated/src/IO004/IO004.c ****  CONTRACT, STRICT LIABILITY,OR TORT (INCLUDING NEGLIGENCE OR OTHERWISE)       **
  34:../Dave/Generated/src/IO004/IO004.c ****  ARISING IN ANY WAY OUT OF THE USE OF THIS SOFTWARE, EVEN IF ADVISED OF THE   **
  35:../Dave/Generated/src/IO004/IO004.c ****  POSSIBILITY OF SUCH DAMAGE.                                                  **
  36:../Dave/Generated/src/IO004/IO004.c ****                                                                               **
  37:../Dave/Generated/src/IO004/IO004.c ****  To improve the quality of the software, users are encouraged to share        **
  38:../Dave/Generated/src/IO004/IO004.c ****  modifications, enhancements or bug fixes with Infineon Technologies AG       **
  39:../Dave/Generated/src/IO004/IO004.c ****  dave@infineon.com).                                                          **
  40:../Dave/Generated/src/IO004/IO004.c ****                                                                               **
  41:../Dave/Generated/src/IO004/IO004.c **** ********************************************************************************
  42:../Dave/Generated/src/IO004/IO004.c **** **                                                                            **
  43:../Dave/Generated/src/IO004/IO004.c **** **                                                                            **
  44:../Dave/Generated/src/IO004/IO004.c **** ** PLATFORM : Infineon XMC4000/XMC1000 Series                                 **
  45:../Dave/Generated/src/IO004/IO004.c **** **                                                                            **
  46:../Dave/Generated/src/IO004/IO004.c **** ** COMPILER : Compiler Independent                                            **
  47:../Dave/Generated/src/IO004/IO004.c **** **                                                                            **
  48:../Dave/Generated/src/IO004/IO004.c **** ** AUTHOR   : App Developer                                                   **
  49:../Dave/Generated/src/IO004/IO004.c **** **                                                                            **
  50:../Dave/Generated/src/IO004/IO004.c **** ** MAY BE CHANGED BY USER [yes/no]: Yes                                       **
  51:../Dave/Generated/src/IO004/IO004.c **** **                                                                            **
  52:../Dave/Generated/src/IO004/IO004.c **** ** MODIFICATION DATE : Mar 16, 2013                                           **
  53:../Dave/Generated/src/IO004/IO004.c **** **                                                                            **
  54:../Dave/Generated/src/IO004/IO004.c **** *******************************************************************************/
  55:../Dave/Generated/src/IO004/IO004.c **** /*******************************************************************************
  56:../Dave/Generated/src/IO004/IO004.c **** **                      Author(s) Identity                                    **
  57:../Dave/Generated/src/IO004/IO004.c **** ********************************************************************************
  58:../Dave/Generated/src/IO004/IO004.c **** **                                                                            **
  59:../Dave/Generated/src/IO004/IO004.c **** ** Initials     Name                                                          **
  60:../Dave/Generated/src/IO004/IO004.c **** ** ---------------------------------------------------------------------------**
  61:../Dave/Generated/src/IO004/IO004.c **** ** PAE        App Developer                                                   **
  62:../Dave/Generated/src/IO004/IO004.c **** *******************************************************************************/
  63:../Dave/Generated/src/IO004/IO004.c **** /**
  64:../Dave/Generated/src/IO004/IO004.c ****  * @file   IO004.c
  65:../Dave/Generated/src/IO004/IO004.c ****  *
  66:../Dave/Generated/src/IO004/IO004.c ****  * @brief  IO_Digital _IO004 App
  67:../Dave/Generated/src/IO004/IO004.c ****  *
  68:../Dave/Generated/src/IO004/IO004.c ****  * This app can be used to configure a IO Pin when the output shall be 
  69:../Dave/Generated/src/IO004/IO004.c ****  * controlled by software or when it required  just as a input I/O.IO002 App can 
  70:../Dave/Generated/src/IO004/IO004.c ****  * be used in any case except when the output shall be controlled by software.			
  71:../Dave/Generated/src/IO004/IO004.c ****  *
  72:../Dave/Generated/src/IO004/IO004.c ****  *	Note: 
  73:../Dave/Generated/src/IO004/IO004.c ****  *	The App GUI configures the Port Pin as GPIO in input mode by default.
  74:../Dave/Generated/src/IO004/IO004.c ****  */
  75:../Dave/Generated/src/IO004/IO004.c **** /* Revision History 
  76:../Dave/Generated/src/IO004/IO004.c ****  *
  77:../Dave/Generated/src/IO004/IO004.c ****  * 01 Jan 2013  v1.0.12  Disabled Pad Class & Pad driver configuration for 
  78:../Dave/Generated/src/IO004/IO004.c ****  *                       XMC1000.
  79:../Dave/Generated/src/IO004/IO004.c ****  * 16 Mar 2013  v1.0.14  Modified OMR register configuration (Direct assignment 
  80:../Dave/Generated/src/IO004/IO004.c ****  *                       without reading) to upgrade performance.
  81:../Dave/Generated/src/IO004/IO004.c ****  *
  82:../Dave/Generated/src/IO004/IO004.c ****  */
  83:../Dave/Generated/src/IO004/IO004.c **** /*******************************************************************************
  84:../Dave/Generated/src/IO004/IO004.c ****  ** INCLUDE FILES                                                             **
  85:../Dave/Generated/src/IO004/IO004.c ****  ******************************************************************************/
  86:../Dave/Generated/src/IO004/IO004.c **** 
  87:../Dave/Generated/src/IO004/IO004.c **** /** Inclusion of header file */
  88:../Dave/Generated/src/IO004/IO004.c **** #include <DAVE3.h>
  89:../Dave/Generated/src/IO004/IO004.c **** 
  90:../Dave/Generated/src/IO004/IO004.c **** /*******************************************************************************
  91:../Dave/Generated/src/IO004/IO004.c **** **                      Private Macro Definitions                             **
  92:../Dave/Generated/src/IO004/IO004.c **** *******************************************************************************/
  93:../Dave/Generated/src/IO004/IO004.c **** 
  94:../Dave/Generated/src/IO004/IO004.c **** /*******************************************************************************
  95:../Dave/Generated/src/IO004/IO004.c **** **                      Private Type Definitions                              **
  96:../Dave/Generated/src/IO004/IO004.c **** *******************************************************************************/
  97:../Dave/Generated/src/IO004/IO004.c **** 
  98:../Dave/Generated/src/IO004/IO004.c **** /*******************************************************************************
  99:../Dave/Generated/src/IO004/IO004.c **** **                 Private Function Declarations:
 100:../Dave/Generated/src/IO004/IO004.c **** *******************************************************************************/
 101:../Dave/Generated/src/IO004/IO004.c **** 
 102:../Dave/Generated/src/IO004/IO004.c **** /*******************************************************************************
 103:../Dave/Generated/src/IO004/IO004.c **** **                      Global Constant Definitions                           **
 104:../Dave/Generated/src/IO004/IO004.c **** *******************************************************************************/
 105:../Dave/Generated/src/IO004/IO004.c **** 
 106:../Dave/Generated/src/IO004/IO004.c **** /*******************************************************************************
 107:../Dave/Generated/src/IO004/IO004.c **** **                      Global Variable Definitions                           **
 108:../Dave/Generated/src/IO004/IO004.c **** *******************************************************************************/
 109:../Dave/Generated/src/IO004/IO004.c **** 
 110:../Dave/Generated/src/IO004/IO004.c **** /*******************************************************************************
 111:../Dave/Generated/src/IO004/IO004.c **** **                      Private Constant Definitions                          **
 112:../Dave/Generated/src/IO004/IO004.c **** *******************************************************************************/
 113:../Dave/Generated/src/IO004/IO004.c **** 
 114:../Dave/Generated/src/IO004/IO004.c **** /*******************************************************************************
 115:../Dave/Generated/src/IO004/IO004.c **** **                 Function like macro definitions                            **
 116:../Dave/Generated/src/IO004/IO004.c **** *******************************************************************************/
 117:../Dave/Generated/src/IO004/IO004.c **** /*******************************************************************************
 118:../Dave/Generated/src/IO004/IO004.c **** **                      Private Function Definitions                          **
 119:../Dave/Generated/src/IO004/IO004.c **** *******************************************************************************/
 120:../Dave/Generated/src/IO004/IO004.c **** 
 121:../Dave/Generated/src/IO004/IO004.c **** /*******************************************************************************
 122:../Dave/Generated/src/IO004/IO004.c **** **                      Public Function Definitions                           **
 123:../Dave/Generated/src/IO004/IO004.c **** *******************************************************************************/
 124:../Dave/Generated/src/IO004/IO004.c **** /** @ingroup IO004_Func
 125:../Dave/Generated/src/IO004/IO004.c ****  * @{
 126:../Dave/Generated/src/IO004/IO004.c ****  */
 127:../Dave/Generated/src/IO004/IO004.c **** 
 128:../Dave/Generated/src/IO004/IO004.c **** void IO004_Init(void)
 129:../Dave/Generated/src/IO004/IO004.c **** {
  28              		.loc 1 129 0
  29              		.cfi_startproc
  30              		@ args = 0, pretend = 0, frame = 0
  31              		@ frame_needed = 1, uses_anonymous_args = 0
  32              		@ link register save eliminated.
  33 0000 80B4     		push	{r7}
  34              	.LCFI0:
  35              		.cfi_def_cfa_offset 4
  36              		.cfi_offset 7, -4
  37 0002 00AF     		add	r7, sp, #0
  38              	.LCFI1:
  39              		.cfi_def_cfa_register 7
 130:../Dave/Generated/src/IO004/IO004.c ****    /* <<<DD_IO004_API_1>>> */
 131:../Dave/Generated/src/IO004/IO004.c **** 
 132:../Dave/Generated/src/IO004/IO004.c **** 	   
 133:../Dave/Generated/src/IO004/IO004.c **** 
 134:../Dave/Generated/src/IO004/IO004.c ****   /* Configuration of 1 Port 0 based on User configuration */
 135:../Dave/Generated/src/IO004/IO004.c ****   IO004_Handle0.PortRegs->OMR = 0U<< 0;
  40              		.loc 1 135 0
  41 0004 40F20003 		movw	r3, #:lower16:IO004_Handle0
  42 0008 C0F20003 		movt	r3, #:upper16:IO004_Handle0
  43 000c 5B68     		ldr	r3, [r3, #4]
  44 000e 4FF00002 		mov	r2, #0
  45 0012 5A60     		str	r2, [r3, #4]
 136:../Dave/Generated/src/IO004/IO004.c ****   
 137:../Dave/Generated/src/IO004/IO004.c ****   IO004_Handle0.PortRegs->PDR0   &= (uint32_t)(~(PORT1_PDR0_PD0_Msk));
  46              		.loc 1 137 0
  47 0014 40F20003 		movw	r3, #:lower16:IO004_Handle0
  48 0018 C0F20003 		movt	r3, #:upper16:IO004_Handle0
  49 001c 5A68     		ldr	r2, [r3, #4]
  50 001e 40F20003 		movw	r3, #:lower16:IO004_Handle0
  51 0022 C0F20003 		movt	r3, #:upper16:IO004_Handle0
  52 0026 5B68     		ldr	r3, [r3, #4]
  53 0028 1B6C     		ldr	r3, [r3, #64]
  54 002a 23F00703 		bic	r3, r3, #7
  55 002e 1364     		str	r3, [r2, #64]
 138:../Dave/Generated/src/IO004/IO004.c ****   IO004_Handle0.PortRegs->PDR0   |= (uint32_t)((4UL << PORT1_PDR0_PD0_Pos) & \
  56              		.loc 1 138 0
  57 0030 40F20003 		movw	r3, #:lower16:IO004_Handle0
  58 0034 C0F20003 		movt	r3, #:upper16:IO004_Handle0
  59 0038 5A68     		ldr	r2, [r3, #4]
  60 003a 40F20003 		movw	r3, #:lower16:IO004_Handle0
  61 003e C0F20003 		movt	r3, #:upper16:IO004_Handle0
  62 0042 5B68     		ldr	r3, [r3, #4]
  63 0044 1B6C     		ldr	r3, [r3, #64]
  64 0046 43F00403 		orr	r3, r3, #4
  65 004a 1364     		str	r3, [r2, #64]
 139:../Dave/Generated/src/IO004/IO004.c ****                                           PORT1_PDR0_PD0_Msk);
 140:../Dave/Generated/src/IO004/IO004.c ****   IO004_Handle0.PortRegs->IOCR0 |= (0U << 3);   
  66              		.loc 1 140 0
  67 004c 40F20003 		movw	r3, #:lower16:IO004_Handle0
  68 0050 C0F20003 		movt	r3, #:upper16:IO004_Handle0
  69 0054 5A68     		ldr	r2, [r3, #4]
  70 0056 40F20003 		movw	r3, #:lower16:IO004_Handle0
  71 005a C0F20003 		movt	r3, #:upper16:IO004_Handle0
  72 005e 5B68     		ldr	r3, [r3, #4]
  73 0060 1B69     		ldr	r3, [r3, #16]
  74 0062 1361     		str	r3, [r2, #16]
 141:../Dave/Generated/src/IO004/IO004.c **** 
 142:../Dave/Generated/src/IO004/IO004.c ****   /* Configuration of 1 Port 3 based on User configuration */
 143:../Dave/Generated/src/IO004/IO004.c ****   IO004_Handle1.PortRegs->OMR = 1U<< 3;
  75              		.loc 1 143 0
  76 0064 40F20003 		movw	r3, #:lower16:IO004_Handle1
  77 0068 C0F20003 		movt	r3, #:upper16:IO004_Handle1
  78 006c 5B68     		ldr	r3, [r3, #4]
  79 006e 4FF00802 		mov	r2, #8
  80 0072 5A60     		str	r2, [r3, #4]
 144:../Dave/Generated/src/IO004/IO004.c ****   
 145:../Dave/Generated/src/IO004/IO004.c ****   IO004_Handle1.PortRegs->PDR0   &= (uint32_t)(~(PORT1_PDR0_PD3_Msk));
  81              		.loc 1 145 0
  82 0074 40F20003 		movw	r3, #:lower16:IO004_Handle1
  83 0078 C0F20003 		movt	r3, #:upper16:IO004_Handle1
  84 007c 5A68     		ldr	r2, [r3, #4]
  85 007e 40F20003 		movw	r3, #:lower16:IO004_Handle1
  86 0082 C0F20003 		movt	r3, #:upper16:IO004_Handle1
  87 0086 5B68     		ldr	r3, [r3, #4]
  88 0088 1B6C     		ldr	r3, [r3, #64]
  89 008a 23F4E043 		bic	r3, r3, #28672
  90 008e 1364     		str	r3, [r2, #64]
 146:../Dave/Generated/src/IO004/IO004.c ****   IO004_Handle1.PortRegs->PDR0   |= (uint32_t)((4UL << PORT1_PDR0_PD3_Pos) & \
  91              		.loc 1 146 0
  92 0090 40F20003 		movw	r3, #:lower16:IO004_Handle1
  93 0094 C0F20003 		movt	r3, #:upper16:IO004_Handle1
  94 0098 5A68     		ldr	r2, [r3, #4]
  95 009a 40F20003 		movw	r3, #:lower16:IO004_Handle1
  96 009e C0F20003 		movt	r3, #:upper16:IO004_Handle1
  97 00a2 5B68     		ldr	r3, [r3, #4]
  98 00a4 1B6C     		ldr	r3, [r3, #64]
  99 00a6 43F48043 		orr	r3, r3, #16384
 100 00aa 1364     		str	r3, [r2, #64]
 147:../Dave/Generated/src/IO004/IO004.c ****                                           PORT1_PDR0_PD3_Msk);
 148:../Dave/Generated/src/IO004/IO004.c ****   IO004_Handle1.PortRegs->IOCR0 |= (0U << 27);   
 101              		.loc 1 148 0
 102 00ac 40F20003 		movw	r3, #:lower16:IO004_Handle1
 103 00b0 C0F20003 		movt	r3, #:upper16:IO004_Handle1
 104 00b4 5A68     		ldr	r2, [r3, #4]
 105 00b6 40F20003 		movw	r3, #:lower16:IO004_Handle1
 106 00ba C0F20003 		movt	r3, #:upper16:IO004_Handle1
 107 00be 5B68     		ldr	r3, [r3, #4]
 108 00c0 1B69     		ldr	r3, [r3, #16]
 109 00c2 1361     		str	r3, [r2, #16]
 149:../Dave/Generated/src/IO004/IO004.c **** 
 150:../Dave/Generated/src/IO004/IO004.c ****   /* Configuration of 2 Port 8 based on User configuration */
 151:../Dave/Generated/src/IO004/IO004.c ****   IO004_Handle10.PortRegs->OMR = 0U<< 8;
 110              		.loc 1 151 0
 111 00c4 40F20003 		movw	r3, #:lower16:IO004_Handle10
 112 00c8 C0F20003 		movt	r3, #:upper16:IO004_Handle10
 113 00cc 5B68     		ldr	r3, [r3, #4]
 114 00ce 4FF00002 		mov	r2, #0
 115 00d2 5A60     		str	r2, [r3, #4]
 152:../Dave/Generated/src/IO004/IO004.c ****   
 153:../Dave/Generated/src/IO004/IO004.c ****   IO004_Handle10.PortRegs->PDR1  &= (uint32_t)(~(PORT2_PDR1_PD8_Msk));
 116              		.loc 1 153 0
 117 00d4 40F20003 		movw	r3, #:lower16:IO004_Handle10
 118 00d8 C0F20003 		movt	r3, #:upper16:IO004_Handle10
 119 00dc 5A68     		ldr	r2, [r3, #4]
 120 00de 40F20003 		movw	r3, #:lower16:IO004_Handle10
 121 00e2 C0F20003 		movt	r3, #:upper16:IO004_Handle10
 122 00e6 5B68     		ldr	r3, [r3, #4]
 123 00e8 5B6C     		ldr	r3, [r3, #68]
 124 00ea 23F00703 		bic	r3, r3, #7
 125 00ee 5364     		str	r3, [r2, #68]
 154:../Dave/Generated/src/IO004/IO004.c ****   IO004_Handle10.PortRegs->PDR1  |= (uint32_t)((4UL << PORT2_PDR1_PD8_Pos) & \
 126              		.loc 1 154 0
 127 00f0 40F20003 		movw	r3, #:lower16:IO004_Handle10
 128 00f4 C0F20003 		movt	r3, #:upper16:IO004_Handle10
 129 00f8 5A68     		ldr	r2, [r3, #4]
 130 00fa 40F20003 		movw	r3, #:lower16:IO004_Handle10
 131 00fe C0F20003 		movt	r3, #:upper16:IO004_Handle10
 132 0102 5B68     		ldr	r3, [r3, #4]
 133 0104 5B6C     		ldr	r3, [r3, #68]
 134 0106 43F00403 		orr	r3, r3, #4
 135 010a 5364     		str	r3, [r2, #68]
 155:../Dave/Generated/src/IO004/IO004.c ****                                      PORT2_PDR1_PD8_Msk);
 156:../Dave/Generated/src/IO004/IO004.c ****   IO004_Handle10.PortRegs->IOCR8 |= (0U << 3);   
 136              		.loc 1 156 0
 137 010c 40F20003 		movw	r3, #:lower16:IO004_Handle10
 138 0110 C0F20003 		movt	r3, #:upper16:IO004_Handle10
 139 0114 5A68     		ldr	r2, [r3, #4]
 140 0116 40F20003 		movw	r3, #:lower16:IO004_Handle10
 141 011a C0F20003 		movt	r3, #:upper16:IO004_Handle10
 142 011e 5B68     		ldr	r3, [r3, #4]
 143 0120 9B69     		ldr	r3, [r3, #24]
 144 0122 9361     		str	r3, [r2, #24]
 157:../Dave/Generated/src/IO004/IO004.c **** 
 158:../Dave/Generated/src/IO004/IO004.c ****   /* Configuration of 2 Port 5 based on User configuration */
 159:../Dave/Generated/src/IO004/IO004.c ****   IO004_Handle11.PortRegs->OMR = 0U<< 5;
 145              		.loc 1 159 0
 146 0124 40F20003 		movw	r3, #:lower16:IO004_Handle11
 147 0128 C0F20003 		movt	r3, #:upper16:IO004_Handle11
 148 012c 5B68     		ldr	r3, [r3, #4]
 149 012e 4FF00002 		mov	r2, #0
 150 0132 5A60     		str	r2, [r3, #4]
 160:../Dave/Generated/src/IO004/IO004.c ****   
 161:../Dave/Generated/src/IO004/IO004.c ****   IO004_Handle11.PortRegs->PDR0   &= (uint32_t)(~(PORT2_PDR0_PD5_Msk));
 151              		.loc 1 161 0
 152 0134 40F20003 		movw	r3, #:lower16:IO004_Handle11
 153 0138 C0F20003 		movt	r3, #:upper16:IO004_Handle11
 154 013c 5A68     		ldr	r2, [r3, #4]
 155 013e 40F20003 		movw	r3, #:lower16:IO004_Handle11
 156 0142 C0F20003 		movt	r3, #:upper16:IO004_Handle11
 157 0146 5B68     		ldr	r3, [r3, #4]
 158 0148 1B6C     		ldr	r3, [r3, #64]
 159 014a 23F4E003 		bic	r3, r3, #7340032
 160 014e 1364     		str	r3, [r2, #64]
 162:../Dave/Generated/src/IO004/IO004.c ****   IO004_Handle11.PortRegs->PDR0   |= (uint32_t)((4UL << PORT2_PDR0_PD5_Pos) & \
 161              		.loc 1 162 0
 162 0150 40F20003 		movw	r3, #:lower16:IO004_Handle11
 163 0154 C0F20003 		movt	r3, #:upper16:IO004_Handle11
 164 0158 5A68     		ldr	r2, [r3, #4]
 165 015a 40F20003 		movw	r3, #:lower16:IO004_Handle11
 166 015e C0F20003 		movt	r3, #:upper16:IO004_Handle11
 167 0162 5B68     		ldr	r3, [r3, #4]
 168 0164 1B6C     		ldr	r3, [r3, #64]
 169 0166 43F48003 		orr	r3, r3, #4194304
 170 016a 1364     		str	r3, [r2, #64]
 163:../Dave/Generated/src/IO004/IO004.c ****                                           PORT2_PDR0_PD5_Msk);
 164:../Dave/Generated/src/IO004/IO004.c ****   IO004_Handle11.PortRegs->IOCR4 |= (0U << 11);   
 171              		.loc 1 164 0
 172 016c 40F20003 		movw	r3, #:lower16:IO004_Handle11
 173 0170 C0F20003 		movt	r3, #:upper16:IO004_Handle11
 174 0174 5A68     		ldr	r2, [r3, #4]
 175 0176 40F20003 		movw	r3, #:lower16:IO004_Handle11
 176 017a C0F20003 		movt	r3, #:upper16:IO004_Handle11
 177 017e 5B68     		ldr	r3, [r3, #4]
 178 0180 5B69     		ldr	r3, [r3, #20]
 179 0182 5361     		str	r3, [r2, #20]
 165:../Dave/Generated/src/IO004/IO004.c **** 
 166:../Dave/Generated/src/IO004/IO004.c ****   /* Configuration of 2 Port 4 based on User configuration */
 167:../Dave/Generated/src/IO004/IO004.c ****   IO004_Handle12.PortRegs->OMR = 0U<< 4;
 180              		.loc 1 167 0
 181 0184 40F20003 		movw	r3, #:lower16:IO004_Handle12
 182 0188 C0F20003 		movt	r3, #:upper16:IO004_Handle12
 183 018c 5B68     		ldr	r3, [r3, #4]
 184 018e 4FF00002 		mov	r2, #0
 185 0192 5A60     		str	r2, [r3, #4]
 168:../Dave/Generated/src/IO004/IO004.c ****   
 169:../Dave/Generated/src/IO004/IO004.c ****   IO004_Handle12.PortRegs->PDR0   &= (uint32_t)(~(PORT2_PDR0_PD4_Msk));
 186              		.loc 1 169 0
 187 0194 40F20003 		movw	r3, #:lower16:IO004_Handle12
 188 0198 C0F20003 		movt	r3, #:upper16:IO004_Handle12
 189 019c 5A68     		ldr	r2, [r3, #4]
 190 019e 40F20003 		movw	r3, #:lower16:IO004_Handle12
 191 01a2 C0F20003 		movt	r3, #:upper16:IO004_Handle12
 192 01a6 5B68     		ldr	r3, [r3, #4]
 193 01a8 1B6C     		ldr	r3, [r3, #64]
 194 01aa 23F4E023 		bic	r3, r3, #458752
 195 01ae 1364     		str	r3, [r2, #64]
 170:../Dave/Generated/src/IO004/IO004.c ****   IO004_Handle12.PortRegs->PDR0   |= (uint32_t)((4UL << PORT2_PDR0_PD4_Pos) & \
 196              		.loc 1 170 0
 197 01b0 40F20003 		movw	r3, #:lower16:IO004_Handle12
 198 01b4 C0F20003 		movt	r3, #:upper16:IO004_Handle12
 199 01b8 5A68     		ldr	r2, [r3, #4]
 200 01ba 40F20003 		movw	r3, #:lower16:IO004_Handle12
 201 01be C0F20003 		movt	r3, #:upper16:IO004_Handle12
 202 01c2 5B68     		ldr	r3, [r3, #4]
 203 01c4 1B6C     		ldr	r3, [r3, #64]
 204 01c6 43F48023 		orr	r3, r3, #262144
 205 01ca 1364     		str	r3, [r2, #64]
 171:../Dave/Generated/src/IO004/IO004.c ****                                           PORT2_PDR0_PD4_Msk);
 172:../Dave/Generated/src/IO004/IO004.c ****   IO004_Handle12.PortRegs->IOCR4 |= (0U << 3);   
 206              		.loc 1 172 0
 207 01cc 40F20003 		movw	r3, #:lower16:IO004_Handle12
 208 01d0 C0F20003 		movt	r3, #:upper16:IO004_Handle12
 209 01d4 5A68     		ldr	r2, [r3, #4]
 210 01d6 40F20003 		movw	r3, #:lower16:IO004_Handle12
 211 01da C0F20003 		movt	r3, #:upper16:IO004_Handle12
 212 01de 5B68     		ldr	r3, [r3, #4]
 213 01e0 5B69     		ldr	r3, [r3, #20]
 214 01e2 5361     		str	r3, [r2, #20]
 173:../Dave/Generated/src/IO004/IO004.c **** 
 174:../Dave/Generated/src/IO004/IO004.c ****   /* Configuration of 2 Port 3 based on User configuration */
 175:../Dave/Generated/src/IO004/IO004.c ****   IO004_Handle13.PortRegs->OMR = 0U<< 3;
 215              		.loc 1 175 0
 216 01e4 40F20003 		movw	r3, #:lower16:IO004_Handle13
 217 01e8 C0F20003 		movt	r3, #:upper16:IO004_Handle13
 218 01ec 5B68     		ldr	r3, [r3, #4]
 219 01ee 4FF00002 		mov	r2, #0
 220 01f2 5A60     		str	r2, [r3, #4]
 176:../Dave/Generated/src/IO004/IO004.c ****   
 177:../Dave/Generated/src/IO004/IO004.c ****   IO004_Handle13.PortRegs->PDR0   &= (uint32_t)(~(PORT2_PDR0_PD3_Msk));
 221              		.loc 1 177 0
 222 01f4 40F20003 		movw	r3, #:lower16:IO004_Handle13
 223 01f8 C0F20003 		movt	r3, #:upper16:IO004_Handle13
 224 01fc 5A68     		ldr	r2, [r3, #4]
 225 01fe 40F20003 		movw	r3, #:lower16:IO004_Handle13
 226 0202 C0F20003 		movt	r3, #:upper16:IO004_Handle13
 227 0206 5B68     		ldr	r3, [r3, #4]
 228 0208 1B6C     		ldr	r3, [r3, #64]
 229 020a 23F4E043 		bic	r3, r3, #28672
 230 020e 1364     		str	r3, [r2, #64]
 178:../Dave/Generated/src/IO004/IO004.c ****   IO004_Handle13.PortRegs->PDR0   |= (uint32_t)((4UL << PORT2_PDR0_PD3_Pos) & \
 231              		.loc 1 178 0
 232 0210 40F20003 		movw	r3, #:lower16:IO004_Handle13
 233 0214 C0F20003 		movt	r3, #:upper16:IO004_Handle13
 234 0218 5A68     		ldr	r2, [r3, #4]
 235 021a 40F20003 		movw	r3, #:lower16:IO004_Handle13
 236 021e C0F20003 		movt	r3, #:upper16:IO004_Handle13
 237 0222 5B68     		ldr	r3, [r3, #4]
 238 0224 1B6C     		ldr	r3, [r3, #64]
 239 0226 43F48043 		orr	r3, r3, #16384
 240 022a 1364     		str	r3, [r2, #64]
 179:../Dave/Generated/src/IO004/IO004.c ****                                           PORT2_PDR0_PD3_Msk);
 180:../Dave/Generated/src/IO004/IO004.c ****   IO004_Handle13.PortRegs->IOCR0 |= (0U << 27);   
 241              		.loc 1 180 0
 242 022c 40F20003 		movw	r3, #:lower16:IO004_Handle13
 243 0230 C0F20003 		movt	r3, #:upper16:IO004_Handle13
 244 0234 5A68     		ldr	r2, [r3, #4]
 245 0236 40F20003 		movw	r3, #:lower16:IO004_Handle13
 246 023a C0F20003 		movt	r3, #:upper16:IO004_Handle13
 247 023e 5B68     		ldr	r3, [r3, #4]
 248 0240 1B69     		ldr	r3, [r3, #16]
 249 0242 1361     		str	r3, [r2, #16]
 181:../Dave/Generated/src/IO004/IO004.c **** 
 182:../Dave/Generated/src/IO004/IO004.c ****   /* Configuration of 2 Port 2 based on User configuration */
 183:../Dave/Generated/src/IO004/IO004.c ****   IO004_Handle14.PortRegs->OMR = 0U<< 2;
 250              		.loc 1 183 0
 251 0244 40F20003 		movw	r3, #:lower16:IO004_Handle14
 252 0248 C0F20003 		movt	r3, #:upper16:IO004_Handle14
 253 024c 5B68     		ldr	r3, [r3, #4]
 254 024e 4FF00002 		mov	r2, #0
 255 0252 5A60     		str	r2, [r3, #4]
 184:../Dave/Generated/src/IO004/IO004.c ****   
 185:../Dave/Generated/src/IO004/IO004.c ****   IO004_Handle14.PortRegs->PDR0   &= (uint32_t)(~(PORT2_PDR0_PD2_Msk));
 256              		.loc 1 185 0
 257 0254 40F20003 		movw	r3, #:lower16:IO004_Handle14
 258 0258 C0F20003 		movt	r3, #:upper16:IO004_Handle14
 259 025c 5A68     		ldr	r2, [r3, #4]
 260 025e 40F20003 		movw	r3, #:lower16:IO004_Handle14
 261 0262 C0F20003 		movt	r3, #:upper16:IO004_Handle14
 262 0266 5B68     		ldr	r3, [r3, #4]
 263 0268 1B6C     		ldr	r3, [r3, #64]
 264 026a 23F4E063 		bic	r3, r3, #1792
 265 026e 1364     		str	r3, [r2, #64]
 186:../Dave/Generated/src/IO004/IO004.c ****   IO004_Handle14.PortRegs->PDR0   |= (uint32_t)((4UL << PORT2_PDR0_PD2_Pos) & \
 266              		.loc 1 186 0
 267 0270 40F20003 		movw	r3, #:lower16:IO004_Handle14
 268 0274 C0F20003 		movt	r3, #:upper16:IO004_Handle14
 269 0278 5A68     		ldr	r2, [r3, #4]
 270 027a 40F20003 		movw	r3, #:lower16:IO004_Handle14
 271 027e C0F20003 		movt	r3, #:upper16:IO004_Handle14
 272 0282 5B68     		ldr	r3, [r3, #4]
 273 0284 1B6C     		ldr	r3, [r3, #64]
 274 0286 43F48063 		orr	r3, r3, #1024
 275 028a 1364     		str	r3, [r2, #64]
 187:../Dave/Generated/src/IO004/IO004.c ****                                           PORT2_PDR0_PD2_Msk);
 188:../Dave/Generated/src/IO004/IO004.c ****   IO004_Handle14.PortRegs->IOCR0 |= (0U << 19);   
 276              		.loc 1 188 0
 277 028c 40F20003 		movw	r3, #:lower16:IO004_Handle14
 278 0290 C0F20003 		movt	r3, #:upper16:IO004_Handle14
 279 0294 5A68     		ldr	r2, [r3, #4]
 280 0296 40F20003 		movw	r3, #:lower16:IO004_Handle14
 281 029a C0F20003 		movt	r3, #:upper16:IO004_Handle14
 282 029e 5B68     		ldr	r3, [r3, #4]
 283 02a0 1B69     		ldr	r3, [r3, #16]
 284 02a2 1361     		str	r3, [r2, #16]
 189:../Dave/Generated/src/IO004/IO004.c **** 
 190:../Dave/Generated/src/IO004/IO004.c ****   /* Configuration of 0 Port 12 based on User configuration */
 191:../Dave/Generated/src/IO004/IO004.c ****   IO004_Handle15.PortRegs->OMR = 0U<< 12;
 285              		.loc 1 191 0
 286 02a4 40F20003 		movw	r3, #:lower16:IO004_Handle15
 287 02a8 C0F20003 		movt	r3, #:upper16:IO004_Handle15
 288 02ac 5B68     		ldr	r3, [r3, #4]
 289 02ae 4FF00002 		mov	r2, #0
 290 02b2 5A60     		str	r2, [r3, #4]
 192:../Dave/Generated/src/IO004/IO004.c ****   
 193:../Dave/Generated/src/IO004/IO004.c ****   IO004_Handle15.PortRegs->PDR1  &= (uint32_t)(~(PORT0_PDR1_PD12_Msk));
 291              		.loc 1 193 0
 292 02b4 40F20003 		movw	r3, #:lower16:IO004_Handle15
 293 02b8 C0F20003 		movt	r3, #:upper16:IO004_Handle15
 294 02bc 5A68     		ldr	r2, [r3, #4]
 295 02be 40F20003 		movw	r3, #:lower16:IO004_Handle15
 296 02c2 C0F20003 		movt	r3, #:upper16:IO004_Handle15
 297 02c6 5B68     		ldr	r3, [r3, #4]
 298 02c8 5B6C     		ldr	r3, [r3, #68]
 299 02ca 23F4E023 		bic	r3, r3, #458752
 300 02ce 5364     		str	r3, [r2, #68]
 194:../Dave/Generated/src/IO004/IO004.c ****   IO004_Handle15.PortRegs->PDR1  |= (uint32_t)((4UL << PORT0_PDR1_PD12_Pos) & \
 301              		.loc 1 194 0
 302 02d0 40F20003 		movw	r3, #:lower16:IO004_Handle15
 303 02d4 C0F20003 		movt	r3, #:upper16:IO004_Handle15
 304 02d8 5A68     		ldr	r2, [r3, #4]
 305 02da 40F20003 		movw	r3, #:lower16:IO004_Handle15
 306 02de C0F20003 		movt	r3, #:upper16:IO004_Handle15
 307 02e2 5B68     		ldr	r3, [r3, #4]
 308 02e4 5B6C     		ldr	r3, [r3, #68]
 309 02e6 43F48023 		orr	r3, r3, #262144
 310 02ea 5364     		str	r3, [r2, #68]
 195:../Dave/Generated/src/IO004/IO004.c ****                                      PORT0_PDR1_PD12_Msk);
 196:../Dave/Generated/src/IO004/IO004.c ****   IO004_Handle15.PortRegs->IOCR12 |= (0U << 3);   
 311              		.loc 1 196 0
 312 02ec 40F20003 		movw	r3, #:lower16:IO004_Handle15
 313 02f0 C0F20003 		movt	r3, #:upper16:IO004_Handle15
 314 02f4 5A68     		ldr	r2, [r3, #4]
 315 02f6 40F20003 		movw	r3, #:lower16:IO004_Handle15
 316 02fa C0F20003 		movt	r3, #:upper16:IO004_Handle15
 317 02fe 5B68     		ldr	r3, [r3, #4]
 318 0300 DB69     		ldr	r3, [r3, #28]
 319 0302 D361     		str	r3, [r2, #28]
 197:../Dave/Generated/src/IO004/IO004.c **** 
 198:../Dave/Generated/src/IO004/IO004.c ****   /* Configuration of 1 Port 2 based on User configuration */
 199:../Dave/Generated/src/IO004/IO004.c ****   IO004_Handle2.PortRegs->OMR = 0U<< 2;
 320              		.loc 1 199 0
 321 0304 40F20003 		movw	r3, #:lower16:IO004_Handle2
 322 0308 C0F20003 		movt	r3, #:upper16:IO004_Handle2
 323 030c 5B68     		ldr	r3, [r3, #4]
 324 030e 4FF00002 		mov	r2, #0
 325 0312 5A60     		str	r2, [r3, #4]
 200:../Dave/Generated/src/IO004/IO004.c ****   
 201:../Dave/Generated/src/IO004/IO004.c ****   IO004_Handle2.PortRegs->PDR0   &= (uint32_t)(~(PORT1_PDR0_PD2_Msk));
 326              		.loc 1 201 0
 327 0314 40F20003 		movw	r3, #:lower16:IO004_Handle2
 328 0318 C0F20003 		movt	r3, #:upper16:IO004_Handle2
 329 031c 5A68     		ldr	r2, [r3, #4]
 330 031e 40F20003 		movw	r3, #:lower16:IO004_Handle2
 331 0322 C0F20003 		movt	r3, #:upper16:IO004_Handle2
 332 0326 5B68     		ldr	r3, [r3, #4]
 333 0328 1B6C     		ldr	r3, [r3, #64]
 334 032a 23F4E063 		bic	r3, r3, #1792
 335 032e 1364     		str	r3, [r2, #64]
 202:../Dave/Generated/src/IO004/IO004.c ****   IO004_Handle2.PortRegs->PDR0   |= (uint32_t)((4UL << PORT1_PDR0_PD2_Pos) & \
 336              		.loc 1 202 0
 337 0330 40F20003 		movw	r3, #:lower16:IO004_Handle2
 338 0334 C0F20003 		movt	r3, #:upper16:IO004_Handle2
 339 0338 5A68     		ldr	r2, [r3, #4]
 340 033a 40F20003 		movw	r3, #:lower16:IO004_Handle2
 341 033e C0F20003 		movt	r3, #:upper16:IO004_Handle2
 342 0342 5B68     		ldr	r3, [r3, #4]
 343 0344 1B6C     		ldr	r3, [r3, #64]
 344 0346 43F48063 		orr	r3, r3, #1024
 345 034a 1364     		str	r3, [r2, #64]
 203:../Dave/Generated/src/IO004/IO004.c ****                                           PORT1_PDR0_PD2_Msk);
 204:../Dave/Generated/src/IO004/IO004.c ****   IO004_Handle2.PortRegs->IOCR0 |= (0U << 19);   
 346              		.loc 1 204 0
 347 034c 40F20003 		movw	r3, #:lower16:IO004_Handle2
 348 0350 C0F20003 		movt	r3, #:upper16:IO004_Handle2
 349 0354 5A68     		ldr	r2, [r3, #4]
 350 0356 40F20003 		movw	r3, #:lower16:IO004_Handle2
 351 035a C0F20003 		movt	r3, #:upper16:IO004_Handle2
 352 035e 5B68     		ldr	r3, [r3, #4]
 353 0360 1B69     		ldr	r3, [r3, #16]
 354 0362 1361     		str	r3, [r2, #16]
 205:../Dave/Generated/src/IO004/IO004.c **** 
 206:../Dave/Generated/src/IO004/IO004.c ****   /* Configuration of 1 Port 9 based on User configuration */
 207:../Dave/Generated/src/IO004/IO004.c ****   IO004_Handle3.PortRegs->OMR = 0U<< 9;
 355              		.loc 1 207 0
 356 0364 40F20003 		movw	r3, #:lower16:IO004_Handle3
 357 0368 C0F20003 		movt	r3, #:upper16:IO004_Handle3
 358 036c 5B68     		ldr	r3, [r3, #4]
 359 036e 4FF00002 		mov	r2, #0
 360 0372 5A60     		str	r2, [r3, #4]
 208:../Dave/Generated/src/IO004/IO004.c ****   
 209:../Dave/Generated/src/IO004/IO004.c ****   IO004_Handle3.PortRegs->PDR1  &= (uint32_t)(~(PORT1_PDR1_PD9_Msk));
 361              		.loc 1 209 0
 362 0374 40F20003 		movw	r3, #:lower16:IO004_Handle3
 363 0378 C0F20003 		movt	r3, #:upper16:IO004_Handle3
 364 037c 5A68     		ldr	r2, [r3, #4]
 365 037e 40F20003 		movw	r3, #:lower16:IO004_Handle3
 366 0382 C0F20003 		movt	r3, #:upper16:IO004_Handle3
 367 0386 5B68     		ldr	r3, [r3, #4]
 368 0388 5B6C     		ldr	r3, [r3, #68]
 369 038a 23F07003 		bic	r3, r3, #112
 370 038e 5364     		str	r3, [r2, #68]
 210:../Dave/Generated/src/IO004/IO004.c ****   IO004_Handle3.PortRegs->PDR1  |= (uint32_t)((4UL << PORT1_PDR1_PD9_Pos) & \
 371              		.loc 1 210 0
 372 0390 40F20003 		movw	r3, #:lower16:IO004_Handle3
 373 0394 C0F20003 		movt	r3, #:upper16:IO004_Handle3
 374 0398 5A68     		ldr	r2, [r3, #4]
 375 039a 40F20003 		movw	r3, #:lower16:IO004_Handle3
 376 039e C0F20003 		movt	r3, #:upper16:IO004_Handle3
 377 03a2 5B68     		ldr	r3, [r3, #4]
 378 03a4 5B6C     		ldr	r3, [r3, #68]
 379 03a6 43F04003 		orr	r3, r3, #64
 380 03aa 5364     		str	r3, [r2, #68]
 211:../Dave/Generated/src/IO004/IO004.c ****                                      PORT1_PDR1_PD9_Msk);
 212:../Dave/Generated/src/IO004/IO004.c ****   IO004_Handle3.PortRegs->IOCR8 |= (0U << 11);   
 381              		.loc 1 212 0
 382 03ac 40F20003 		movw	r3, #:lower16:IO004_Handle3
 383 03b0 C0F20003 		movt	r3, #:upper16:IO004_Handle3
 384 03b4 5A68     		ldr	r2, [r3, #4]
 385 03b6 40F20003 		movw	r3, #:lower16:IO004_Handle3
 386 03ba C0F20003 		movt	r3, #:upper16:IO004_Handle3
 387 03be 5B68     		ldr	r3, [r3, #4]
 388 03c0 9B69     		ldr	r3, [r3, #24]
 389 03c2 9361     		str	r3, [r2, #24]
 213:../Dave/Generated/src/IO004/IO004.c **** 
 214:../Dave/Generated/src/IO004/IO004.c ****   /* Configuration of 5 Port 7 based on User configuration */
 215:../Dave/Generated/src/IO004/IO004.c ****   IO004_Handle4.PortRegs->OMR = 0U<< 7;
 390              		.loc 1 215 0
 391 03c4 40F20003 		movw	r3, #:lower16:IO004_Handle4
 392 03c8 C0F20003 		movt	r3, #:upper16:IO004_Handle4
 393 03cc 5B68     		ldr	r3, [r3, #4]
 394 03ce 4FF00002 		mov	r2, #0
 395 03d2 5A60     		str	r2, [r3, #4]
 216:../Dave/Generated/src/IO004/IO004.c ****   
 217:../Dave/Generated/src/IO004/IO004.c ****   IO004_Handle4.PortRegs->PDR0   &= (uint32_t)(~(PORT5_PDR0_PD7_Msk));
 396              		.loc 1 217 0
 397 03d4 40F20003 		movw	r3, #:lower16:IO004_Handle4
 398 03d8 C0F20003 		movt	r3, #:upper16:IO004_Handle4
 399 03dc 5A68     		ldr	r2, [r3, #4]
 400 03de 40F20003 		movw	r3, #:lower16:IO004_Handle4
 401 03e2 C0F20003 		movt	r3, #:upper16:IO004_Handle4
 402 03e6 5B68     		ldr	r3, [r3, #4]
 403 03e8 1B6C     		ldr	r3, [r3, #64]
 404 03ea 23F0E043 		bic	r3, r3, #1879048192
 405 03ee 1364     		str	r3, [r2, #64]
 218:../Dave/Generated/src/IO004/IO004.c ****   IO004_Handle4.PortRegs->PDR0   |= (uint32_t)((4UL << PORT5_PDR0_PD7_Pos) & \
 406              		.loc 1 218 0
 407 03f0 40F20003 		movw	r3, #:lower16:IO004_Handle4
 408 03f4 C0F20003 		movt	r3, #:upper16:IO004_Handle4
 409 03f8 5A68     		ldr	r2, [r3, #4]
 410 03fa 40F20003 		movw	r3, #:lower16:IO004_Handle4
 411 03fe C0F20003 		movt	r3, #:upper16:IO004_Handle4
 412 0402 5B68     		ldr	r3, [r3, #4]
 413 0404 1B6C     		ldr	r3, [r3, #64]
 414 0406 43F08043 		orr	r3, r3, #1073741824
 415 040a 1364     		str	r3, [r2, #64]
 219:../Dave/Generated/src/IO004/IO004.c ****                                           PORT5_PDR0_PD7_Msk);
 220:../Dave/Generated/src/IO004/IO004.c ****   IO004_Handle4.PortRegs->IOCR4 |= (0U << 27);   
 416              		.loc 1 220 0
 417 040c 40F20003 		movw	r3, #:lower16:IO004_Handle4
 418 0410 C0F20003 		movt	r3, #:upper16:IO004_Handle4
 419 0414 5A68     		ldr	r2, [r3, #4]
 420 0416 40F20003 		movw	r3, #:lower16:IO004_Handle4
 421 041a C0F20003 		movt	r3, #:upper16:IO004_Handle4
 422 041e 5B68     		ldr	r3, [r3, #4]
 423 0420 5B69     		ldr	r3, [r3, #20]
 424 0422 5361     		str	r3, [r2, #20]
 221:../Dave/Generated/src/IO004/IO004.c **** 
 222:../Dave/Generated/src/IO004/IO004.c ****   /* Configuration of 3 Port 3 based on User configuration */
 223:../Dave/Generated/src/IO004/IO004.c ****   IO004_Handle6.PortRegs->OMR = 0U<< 3;
 425              		.loc 1 223 0
 426 0424 40F20003 		movw	r3, #:lower16:IO004_Handle6
 427 0428 C0F20003 		movt	r3, #:upper16:IO004_Handle6
 428 042c 5B68     		ldr	r3, [r3, #4]
 429 042e 4FF00002 		mov	r2, #0
 430 0432 5A60     		str	r2, [r3, #4]
 224:../Dave/Generated/src/IO004/IO004.c ****   
 225:../Dave/Generated/src/IO004/IO004.c ****   IO004_Handle6.PortRegs->PDR0   &= (uint32_t)(~(PORT3_PDR0_PD3_Msk));
 431              		.loc 1 225 0
 432 0434 40F20003 		movw	r3, #:lower16:IO004_Handle6
 433 0438 C0F20003 		movt	r3, #:upper16:IO004_Handle6
 434 043c 5A68     		ldr	r2, [r3, #4]
 435 043e 40F20003 		movw	r3, #:lower16:IO004_Handle6
 436 0442 C0F20003 		movt	r3, #:upper16:IO004_Handle6
 437 0446 5B68     		ldr	r3, [r3, #4]
 438 0448 1B6C     		ldr	r3, [r3, #64]
 439 044a 23F4E043 		bic	r3, r3, #28672
 440 044e 1364     		str	r3, [r2, #64]
 226:../Dave/Generated/src/IO004/IO004.c ****   IO004_Handle6.PortRegs->PDR0   |= (uint32_t)((4UL << PORT3_PDR0_PD3_Pos) & \
 441              		.loc 1 226 0
 442 0450 40F20003 		movw	r3, #:lower16:IO004_Handle6
 443 0454 C0F20003 		movt	r3, #:upper16:IO004_Handle6
 444 0458 5A68     		ldr	r2, [r3, #4]
 445 045a 40F20003 		movw	r3, #:lower16:IO004_Handle6
 446 045e C0F20003 		movt	r3, #:upper16:IO004_Handle6
 447 0462 5B68     		ldr	r3, [r3, #4]
 448 0464 1B6C     		ldr	r3, [r3, #64]
 449 0466 43F48043 		orr	r3, r3, #16384
 450 046a 1364     		str	r3, [r2, #64]
 227:../Dave/Generated/src/IO004/IO004.c ****                                           PORT3_PDR0_PD3_Msk);
 228:../Dave/Generated/src/IO004/IO004.c ****   IO004_Handle6.PortRegs->IOCR0 |= (0U << 27);   
 451              		.loc 1 228 0
 452 046c 40F20003 		movw	r3, #:lower16:IO004_Handle6
 453 0470 C0F20003 		movt	r3, #:upper16:IO004_Handle6
 454 0474 5A68     		ldr	r2, [r3, #4]
 455 0476 40F20003 		movw	r3, #:lower16:IO004_Handle6
 456 047a C0F20003 		movt	r3, #:upper16:IO004_Handle6
 457 047e 5B68     		ldr	r3, [r3, #4]
 458 0480 1B69     		ldr	r3, [r3, #16]
 459 0482 1361     		str	r3, [r2, #16]
 229:../Dave/Generated/src/IO004/IO004.c **** 
 230:../Dave/Generated/src/IO004/IO004.c ****   /* Configuration of 1 Port 8 based on User configuration */
 231:../Dave/Generated/src/IO004/IO004.c ****   IO004_Handle7.PortRegs->OMR = 1U<< 8;
 460              		.loc 1 231 0
 461 0484 40F20003 		movw	r3, #:lower16:IO004_Handle7
 462 0488 C0F20003 		movt	r3, #:upper16:IO004_Handle7
 463 048c 5B68     		ldr	r3, [r3, #4]
 464 048e 4FF48072 		mov	r2, #256
 465 0492 5A60     		str	r2, [r3, #4]
 232:../Dave/Generated/src/IO004/IO004.c ****   
 233:../Dave/Generated/src/IO004/IO004.c ****   IO004_Handle7.PortRegs->PDR1  &= (uint32_t)(~(PORT1_PDR1_PD8_Msk));
 466              		.loc 1 233 0
 467 0494 40F20003 		movw	r3, #:lower16:IO004_Handle7
 468 0498 C0F20003 		movt	r3, #:upper16:IO004_Handle7
 469 049c 5A68     		ldr	r2, [r3, #4]
 470 049e 40F20003 		movw	r3, #:lower16:IO004_Handle7
 471 04a2 C0F20003 		movt	r3, #:upper16:IO004_Handle7
 472 04a6 5B68     		ldr	r3, [r3, #4]
 473 04a8 5B6C     		ldr	r3, [r3, #68]
 474 04aa 23F00703 		bic	r3, r3, #7
 475 04ae 5364     		str	r3, [r2, #68]
 234:../Dave/Generated/src/IO004/IO004.c ****   IO004_Handle7.PortRegs->PDR1  |= (uint32_t)((4UL << PORT1_PDR1_PD8_Pos) & \
 476              		.loc 1 234 0
 477 04b0 40F20003 		movw	r3, #:lower16:IO004_Handle7
 478 04b4 C0F20003 		movt	r3, #:upper16:IO004_Handle7
 479 04b8 5A68     		ldr	r2, [r3, #4]
 480 04ba 40F20003 		movw	r3, #:lower16:IO004_Handle7
 481 04be C0F20003 		movt	r3, #:upper16:IO004_Handle7
 482 04c2 5B68     		ldr	r3, [r3, #4]
 483 04c4 5B6C     		ldr	r3, [r3, #68]
 484 04c6 43F00403 		orr	r3, r3, #4
 485 04ca 5364     		str	r3, [r2, #68]
 235:../Dave/Generated/src/IO004/IO004.c ****                                      PORT1_PDR1_PD8_Msk);
 236:../Dave/Generated/src/IO004/IO004.c ****   IO004_Handle7.PortRegs->IOCR8 |= (0U << 3);   
 486              		.loc 1 236 0
 487 04cc 40F20003 		movw	r3, #:lower16:IO004_Handle7
 488 04d0 C0F20003 		movt	r3, #:upper16:IO004_Handle7
 489 04d4 5A68     		ldr	r2, [r3, #4]
 490 04d6 40F20003 		movw	r3, #:lower16:IO004_Handle7
 491 04da C0F20003 		movt	r3, #:upper16:IO004_Handle7
 492 04de 5B68     		ldr	r3, [r3, #4]
 493 04e0 9B69     		ldr	r3, [r3, #24]
 494 04e2 9361     		str	r3, [r2, #24]
 237:../Dave/Generated/src/IO004/IO004.c **** 
 238:../Dave/Generated/src/IO004/IO004.c ****   /* Configuration of 0 Port 7 based on User configuration */
 239:../Dave/Generated/src/IO004/IO004.c ****   IO004_Handle8.PortRegs->OMR = 0U<< 7;
 495              		.loc 1 239 0
 496 04e4 40F20003 		movw	r3, #:lower16:IO004_Handle8
 497 04e8 C0F20003 		movt	r3, #:upper16:IO004_Handle8
 498 04ec 5B68     		ldr	r3, [r3, #4]
 499 04ee 4FF00002 		mov	r2, #0
 500 04f2 5A60     		str	r2, [r3, #4]
 240:../Dave/Generated/src/IO004/IO004.c ****   
 241:../Dave/Generated/src/IO004/IO004.c ****   IO004_Handle8.PortRegs->PDR0   &= (uint32_t)(~(PORT0_PDR0_PD7_Msk));
 501              		.loc 1 241 0
 502 04f4 40F20003 		movw	r3, #:lower16:IO004_Handle8
 503 04f8 C0F20003 		movt	r3, #:upper16:IO004_Handle8
 504 04fc 5A68     		ldr	r2, [r3, #4]
 505 04fe 40F20003 		movw	r3, #:lower16:IO004_Handle8
 506 0502 C0F20003 		movt	r3, #:upper16:IO004_Handle8
 507 0506 5B68     		ldr	r3, [r3, #4]
 508 0508 1B6C     		ldr	r3, [r3, #64]
 509 050a 23F0E043 		bic	r3, r3, #1879048192
 510 050e 1364     		str	r3, [r2, #64]
 242:../Dave/Generated/src/IO004/IO004.c ****   IO004_Handle8.PortRegs->PDR0   |= (uint32_t)((0UL << PORT0_PDR0_PD7_Pos) & \
 511              		.loc 1 242 0
 512 0510 40F20003 		movw	r3, #:lower16:IO004_Handle8
 513 0514 C0F20003 		movt	r3, #:upper16:IO004_Handle8
 514 0518 5A68     		ldr	r2, [r3, #4]
 515 051a 40F20003 		movw	r3, #:lower16:IO004_Handle8
 516 051e C0F20003 		movt	r3, #:upper16:IO004_Handle8
 517 0522 5B68     		ldr	r3, [r3, #4]
 518 0524 1B6C     		ldr	r3, [r3, #64]
 519 0526 1364     		str	r3, [r2, #64]
 243:../Dave/Generated/src/IO004/IO004.c ****                                           PORT0_PDR0_PD7_Msk);
 244:../Dave/Generated/src/IO004/IO004.c ****   IO004_Handle8.PortRegs->IOCR4 |= (0U << 27);   
 520              		.loc 1 244 0
 521 0528 40F20003 		movw	r3, #:lower16:IO004_Handle8
 522 052c C0F20003 		movt	r3, #:upper16:IO004_Handle8
 523 0530 5A68     		ldr	r2, [r3, #4]
 524 0532 40F20003 		movw	r3, #:lower16:IO004_Handle8
 525 0536 C0F20003 		movt	r3, #:upper16:IO004_Handle8
 526 053a 5B68     		ldr	r3, [r3, #4]
 527 053c 5B69     		ldr	r3, [r3, #20]
 528 053e 5361     		str	r3, [r2, #20]
 245:../Dave/Generated/src/IO004/IO004.c **** 
 246:../Dave/Generated/src/IO004/IO004.c ****   /* Configuration of 5 Port 6 based on User configuration */
 247:../Dave/Generated/src/IO004/IO004.c ****   IO004_Handle9.PortRegs->OMR = 0U<< 6;
 529              		.loc 1 247 0
 530 0540 40F20003 		movw	r3, #:lower16:IO004_Handle9
 531 0544 C0F20003 		movt	r3, #:upper16:IO004_Handle9
 532 0548 5B68     		ldr	r3, [r3, #4]
 533 054a 4FF00002 		mov	r2, #0
 534 054e 5A60     		str	r2, [r3, #4]
 248:../Dave/Generated/src/IO004/IO004.c ****   
 249:../Dave/Generated/src/IO004/IO004.c ****   IO004_Handle9.PortRegs->PDR0   &= (uint32_t)(~(PORT5_PDR0_PD6_Msk));
 535              		.loc 1 249 0
 536 0550 40F20003 		movw	r3, #:lower16:IO004_Handle9
 537 0554 C0F20003 		movt	r3, #:upper16:IO004_Handle9
 538 0558 5A68     		ldr	r2, [r3, #4]
 539 055a 40F20003 		movw	r3, #:lower16:IO004_Handle9
 540 055e C0F20003 		movt	r3, #:upper16:IO004_Handle9
 541 0562 5B68     		ldr	r3, [r3, #4]
 542 0564 1B6C     		ldr	r3, [r3, #64]
 543 0566 23F0E063 		bic	r3, r3, #117440512
 544 056a 1364     		str	r3, [r2, #64]
 250:../Dave/Generated/src/IO004/IO004.c ****   IO004_Handle9.PortRegs->PDR0   |= (uint32_t)((4UL << PORT5_PDR0_PD6_Pos) & \
 545              		.loc 1 250 0
 546 056c 40F20003 		movw	r3, #:lower16:IO004_Handle9
 547 0570 C0F20003 		movt	r3, #:upper16:IO004_Handle9
 548 0574 5A68     		ldr	r2, [r3, #4]
 549 0576 40F20003 		movw	r3, #:lower16:IO004_Handle9
 550 057a C0F20003 		movt	r3, #:upper16:IO004_Handle9
 551 057e 5B68     		ldr	r3, [r3, #4]
 552 0580 1B6C     		ldr	r3, [r3, #64]
 553 0582 43F08063 		orr	r3, r3, #67108864
 554 0586 1364     		str	r3, [r2, #64]
 251:../Dave/Generated/src/IO004/IO004.c ****                                           PORT5_PDR0_PD6_Msk);
 252:../Dave/Generated/src/IO004/IO004.c ****   IO004_Handle9.PortRegs->IOCR4 |= (0U << 19);
 555              		.loc 1 252 0
 556 0588 40F20003 		movw	r3, #:lower16:IO004_Handle9
 557 058c C0F20003 		movt	r3, #:upper16:IO004_Handle9
 558 0590 5A68     		ldr	r2, [r3, #4]
 559 0592 40F20003 		movw	r3, #:lower16:IO004_Handle9
 560 0596 C0F20003 		movt	r3, #:upper16:IO004_Handle9
 561 059a 5B68     		ldr	r3, [r3, #4]
 562 059c 5B69     		ldr	r3, [r3, #20]
 563 059e 5361     		str	r3, [r2, #20]
 253:../Dave/Generated/src/IO004/IO004.c **** }
 564              		.loc 1 253 0
 565 05a0 BD46     		mov	sp, r7
 566 05a2 80BC     		pop	{r7}
 567 05a4 7047     		bx	lr
 568              		.cfi_endproc
 569              	.LFE117:
 571 05a6 00BF     		.section	.text.IO004_DisableOutputDriver,"ax",%progbits
 572              		.align	2
 573              		.global	IO004_DisableOutputDriver
 574              		.thumb
 575              		.thumb_func
 577              	IO004_DisableOutputDriver:
 578              	.LFB118:
 254:../Dave/Generated/src/IO004/IO004.c **** 
 255:../Dave/Generated/src/IO004/IO004.c **** void IO004_DisableOutputDriver(const IO004_HandleType* Handle,IO004_InputModeType Mode)
 256:../Dave/Generated/src/IO004/IO004.c **** {
 579              		.loc 1 256 0
 580              		.cfi_startproc
 581              		@ args = 0, pretend = 0, frame = 16
 582              		@ frame_needed = 1, uses_anonymous_args = 0
 583              		@ link register save eliminated.
 584 0000 80B4     		push	{r7}
 585              	.LCFI2:
 586              		.cfi_def_cfa_offset 4
 587              		.cfi_offset 7, -4
 588 0002 85B0     		sub	sp, sp, #20
 589              	.LCFI3:
 590              		.cfi_def_cfa_offset 24
 591 0004 00AF     		add	r7, sp, #0
 592              	.LCFI4:
 593              		.cfi_def_cfa_register 7
 594 0006 7860     		str	r0, [r7, #4]
 595 0008 0B46     		mov	r3, r1
 596 000a FB70     		strb	r3, [r7, #3]
 257:../Dave/Generated/src/IO004/IO004.c ****   uint8_t Pin = Handle->PortPin;
 597              		.loc 1 257 0
 598 000c 7B68     		ldr	r3, [r7, #4]
 599 000e 5B78     		ldrb	r3, [r3, #1]
 600 0010 FB73     		strb	r3, [r7, #15]
 258:../Dave/Generated/src/IO004/IO004.c ****   /* <<<DD_IO004_API_2>>> */
 259:../Dave/Generated/src/IO004/IO004.c ****   if(Pin < 4U)
 601              		.loc 1 259 0
 602 0012 FB7B     		ldrb	r3, [r7, #15]	@ zero_extendqisi2
 603 0014 032B     		cmp	r3, #3
 604 0016 23D8     		bhi	.L3
 260:../Dave/Generated/src/IO004/IO004.c ****   {
 261:../Dave/Generated/src/IO004/IO004.c ****     Handle->PortRegs->IOCR0  =  (uint32_t)(Handle->PortRegs->IOCR0 & ~(0x0000001FUL << (3U+(Pin*8U)
 605              		.loc 1 261 0
 606 0018 7B68     		ldr	r3, [r7, #4]
 607 001a 5B68     		ldr	r3, [r3, #4]
 608 001c 7A68     		ldr	r2, [r7, #4]
 609 001e 5268     		ldr	r2, [r2, #4]
 610 0020 1169     		ldr	r1, [r2, #16]
 611 0022 FA7B     		ldrb	r2, [r7, #15]	@ zero_extendqisi2
 612 0024 4FEAC202 		lsl	r2, r2, #3
 613 0028 02F10302 		add	r2, r2, #3
 614 002c 4FF01F00 		mov	r0, #31
 615 0030 00FA02F2 		lsl	r2, r0, r2
 616 0034 6FEA0202 		mvn	r2, r2
 617 0038 0A40     		ands	r2, r2, r1
 618 003a 1A61     		str	r2, [r3, #16]
 262:../Dave/Generated/src/IO004/IO004.c ****     Handle->PortRegs->IOCR0 |= (uint32_t)(((uint32_t)Mode & 0x1FUL) << (3U+(Pin*8U)));
 619              		.loc 1 262 0
 620 003c 7B68     		ldr	r3, [r7, #4]
 621 003e 5B68     		ldr	r3, [r3, #4]
 622 0040 7A68     		ldr	r2, [r7, #4]
 623 0042 5268     		ldr	r2, [r2, #4]
 624 0044 1169     		ldr	r1, [r2, #16]
 625 0046 FA78     		ldrb	r2, [r7, #3]	@ zero_extendqisi2
 626 0048 02F01F00 		and	r0, r2, #31
 627 004c FA7B     		ldrb	r2, [r7, #15]	@ zero_extendqisi2
 628 004e 4FEAC202 		lsl	r2, r2, #3
 629 0052 02F10302 		add	r2, r2, #3
 630 0056 00FA02F2 		lsl	r2, r0, r2
 631 005a 0A43     		orrs	r2, r2, r1
 632 005c 1A61     		str	r2, [r3, #16]
 633 005e 88E0     		b	.L2
 634              	.L3:
 263:../Dave/Generated/src/IO004/IO004.c ****   } else if ((Pin >= 4U) && (Pin <= 7U))
 635              		.loc 1 263 0
 636 0060 FB7B     		ldrb	r3, [r7, #15]	@ zero_extendqisi2
 637 0062 032B     		cmp	r3, #3
 638 0064 2AD9     		bls	.L5
 639              		.loc 1 263 0 is_stmt 0 discriminator 1
 640 0066 FB7B     		ldrb	r3, [r7, #15]	@ zero_extendqisi2
 641 0068 072B     		cmp	r3, #7
 642 006a 27D8     		bhi	.L5
 264:../Dave/Generated/src/IO004/IO004.c ****   {
 265:../Dave/Generated/src/IO004/IO004.c ****     Pin = Pin - 4U;
 643              		.loc 1 265 0 is_stmt 1
 644 006c FB7B     		ldrb	r3, [r7, #15]
 645 006e A3F10403 		sub	r3, r3, #4
 646 0072 FB73     		strb	r3, [r7, #15]
 266:../Dave/Generated/src/IO004/IO004.c ****     Handle->PortRegs->IOCR4  =  (uint32_t)(Handle->PortRegs->IOCR4 & ~(0x0000001FUL << (3U+(Pin*8U)
 647              		.loc 1 266 0
 648 0074 7B68     		ldr	r3, [r7, #4]
 649 0076 5B68     		ldr	r3, [r3, #4]
 650 0078 7A68     		ldr	r2, [r7, #4]
 651 007a 5268     		ldr	r2, [r2, #4]
 652 007c 5169     		ldr	r1, [r2, #20]
 653 007e FA7B     		ldrb	r2, [r7, #15]	@ zero_extendqisi2
 654 0080 4FEAC202 		lsl	r2, r2, #3
 655 0084 02F10302 		add	r2, r2, #3
 656 0088 4FF01F00 		mov	r0, #31
 657 008c 00FA02F2 		lsl	r2, r0, r2
 658 0090 6FEA0202 		mvn	r2, r2
 659 0094 0A40     		ands	r2, r2, r1
 660 0096 5A61     		str	r2, [r3, #20]
 267:../Dave/Generated/src/IO004/IO004.c ****     Handle->PortRegs->IOCR4 |=  (uint32_t)(((uint32_t)Mode & 0x1FUL) << (3U+(Pin*8U)));
 661              		.loc 1 267 0
 662 0098 7B68     		ldr	r3, [r7, #4]
 663 009a 5B68     		ldr	r3, [r3, #4]
 664 009c 7A68     		ldr	r2, [r7, #4]
 665 009e 5268     		ldr	r2, [r2, #4]
 666 00a0 5169     		ldr	r1, [r2, #20]
 667 00a2 FA78     		ldrb	r2, [r7, #3]	@ zero_extendqisi2
 668 00a4 02F01F00 		and	r0, r2, #31
 669 00a8 FA7B     		ldrb	r2, [r7, #15]	@ zero_extendqisi2
 670 00aa 4FEAC202 		lsl	r2, r2, #3
 671 00ae 02F10302 		add	r2, r2, #3
 672 00b2 00FA02F2 		lsl	r2, r0, r2
 673 00b6 0A43     		orrs	r2, r2, r1
 674 00b8 5A61     		str	r2, [r3, #20]
 675 00ba 5AE0     		b	.L2
 676              	.L5:
 268:../Dave/Generated/src/IO004/IO004.c ****   } else if ((Pin >= 8U) && (Pin <= 11U))
 677              		.loc 1 268 0
 678 00bc FB7B     		ldrb	r3, [r7, #15]	@ zero_extendqisi2
 679 00be 072B     		cmp	r3, #7
 680 00c0 2AD9     		bls	.L6
 681              		.loc 1 268 0 is_stmt 0 discriminator 1
 682 00c2 FB7B     		ldrb	r3, [r7, #15]	@ zero_extendqisi2
 683 00c4 0B2B     		cmp	r3, #11
 684 00c6 27D8     		bhi	.L6
 269:../Dave/Generated/src/IO004/IO004.c ****   {
 270:../Dave/Generated/src/IO004/IO004.c ****     Pin = Pin - 8U;
 685              		.loc 1 270 0 is_stmt 1
 686 00c8 FB7B     		ldrb	r3, [r7, #15]
 687 00ca A3F10803 		sub	r3, r3, #8
 688 00ce FB73     		strb	r3, [r7, #15]
 271:../Dave/Generated/src/IO004/IO004.c ****     Handle->PortRegs->IOCR8  =  (uint32_t)(Handle->PortRegs->IOCR8 & ~(0x0000001FUL << (3U+(Pin*8U)
 689              		.loc 1 271 0
 690 00d0 7B68     		ldr	r3, [r7, #4]
 691 00d2 5B68     		ldr	r3, [r3, #4]
 692 00d4 7A68     		ldr	r2, [r7, #4]
 693 00d6 5268     		ldr	r2, [r2, #4]
 694 00d8 9169     		ldr	r1, [r2, #24]
 695 00da FA7B     		ldrb	r2, [r7, #15]	@ zero_extendqisi2
 696 00dc 4FEAC202 		lsl	r2, r2, #3
 697 00e0 02F10302 		add	r2, r2, #3
 698 00e4 4FF01F00 		mov	r0, #31
 699 00e8 00FA02F2 		lsl	r2, r0, r2
 700 00ec 6FEA0202 		mvn	r2, r2
 701 00f0 0A40     		ands	r2, r2, r1
 702 00f2 9A61     		str	r2, [r3, #24]
 272:../Dave/Generated/src/IO004/IO004.c ****     Handle->PortRegs->IOCR8 |=  (uint32_t)(((uint32_t)Mode & 0x1FUL) << (3U+(Pin*8U)));
 703              		.loc 1 272 0
 704 00f4 7B68     		ldr	r3, [r7, #4]
 705 00f6 5B68     		ldr	r3, [r3, #4]
 706 00f8 7A68     		ldr	r2, [r7, #4]
 707 00fa 5268     		ldr	r2, [r2, #4]
 708 00fc 9169     		ldr	r1, [r2, #24]
 709 00fe FA78     		ldrb	r2, [r7, #3]	@ zero_extendqisi2
 710 0100 02F01F00 		and	r0, r2, #31
 711 0104 FA7B     		ldrb	r2, [r7, #15]	@ zero_extendqisi2
 712 0106 4FEAC202 		lsl	r2, r2, #3
 713 010a 02F10302 		add	r2, r2, #3
 714 010e 00FA02F2 		lsl	r2, r0, r2
 715 0112 0A43     		orrs	r2, r2, r1
 716 0114 9A61     		str	r2, [r3, #24]
 717 0116 2CE0     		b	.L2
 718              	.L6:
 273:../Dave/Generated/src/IO004/IO004.c ****   } else if ((Pin >= 12U) && (Pin <= 15U))
 719              		.loc 1 273 0
 720 0118 FB7B     		ldrb	r3, [r7, #15]	@ zero_extendqisi2
 721 011a 0B2B     		cmp	r3, #11
 722 011c 29D9     		bls	.L2
 723              		.loc 1 273 0 is_stmt 0 discriminator 1
 724 011e FB7B     		ldrb	r3, [r7, #15]	@ zero_extendqisi2
 725 0120 0F2B     		cmp	r3, #15
 726 0122 26D8     		bhi	.L2
 274:../Dave/Generated/src/IO004/IO004.c ****   {
 275:../Dave/Generated/src/IO004/IO004.c ****     Pin = Pin - 12U;
 727              		.loc 1 275 0 is_stmt 1
 728 0124 FB7B     		ldrb	r3, [r7, #15]
 729 0126 A3F10C03 		sub	r3, r3, #12
 730 012a FB73     		strb	r3, [r7, #15]
 276:../Dave/Generated/src/IO004/IO004.c ****     Handle->PortRegs->IOCR12  =  (uint32_t)(Handle->PortRegs->IOCR12 & ~(0x0000001FUL << (3U+(Pin*8
 731              		.loc 1 276 0
 732 012c 7B68     		ldr	r3, [r7, #4]
 733 012e 5B68     		ldr	r3, [r3, #4]
 734 0130 7A68     		ldr	r2, [r7, #4]
 735 0132 5268     		ldr	r2, [r2, #4]
 736 0134 D169     		ldr	r1, [r2, #28]
 737 0136 FA7B     		ldrb	r2, [r7, #15]	@ zero_extendqisi2
 738 0138 4FEAC202 		lsl	r2, r2, #3
 739 013c 02F10302 		add	r2, r2, #3
 740 0140 4FF01F00 		mov	r0, #31
 741 0144 00FA02F2 		lsl	r2, r0, r2
 742 0148 6FEA0202 		mvn	r2, r2
 743 014c 0A40     		ands	r2, r2, r1
 744 014e DA61     		str	r2, [r3, #28]
 277:../Dave/Generated/src/IO004/IO004.c ****     Handle->PortRegs->IOCR12 |=  (uint32_t)(((uint32_t)Mode & 0x1FUL) << (3U+(Pin*8U)));
 745              		.loc 1 277 0
 746 0150 7B68     		ldr	r3, [r7, #4]
 747 0152 5B68     		ldr	r3, [r3, #4]
 748 0154 7A68     		ldr	r2, [r7, #4]
 749 0156 5268     		ldr	r2, [r2, #4]
 750 0158 D169     		ldr	r1, [r2, #28]
 751 015a FA78     		ldrb	r2, [r7, #3]	@ zero_extendqisi2
 752 015c 02F01F00 		and	r0, r2, #31
 753 0160 FA7B     		ldrb	r2, [r7, #15]	@ zero_extendqisi2
 754 0162 4FEAC202 		lsl	r2, r2, #3
 755 0166 02F10302 		add	r2, r2, #3
 756 016a 00FA02F2 		lsl	r2, r0, r2
 757 016e 0A43     		orrs	r2, r2, r1
 758 0170 DA61     		str	r2, [r3, #28]
 759              	.L2:
 278:../Dave/Generated/src/IO004/IO004.c ****   }
 279:../Dave/Generated/src/IO004/IO004.c ****   else
 280:../Dave/Generated/src/IO004/IO004.c ****   {
 281:../Dave/Generated/src/IO004/IO004.c **** 	  /*Not supposed to be here */
 282:../Dave/Generated/src/IO004/IO004.c ****   }
 283:../Dave/Generated/src/IO004/IO004.c **** 
 284:../Dave/Generated/src/IO004/IO004.c **** }
 760              		.loc 1 284 0
 761 0172 07F11407 		add	r7, r7, #20
 762 0176 BD46     		mov	sp, r7
 763 0178 80BC     		pop	{r7}
 764 017a 7047     		bx	lr
 765              		.cfi_endproc
 766              	.LFE118:
 768              		.section	.text.IO004_EnableOutputDriver,"ax",%progbits
 769              		.align	2
 770              		.global	IO004_EnableOutputDriver
 771              		.thumb
 772              		.thumb_func
 774              	IO004_EnableOutputDriver:
 775              	.LFB119:
 285:../Dave/Generated/src/IO004/IO004.c **** 
 286:../Dave/Generated/src/IO004/IO004.c **** void IO004_EnableOutputDriver(const IO004_HandleType* Handle,IO004_OutputModeType Mode)
 287:../Dave/Generated/src/IO004/IO004.c **** {
 776              		.loc 1 287 0
 777              		.cfi_startproc
 778              		@ args = 0, pretend = 0, frame = 16
 779              		@ frame_needed = 1, uses_anonymous_args = 0
 780              		@ link register save eliminated.
 781 0000 80B4     		push	{r7}
 782              	.LCFI5:
 783              		.cfi_def_cfa_offset 4
 784              		.cfi_offset 7, -4
 785 0002 85B0     		sub	sp, sp, #20
 786              	.LCFI6:
 787              		.cfi_def_cfa_offset 24
 788 0004 00AF     		add	r7, sp, #0
 789              	.LCFI7:
 790              		.cfi_def_cfa_register 7
 791 0006 7860     		str	r0, [r7, #4]
 792 0008 0B46     		mov	r3, r1
 793 000a FB70     		strb	r3, [r7, #3]
 288:../Dave/Generated/src/IO004/IO004.c **** 
 289:../Dave/Generated/src/IO004/IO004.c ****   uint8_t Pin = Handle->PortPin;
 794              		.loc 1 289 0
 795 000c 7B68     		ldr	r3, [r7, #4]
 796 000e 5B78     		ldrb	r3, [r3, #1]
 797 0010 FB73     		strb	r3, [r7, #15]
 290:../Dave/Generated/src/IO004/IO004.c ****   /* <<<DD_IO004_API_2>>> */
 291:../Dave/Generated/src/IO004/IO004.c ****   if(Pin < 4U)
 798              		.loc 1 291 0
 799 0012 FB7B     		ldrb	r3, [r7, #15]	@ zero_extendqisi2
 800 0014 032B     		cmp	r3, #3
 801 0016 23D8     		bhi	.L8
 292:../Dave/Generated/src/IO004/IO004.c ****   {
 293:../Dave/Generated/src/IO004/IO004.c ****     Handle->PortRegs->IOCR0  =  (uint32_t)(Handle->PortRegs->IOCR0 & ~(0x0000001FUL << (3U+(Pin*8U)
 802              		.loc 1 293 0
 803 0018 7B68     		ldr	r3, [r7, #4]
 804 001a 5B68     		ldr	r3, [r3, #4]
 805 001c 7A68     		ldr	r2, [r7, #4]
 806 001e 5268     		ldr	r2, [r2, #4]
 807 0020 1169     		ldr	r1, [r2, #16]
 808 0022 FA7B     		ldrb	r2, [r7, #15]	@ zero_extendqisi2
 809 0024 4FEAC202 		lsl	r2, r2, #3
 810 0028 02F10302 		add	r2, r2, #3
 811 002c 4FF01F00 		mov	r0, #31
 812 0030 00FA02F2 		lsl	r2, r0, r2
 813 0034 6FEA0202 		mvn	r2, r2
 814 0038 0A40     		ands	r2, r2, r1
 815 003a 1A61     		str	r2, [r3, #16]
 294:../Dave/Generated/src/IO004/IO004.c ****     Handle->PortRegs->IOCR0 |=  (uint32_t)(((uint32_t)Mode & 0x1FUL) << (3U+(Pin*8U)));
 816              		.loc 1 294 0
 817 003c 7B68     		ldr	r3, [r7, #4]
 818 003e 5B68     		ldr	r3, [r3, #4]
 819 0040 7A68     		ldr	r2, [r7, #4]
 820 0042 5268     		ldr	r2, [r2, #4]
 821 0044 1169     		ldr	r1, [r2, #16]
 822 0046 FA78     		ldrb	r2, [r7, #3]	@ zero_extendqisi2
 823 0048 02F01F00 		and	r0, r2, #31
 824 004c FA7B     		ldrb	r2, [r7, #15]	@ zero_extendqisi2
 825 004e 4FEAC202 		lsl	r2, r2, #3
 826 0052 02F10302 		add	r2, r2, #3
 827 0056 00FA02F2 		lsl	r2, r0, r2
 828 005a 0A43     		orrs	r2, r2, r1
 829 005c 1A61     		str	r2, [r3, #16]
 830 005e 88E0     		b	.L7
 831              	.L8:
 295:../Dave/Generated/src/IO004/IO004.c ****   } else if ((Pin >= 4U) && (Pin <= 7U))
 832              		.loc 1 295 0
 833 0060 FB7B     		ldrb	r3, [r7, #15]	@ zero_extendqisi2
 834 0062 032B     		cmp	r3, #3
 835 0064 2AD9     		bls	.L10
 836              		.loc 1 295 0 is_stmt 0 discriminator 1
 837 0066 FB7B     		ldrb	r3, [r7, #15]	@ zero_extendqisi2
 838 0068 072B     		cmp	r3, #7
 839 006a 27D8     		bhi	.L10
 296:../Dave/Generated/src/IO004/IO004.c ****   {
 297:../Dave/Generated/src/IO004/IO004.c ****     Pin = Pin - 4U;
 840              		.loc 1 297 0 is_stmt 1
 841 006c FB7B     		ldrb	r3, [r7, #15]
 842 006e A3F10403 		sub	r3, r3, #4
 843 0072 FB73     		strb	r3, [r7, #15]
 298:../Dave/Generated/src/IO004/IO004.c ****     Handle->PortRegs->IOCR4  =  (uint32_t)(Handle->PortRegs->IOCR4 & ~(0x0000001FUL << (3U+(Pin*8U)
 844              		.loc 1 298 0
 845 0074 7B68     		ldr	r3, [r7, #4]
 846 0076 5B68     		ldr	r3, [r3, #4]
 847 0078 7A68     		ldr	r2, [r7, #4]
 848 007a 5268     		ldr	r2, [r2, #4]
 849 007c 5169     		ldr	r1, [r2, #20]
 850 007e FA7B     		ldrb	r2, [r7, #15]	@ zero_extendqisi2
 851 0080 4FEAC202 		lsl	r2, r2, #3
 852 0084 02F10302 		add	r2, r2, #3
 853 0088 4FF01F00 		mov	r0, #31
 854 008c 00FA02F2 		lsl	r2, r0, r2
 855 0090 6FEA0202 		mvn	r2, r2
 856 0094 0A40     		ands	r2, r2, r1
 857 0096 5A61     		str	r2, [r3, #20]
 299:../Dave/Generated/src/IO004/IO004.c ****     Handle->PortRegs->IOCR4 |=  (uint32_t)(((uint32_t)Mode & 0x1FUL) << (3U+(Pin*8U)));
 858              		.loc 1 299 0
 859 0098 7B68     		ldr	r3, [r7, #4]
 860 009a 5B68     		ldr	r3, [r3, #4]
 861 009c 7A68     		ldr	r2, [r7, #4]
 862 009e 5268     		ldr	r2, [r2, #4]
 863 00a0 5169     		ldr	r1, [r2, #20]
 864 00a2 FA78     		ldrb	r2, [r7, #3]	@ zero_extendqisi2
 865 00a4 02F01F00 		and	r0, r2, #31
 866 00a8 FA7B     		ldrb	r2, [r7, #15]	@ zero_extendqisi2
 867 00aa 4FEAC202 		lsl	r2, r2, #3
 868 00ae 02F10302 		add	r2, r2, #3
 869 00b2 00FA02F2 		lsl	r2, r0, r2
 870 00b6 0A43     		orrs	r2, r2, r1
 871 00b8 5A61     		str	r2, [r3, #20]
 872 00ba 5AE0     		b	.L7
 873              	.L10:
 300:../Dave/Generated/src/IO004/IO004.c ****   } else if ((Pin >= 8U) && (Pin <= 11U))
 874              		.loc 1 300 0
 875 00bc FB7B     		ldrb	r3, [r7, #15]	@ zero_extendqisi2
 876 00be 072B     		cmp	r3, #7
 877 00c0 2AD9     		bls	.L11
 878              		.loc 1 300 0 is_stmt 0 discriminator 1
 879 00c2 FB7B     		ldrb	r3, [r7, #15]	@ zero_extendqisi2
 880 00c4 0B2B     		cmp	r3, #11
 881 00c6 27D8     		bhi	.L11
 301:../Dave/Generated/src/IO004/IO004.c ****   {
 302:../Dave/Generated/src/IO004/IO004.c ****     Pin = Pin - 8U;
 882              		.loc 1 302 0 is_stmt 1
 883 00c8 FB7B     		ldrb	r3, [r7, #15]
 884 00ca A3F10803 		sub	r3, r3, #8
 885 00ce FB73     		strb	r3, [r7, #15]
 303:../Dave/Generated/src/IO004/IO004.c ****     Handle->PortRegs->IOCR8  =  (uint32_t)(Handle->PortRegs->IOCR8 & ~(0x0000001FUL << (3U+(Pin*8U)
 886              		.loc 1 303 0
 887 00d0 7B68     		ldr	r3, [r7, #4]
 888 00d2 5B68     		ldr	r3, [r3, #4]
 889 00d4 7A68     		ldr	r2, [r7, #4]
 890 00d6 5268     		ldr	r2, [r2, #4]
 891 00d8 9169     		ldr	r1, [r2, #24]
 892 00da FA7B     		ldrb	r2, [r7, #15]	@ zero_extendqisi2
 893 00dc 4FEAC202 		lsl	r2, r2, #3
 894 00e0 02F10302 		add	r2, r2, #3
 895 00e4 4FF01F00 		mov	r0, #31
 896 00e8 00FA02F2 		lsl	r2, r0, r2
 897 00ec 6FEA0202 		mvn	r2, r2
 898 00f0 0A40     		ands	r2, r2, r1
 899 00f2 9A61     		str	r2, [r3, #24]
 304:../Dave/Generated/src/IO004/IO004.c ****     Handle->PortRegs->IOCR8 |=  (uint32_t)(((uint32_t)Mode & 0x1FUL) << (3U+(Pin*8U)));
 900              		.loc 1 304 0
 901 00f4 7B68     		ldr	r3, [r7, #4]
 902 00f6 5B68     		ldr	r3, [r3, #4]
 903 00f8 7A68     		ldr	r2, [r7, #4]
 904 00fa 5268     		ldr	r2, [r2, #4]
 905 00fc 9169     		ldr	r1, [r2, #24]
 906 00fe FA78     		ldrb	r2, [r7, #3]	@ zero_extendqisi2
 907 0100 02F01F00 		and	r0, r2, #31
 908 0104 FA7B     		ldrb	r2, [r7, #15]	@ zero_extendqisi2
 909 0106 4FEAC202 		lsl	r2, r2, #3
 910 010a 02F10302 		add	r2, r2, #3
 911 010e 00FA02F2 		lsl	r2, r0, r2
 912 0112 0A43     		orrs	r2, r2, r1
 913 0114 9A61     		str	r2, [r3, #24]
 914 0116 2CE0     		b	.L7
 915              	.L11:
 305:../Dave/Generated/src/IO004/IO004.c ****   } else if ((Pin >= 12U) && (Pin <= 15U))
 916              		.loc 1 305 0
 917 0118 FB7B     		ldrb	r3, [r7, #15]	@ zero_extendqisi2
 918 011a 0B2B     		cmp	r3, #11
 919 011c 29D9     		bls	.L7
 920              		.loc 1 305 0 is_stmt 0 discriminator 1
 921 011e FB7B     		ldrb	r3, [r7, #15]	@ zero_extendqisi2
 922 0120 0F2B     		cmp	r3, #15
 923 0122 26D8     		bhi	.L7
 306:../Dave/Generated/src/IO004/IO004.c ****   {
 307:../Dave/Generated/src/IO004/IO004.c ****     Pin = Pin - 12U;
 924              		.loc 1 307 0 is_stmt 1
 925 0124 FB7B     		ldrb	r3, [r7, #15]
 926 0126 A3F10C03 		sub	r3, r3, #12
 927 012a FB73     		strb	r3, [r7, #15]
 308:../Dave/Generated/src/IO004/IO004.c ****     Handle->PortRegs->IOCR12  =  (uint32_t)(Handle->PortRegs->IOCR12 & ~(0x0000001FUL << (3U+(Pin*8
 928              		.loc 1 308 0
 929 012c 7B68     		ldr	r3, [r7, #4]
 930 012e 5B68     		ldr	r3, [r3, #4]
 931 0130 7A68     		ldr	r2, [r7, #4]
 932 0132 5268     		ldr	r2, [r2, #4]
 933 0134 D169     		ldr	r1, [r2, #28]
 934 0136 FA7B     		ldrb	r2, [r7, #15]	@ zero_extendqisi2
 935 0138 4FEAC202 		lsl	r2, r2, #3
 936 013c 02F10302 		add	r2, r2, #3
 937 0140 4FF01F00 		mov	r0, #31
 938 0144 00FA02F2 		lsl	r2, r0, r2
 939 0148 6FEA0202 		mvn	r2, r2
 940 014c 0A40     		ands	r2, r2, r1
 941 014e DA61     		str	r2, [r3, #28]
 309:../Dave/Generated/src/IO004/IO004.c ****     Handle->PortRegs->IOCR12 |=  (uint32_t)(((uint32_t)Mode & 0x1FUL) << (3U+(Pin*8U)));
 942              		.loc 1 309 0
 943 0150 7B68     		ldr	r3, [r7, #4]
 944 0152 5B68     		ldr	r3, [r3, #4]
 945 0154 7A68     		ldr	r2, [r7, #4]
 946 0156 5268     		ldr	r2, [r2, #4]
 947 0158 D169     		ldr	r1, [r2, #28]
 948 015a FA78     		ldrb	r2, [r7, #3]	@ zero_extendqisi2
 949 015c 02F01F00 		and	r0, r2, #31
 950 0160 FA7B     		ldrb	r2, [r7, #15]	@ zero_extendqisi2
 951 0162 4FEAC202 		lsl	r2, r2, #3
 952 0166 02F10302 		add	r2, r2, #3
 953 016a 00FA02F2 		lsl	r2, r0, r2
 954 016e 0A43     		orrs	r2, r2, r1
 955 0170 DA61     		str	r2, [r3, #28]
 956              	.L7:
 310:../Dave/Generated/src/IO004/IO004.c ****   }
 311:../Dave/Generated/src/IO004/IO004.c ****   else
 312:../Dave/Generated/src/IO004/IO004.c ****   {
 313:../Dave/Generated/src/IO004/IO004.c **** 	  /*Not supposed to be here */
 314:../Dave/Generated/src/IO004/IO004.c ****   }
 315:../Dave/Generated/src/IO004/IO004.c **** }
 957              		.loc 1 315 0
 958 0172 07F11407 		add	r7, r7, #20
 959 0176 BD46     		mov	sp, r7
 960 0178 80BC     		pop	{r7}
 961 017a 7047     		bx	lr
 962              		.cfi_endproc
 963              	.LFE119:
 965              		.text
 966              	.Letext0:
 967              		.file 2 "c:\\dave-3.1.10\\arm-gcc\\bin\\../lib/gcc/arm-none-eabi/4.7.4/../../../../arm-none-eabi/i
 968              		.file 3 "C:\\Users\\jmass_000\\Documents\\Unicamp\\Phoenix\\Controle-e-Telemetria\\DAVE\\ControleI
 969              		.file 4 "C:\\DAVE-3.1.10\\eclipse\\/../CMSIS/Include/core_cm4.h"
 970              		.file 5 "C:\\Users\\jmass_000\\Documents\\Unicamp\\Phoenix\\Controle-e-Telemetria\\DAVE\\ControleI