
Joystick.elf:     file format elf32-littlearm

Sections:
Idx Name          Size      VMA       LMA       File off  Algn
  0 .text         00004328  08000000  0c000000  00008000  2**2
                  CONTENTS, ALLOC, LOAD, READONLY, CODE
  1 .ARM.exidx    00000010  08004328  0c004328  0000c328  2**2
                  CONTENTS, ALLOC, LOAD, READONLY, DATA
  2 .rodata       0000008c  08004338  0c004338  0000c338  2**2
                  CONTENTS, ALLOC, LOAD, READONLY, DATA
  3 Stack         00000800  10000000  10000000  00018000  2**0
                  ALLOC
  4 .data         0000000c  20000000  0c0043d0  00010000  2**2
                  CONTENTS, ALLOC, LOAD, DATA
  5 .bss          00000084  2000000c  0c0043dc  0001000c  2**2
                  ALLOC
  6 .debug_aranges 00000398  00000000  00000000  00010010  2**3
                  CONTENTS, READONLY, DEBUGGING
  7 .debug_info   000058a3  00000000  00000000  000103a8  2**0
                  CONTENTS, READONLY, DEBUGGING
  8 .debug_abbrev 00000fed  00000000  00000000  00015c4b  2**0
                  CONTENTS, READONLY, DEBUGGING
  9 .debug_line   00005c20  00000000  00000000  00016c38  2**0
                  CONTENTS, READONLY, DEBUGGING
 10 .debug_frame  000008a4  00000000  00000000  0001c858  2**2
                  CONTENTS, READONLY, DEBUGGING
 11 .debug_str    0009743b  00000000  00000000  0001d0fc  2**0
                  CONTENTS, READONLY, DEBUGGING
 12 .debug_loc    00000e96  00000000  00000000  000b4537  2**0
                  CONTENTS, READONLY, DEBUGGING
 13 .debug_ranges 000002b8  00000000  00000000  000b53d0  2**3
                  CONTENTS, READONLY, DEBUGGING
 14 .build_attributes 0000033a  00000000  00000000  000b5688  2**0
                  CONTENTS, READONLY
 15 .debug_macro  0001959c  00000000  00000000  000b59c2  2**0
                  CONTENTS, READONLY, DEBUGGING

Disassembly of section .text:

08000000 <__Xmc4500_interrupt_vector_cortex_m>:
 8000000:	00 08 00 10 01 02 00 08 cb 02 00 08 db 02 00 08     ................
 8000010:	eb 02 00 08 fb 02 00 08 0b 03 00 08 00 00 00 00     ................
	...
 800002c:	1b 03 00 08 2b 03 00 08 00 00 00 00 3b 03 00 08     ....+.......;...
 800003c:	4b 03 00 08 5b 03 00 08 6b 03 00 08 7b 03 00 08     K...[...k...{...
 800004c:	8b 03 00 08 9b 03 00 08 ab 03 00 08 bb 03 00 08     ................
 800005c:	cb 03 00 08 db 03 00 08 00 00 00 00 00 00 00 00     ................
 800006c:	00 00 00 00 eb 03 00 08 00 00 00 00 fb 03 00 08     ................
 800007c:	0b 04 00 08 1b 04 00 08 2b 04 00 08 3b 04 00 08     ........+...;...
 800008c:	4b 04 00 08 5b 04 00 08 6b 04 00 08 7b 04 00 08     K...[...k...{...
 800009c:	8b 04 00 08 9b 04 00 08 ab 04 00 08 bb 04 00 08     ................
 80000ac:	cb 04 00 08 db 04 00 08 eb 04 00 08 fb 04 00 08     ................
 80000bc:	0b 05 00 08 1b 05 00 08 2b 05 00 08 3b 05 00 08     ........+...;...
 80000cc:	4b 05 00 08 5b 05 00 08 6b 05 00 08 7b 05 00 08     K...[...k...{...
 80000dc:	8b 05 00 08 9b 05 00 08 ab 05 00 08 bb 05 00 08     ................
 80000ec:	cb 05 00 08 db 05 00 08 eb 05 00 08 fb 05 00 08     ................
 80000fc:	0b 06 00 08 1b 06 00 08 29 06 00 08 37 06 00 08     ........)...7...
 800010c:	45 06 00 08 53 06 00 08 61 06 00 08 6f 06 00 08     E...S...a...o...
 800011c:	7d 06 00 08 8b 06 00 08 99 06 00 08 a7 06 00 08     }...............
 800012c:	b5 06 00 08 c3 06 00 08 d1 06 00 08 df 06 00 08     ................
 800013c:	ed 06 00 08 fb 06 00 08 09 07 00 08 17 07 00 08     ................
 800014c:	25 07 00 08 33 07 00 08 41 07 00 08 4f 07 00 08     %...3...A...O...
 800015c:	5d 07 00 08 00 00 00 00 00 00 00 00 00 00 00 00     ]...............
 800016c:	00 00 00 00 6b 07 00 08 79 07 00 08 87 07 00 08     ....k...y.......
 800017c:	95 07 00 08 a3 07 00 08 b1 07 00 08 bf 07 00 08     ................
 800018c:	cd 07 00 08 db 07 00 08 e9 07 00 08 f7 07 00 08     ................
 800019c:	05 08 00 08 13 08 00 08 21 08 00 08 2f 08 00 08     ........!.../...
 80001ac:	3d 08 00 08 4b 08 00 08 59 08 00 08 67 08 00 08     =...K...Y...g...
 80001bc:	75 08 00 08 83 08 00 08 91 08 00 08 9f 08 00 08     u...............
 80001cc:	ad 08 00 08 bb 08 00 08 c9 08 00 08 d7 08 00 08     ................
 80001dc:	00 00 00 00 e5 08 00 08 f3 08 00 08 01 09 00 08     ................
 80001ec:	0f 09 00 08 1d 09 00 08 00 00 00 00 2b 09 00 08     ............+...
 80001fc:	00 00 00 00                                         ....

08000200 <__Xmc4500_reset_cortex_m>:
__Xmc4500_reset_cortex_m:
    .fnstart

    /* C routines are likely to be called. Setup the stack now */
    /* This is already setup by BootROM,hence this step is optional */ 
    LDR SP,=__Xmc4500_stack
 8000200:	f8df d00c 	ldr.w	sp, [pc, #12]	; 8000210 <__Xmc4500_reset_cortex_m+0x10>

    /* Clock tree, External memory setup etc may be done here */    
    LDR     R0, =SystemInit
 8000204:	4803      	ldr	r0, [pc, #12]	; (8000214 <__Xmc4500_reset_cortex_m+0x14>)
    BLX     R0
 8000206:	4780      	blx	r0

/* 
   SystemInit_DAVE3() is provided by DAVE3 code generation engine. It is  
   weakly defined here though for a potential override.
*/
    LDR     R0, =SystemInit_DAVE3     
 8000208:	4803      	ldr	r0, [pc, #12]	; (8000218 <__Xmc4500_reset_cortex_m+0x18>)
    BLX     R0
 800020a:	4780      	blx	r0

    B       __Xmc4500_Program_Loader 
 800020c:	f000 b817 	b.w	800023e <__Xmc4500_Program_Loader>
__Xmc4500_reset_cortex_m:
    .fnstart

    /* C routines are likely to be called. Setup the stack now */
    /* This is already setup by BootROM,hence this step is optional */ 
    LDR SP,=__Xmc4500_stack
 8000210:	10000800 	.word	0x10000800

    /* Clock tree, External memory setup etc may be done here */    
    LDR     R0, =SystemInit
 8000214:	08000af5 	.word	0x08000af5

/* 
   SystemInit_DAVE3() is provided by DAVE3 code generation engine. It is  
   weakly defined here though for a potential override.
*/
    LDR     R0, =SystemInit_DAVE3     
 8000218:	08003b45 	.word	0x08003b45

0800021c <__COPY_FLASH2RAM>:
   .section .Xmc4500.postreset,"x",%progbits
__COPY_FLASH2RAM:
   .fnstart:
   
   /* Is there anything to be copied? */
   CMP R2,#0
 800021c:	2a00      	cmp	r2, #0
   BEQ SKIPCOPY
 800021e:	f000 800d 	beq.w	800023c <SKIPCOPY>

08000222 <STARTCOPY>:
STARTCOPY:
   /* 
      R2 contains byte count. Change it to word count. It is ensured in the 
      linker script that the length is always word aligned.
   */
   LSR R2,R2,#2 /* Divide by 4 to obtain word count */
 8000222:	ea4f 0292 	mov.w	r2, r2, lsr #2

08000226 <COPYLOOP>:

   /* The proverbial loop from the schooldays */
COPYLOOP:
   LDR R3,[R0]
 8000226:	6803      	ldr	r3, [r0, #0]
   STR R3,[R1]
 8000228:	600b      	str	r3, [r1, #0]
   SUBS R2,#1
 800022a:	3a01      	subs	r2, #1
   BEQ SKIPCOPY
 800022c:	f000 8006 	beq.w	800023c <SKIPCOPY>
   ADD R0,#4
 8000230:	f100 0004 	add.w	r0, r0, #4
   ADD R1,#4
 8000234:	f101 0104 	add.w	r1, r1, #4
   B COPYLOOP
 8000238:	f7ff bff5 	b.w	8000226 <COPYLOOP>

0800023c <SKIPCOPY>:
   
SKIPCOPY:
   BX LR
 800023c:	4770      	bx	lr

0800023e <__Xmc4500_Program_Loader>:
   .fnstart
   /* Memories are accessible now*/
   
   /* DATA COPY */
   /* R0 = Start address, R1 = Destination address, R2 = Size */
   LDR R0, =eROData
 800023e:	4814      	ldr	r0, [pc, #80]	; (8000290 <SKIPCLEAR+0x1c>)
   LDR R1, =__Xmc4500_sData
 8000240:	4914      	ldr	r1, [pc, #80]	; (8000294 <SKIPCLEAR+0x20>)
   LDR R2, =__Xmc4500_Data_Size
 8000242:	4a15      	ldr	r2, [pc, #84]	; (8000298 <SKIPCLEAR+0x24>)
   BL __COPY_FLASH2RAM
 8000244:	f7ff ffea 	bl	800021c <__COPY_FLASH2RAM>

   /* RAM_CODE COPY */
   /* R0 = Start address, R1 = Destination address, R2 = Size */
   LDR R0, =__ram_code_load
 8000248:	4814      	ldr	r0, [pc, #80]	; (800029c <SKIPCLEAR+0x28>)
   LDR R1, =__ram_code_start
 800024a:	4915      	ldr	r1, [pc, #84]	; (80002a0 <SKIPCLEAR+0x2c>)
   LDR R2, =__ram_code_size
 800024c:	4a15      	ldr	r2, [pc, #84]	; (80002a4 <SKIPCLEAR+0x30>)
   BL __COPY_FLASH2RAM
 800024e:	f7ff ffe5 	bl	800021c <__COPY_FLASH2RAM>

   /* BSS CLEAR */
   LDR R0, =__Xmc4500_sBSS     /* Start of BSS */
 8000252:	4815      	ldr	r0, [pc, #84]	; (80002a8 <SKIPCLEAR+0x34>)
   LDR R1, =__Xmc4500_BSS_Size /* BSS size in bytes */
 8000254:	4915      	ldr	r1, [pc, #84]	; (80002ac <SKIPCLEAR+0x38>)

   /* Find out if there are items assigned to BSS */   
   CMP R1,#0 
 8000256:	2900      	cmp	r1, #0
   BEQ SKIPCLEAR
 8000258:	f000 800c 	beq.w	8000274 <SKIPCLEAR>

0800025c <STARTCLEAR>:

STARTCLEAR:
   LSR R1,R1,#2            /* BSS size in words */
 800025c:	ea4f 0191 	mov.w	r1, r1, lsr #2
   
   MOV R2,#0
 8000260:	f04f 0200 	mov.w	r2, #0

08000264 <CLEARLOOP>:
CLEARLOOP:
   STR R2,[R0]
 8000264:	6002      	str	r2, [r0, #0]
   SUBS R1,#1
 8000266:	3901      	subs	r1, #1
   BEQ SKIPCLEAR
 8000268:	f000 8004 	beq.w	8000274 <SKIPCLEAR>
   ADD R0,#4
 800026c:	f100 0004 	add.w	r0, r0, #4
   B CLEARLOOP
 8000270:	f7ff bff8 	b.w	8000264 <CLEARLOOP>

08000274 <SKIPCLEAR>:
    
SKIPCLEAR:
   /* Remap vector table */
   /* This is already setup by BootROM,hence this step is optional */ 
   LDR R0, =__Xmc4500_interrupt_vector_cortex_m 
 8000274:	480e      	ldr	r0, [pc, #56]	; (80002b0 <SKIPCLEAR+0x3c>)
   LDR R1, =SCB_VTOR
 8000276:	490f      	ldr	r1, [pc, #60]	; (80002b4 <SKIPCLEAR+0x40>)
   STR R0,[R1]
 8000278:	6008      	str	r0, [r1, #0]
   
   /* C++ : Call global constructors */
   LDR R0,=__libc_init_array
 800027a:	480f      	ldr	r0, [pc, #60]	; (80002b8 <SKIPCLEAR+0x44>)
   BLX R0
 800027c:	4780      	blx	r0

   /* Reset stack pointer before zipping off to user application, Optional */
   LDR SP,=__Xmc4500_stack 
 800027e:	f8df d03c 	ldr.w	sp, [pc, #60]	; 80002bc <SKIPCLEAR+0x48>
   MOV R0,#0
 8000282:	f04f 0000 	mov.w	r0, #0
   MOV R1,#0
 8000286:	f04f 0100 	mov.w	r1, #0
   LDR PC, =main
 800028a:	f8df f034 	ldr.w	pc, [pc, #52]	; 80002c0 <SKIPCLEAR+0x4c>
 800028e:	0000      	.short	0x0000
   .fnstart
   /* Memories are accessible now*/
   
   /* DATA COPY */
   /* R0 = Start address, R1 = Destination address, R2 = Size */
   LDR R0, =eROData
 8000290:	0c0043d0 	.word	0x0c0043d0
   LDR R1, =__Xmc4500_sData
 8000294:	20000000 	.word	0x20000000
   LDR R2, =__Xmc4500_Data_Size
 8000298:	0000000c 	.word	0x0000000c
   BL __COPY_FLASH2RAM

   /* RAM_CODE COPY */
   /* R0 = Start address, R1 = Destination address, R2 = Size */
   LDR R0, =__ram_code_load
 800029c:	0c0043dc 	.word	0x0c0043dc
   LDR R1, =__ram_code_start
 80002a0:	10000800 	.word	0x10000800
   LDR R2, =__ram_code_size
 80002a4:	00000000 	.word	0x00000000
   BL __COPY_FLASH2RAM

   /* BSS CLEAR */
   LDR R0, =__Xmc4500_sBSS     /* Start of BSS */
 80002a8:	2000000c 	.word	0x2000000c
   LDR R1, =__Xmc4500_BSS_Size /* BSS size in bytes */
 80002ac:	00000084 	.word	0x00000084
   B CLEARLOOP
    
SKIPCLEAR:
   /* Remap vector table */
   /* This is already setup by BootROM,hence this step is optional */ 
   LDR R0, =__Xmc4500_interrupt_vector_cortex_m 
 80002b0:	08000000 	.word	0x08000000
   LDR R1, =SCB_VTOR
 80002b4:	e000ed08 	.word	0xe000ed08
   STR R0,[R1]
   
   /* C++ : Call global constructors */
   LDR R0,=__libc_init_array
 80002b8:	08004295 	.word	0x08004295
   BLX R0

   /* Reset stack pointer before zipping off to user application, Optional */
   LDR SP,=__Xmc4500_stack 
 80002bc:	10000800 	.word	0x10000800
   MOV R0,#0
   MOV R1,#0
   LDR PC, =main
 80002c0:	080011a5 	.word	0x080011a5
*/
     .section ".XmcStartup"
     .weak SystemInit_DAVE3
     .type SystemInit_DAVE3, %function
SystemInit_DAVE3:
     NOP
 80002c4:	bf00      	nop
     BX LR
 80002c6:	4770      	bx	lr

080002c8 <NMI_Handler>:
/* Default exception Handlers - Users may override this default functionality by
   defining handlers of the same name in their C code */
    .thumb
    .text

     Insert_ExceptionHandler NMI_Handler
 80002c8:	e7fe      	b.n	80002c8 <NMI_Handler>

080002ca <NMI_Handler_Veneer>:
 80002ca:	f8df 0670 	ldr.w	r0, [pc, #1648]	; 800093c <GPDMA1_0_IRQHandler_Veneer+0x12>
 80002ce:	b500      	push	{lr}
 80002d0:	b081      	sub	sp, #4
 80002d2:	4780      	blx	r0
 80002d4:	b001      	add	sp, #4
 80002d6:	bd00      	pop	{pc}

080002d8 <HardFault_Handler>:
/* ======================================================================== */
     Insert_ExceptionHandler HardFault_Handler
 80002d8:	e7fe      	b.n	80002d8 <HardFault_Handler>

080002da <HardFault_Handler_Veneer>:
 80002da:	f8df 0664 	ldr.w	r0, [pc, #1636]	; 8000940 <GPDMA1_0_IRQHandler_Veneer+0x16>
 80002de:	b500      	push	{lr}
 80002e0:	b081      	sub	sp, #4
 80002e2:	4780      	blx	r0
 80002e4:	b001      	add	sp, #4
 80002e6:	bd00      	pop	{pc}

080002e8 <MemManage_Handler>:
/* ======================================================================== */
     Insert_ExceptionHandler MemManage_Handler
 80002e8:	e7fe      	b.n	80002e8 <MemManage_Handler>

080002ea <MemManage_Handler_Veneer>:
 80002ea:	f8df 0658 	ldr.w	r0, [pc, #1624]	; 8000944 <GPDMA1_0_IRQHandler_Veneer+0x1a>
 80002ee:	b500      	push	{lr}
 80002f0:	b081      	sub	sp, #4
 80002f2:	4780      	blx	r0
 80002f4:	b001      	add	sp, #4
 80002f6:	bd00      	pop	{pc}

080002f8 <BusFault_Handler>:
/* ======================================================================== */
     Insert_ExceptionHandler BusFault_Handler
 80002f8:	e7fe      	b.n	80002f8 <BusFault_Handler>

080002fa <BusFault_Handler_Veneer>:
 80002fa:	f8df 064c 	ldr.w	r0, [pc, #1612]	; 8000948 <GPDMA1_0_IRQHandler_Veneer+0x1e>
 80002fe:	b500      	push	{lr}
 8000300:	b081      	sub	sp, #4
 8000302:	4780      	blx	r0
 8000304:	b001      	add	sp, #4
 8000306:	bd00      	pop	{pc}

08000308 <UsageFault_Handler>:
/* ======================================================================== */
     Insert_ExceptionHandler UsageFault_Handler
 8000308:	e7fe      	b.n	8000308 <UsageFault_Handler>

0800030a <UsageFault_Handler_Veneer>:
 800030a:	f8df 0640 	ldr.w	r0, [pc, #1600]	; 800094c <GPDMA1_0_IRQHandler_Veneer+0x22>
 800030e:	b500      	push	{lr}
 8000310:	b081      	sub	sp, #4
 8000312:	4780      	blx	r0
 8000314:	b001      	add	sp, #4
 8000316:	bd00      	pop	{pc}

08000318 <SVC_Handler>:
/* ======================================================================== */
     Insert_ExceptionHandler SVC_Handler
 8000318:	e7fe      	b.n	8000318 <SVC_Handler>

0800031a <SVC_Handler_Veneer>:
 800031a:	f8df 0634 	ldr.w	r0, [pc, #1588]	; 8000950 <GPDMA1_0_IRQHandler_Veneer+0x26>
 800031e:	b500      	push	{lr}
 8000320:	b081      	sub	sp, #4
 8000322:	4780      	blx	r0
 8000324:	b001      	add	sp, #4
 8000326:	bd00      	pop	{pc}

08000328 <DebugMon_Handler>:
/* ======================================================================== */
     Insert_ExceptionHandler DebugMon_Handler
 8000328:	e7fe      	b.n	8000328 <DebugMon_Handler>

0800032a <DebugMon_Handler_Veneer>:
 800032a:	f8df 0628 	ldr.w	r0, [pc, #1576]	; 8000954 <GPDMA1_0_IRQHandler_Veneer+0x2a>
 800032e:	b500      	push	{lr}
 8000330:	b081      	sub	sp, #4
 8000332:	4780      	blx	r0
 8000334:	b001      	add	sp, #4
 8000336:	bd00      	pop	{pc}

08000338 <PendSV_Handler>:
/* ======================================================================== */
     Insert_ExceptionHandler PendSV_Handler
 8000338:	e7fe      	b.n	8000338 <PendSV_Handler>

0800033a <PendSV_Handler_Veneer>:
 800033a:	f8df 061c 	ldr.w	r0, [pc, #1564]	; 8000958 <GPDMA1_0_IRQHandler_Veneer+0x2e>
 800033e:	b500      	push	{lr}
 8000340:	b081      	sub	sp, #4
 8000342:	4780      	blx	r0
 8000344:	b001      	add	sp, #4
 8000346:	bd00      	pop	{pc}

08000348 <SysTick_Handler>:
/* ======================================================================== */
     Insert_ExceptionHandler SysTick_Handler
 8000348:	e7fe      	b.n	8000348 <SysTick_Handler>

0800034a <SysTick_Handler_Veneer>:
 800034a:	f8df 0610 	ldr.w	r0, [pc, #1552]	; 800095c <GPDMA1_0_IRQHandler_Veneer+0x32>
 800034e:	b500      	push	{lr}
 8000350:	b081      	sub	sp, #4
 8000352:	4780      	blx	r0
 8000354:	b001      	add	sp, #4
 8000356:	bd00      	pop	{pc}

08000358 <SCU_0_IRQHandler>:
/* ============= END OF EXCEPTION HANDLER DEFINITION ======================== */

/* ============= START OF INTERRUPT HANDLER DEFINITION ====================== */

/* IRQ Handlers */
     Insert_ExceptionHandler SCU_0_IRQHandler
 8000358:	e7fe      	b.n	8000358 <SCU_0_IRQHandler>

0800035a <SCU_0_IRQHandler_Veneer>:
 800035a:	f8df 0604 	ldr.w	r0, [pc, #1540]	; 8000960 <GPDMA1_0_IRQHandler_Veneer+0x36>
 800035e:	b500      	push	{lr}
 8000360:	b081      	sub	sp, #4
 8000362:	4780      	blx	r0
 8000364:	b001      	add	sp, #4
 8000366:	bd00      	pop	{pc}

08000368 <ERU0_0_IRQHandler>:
/* ======================================================================== */
     Insert_ExceptionHandler ERU0_0_IRQHandler
 8000368:	e7fe      	b.n	8000368 <ERU0_0_IRQHandler>

0800036a <ERU0_0_IRQHandler_Veneer>:
 800036a:	f8df 05f8 	ldr.w	r0, [pc, #1528]	; 8000964 <GPDMA1_0_IRQHandler_Veneer+0x3a>
 800036e:	b500      	push	{lr}
 8000370:	b081      	sub	sp, #4
 8000372:	4780      	blx	r0
 8000374:	b001      	add	sp, #4
 8000376:	bd00      	pop	{pc}

08000378 <ERU0_1_IRQHandler>:
/* ======================================================================== */
     Insert_ExceptionHandler ERU0_1_IRQHandler
 8000378:	e7fe      	b.n	8000378 <ERU0_1_IRQHandler>

0800037a <ERU0_1_IRQHandler_Veneer>:
 800037a:	f8df 05ec 	ldr.w	r0, [pc, #1516]	; 8000968 <GPDMA1_0_IRQHandler_Veneer+0x3e>
 800037e:	b500      	push	{lr}
 8000380:	b081      	sub	sp, #4
 8000382:	4780      	blx	r0
 8000384:	b001      	add	sp, #4
 8000386:	bd00      	pop	{pc}

08000388 <ERU0_2_IRQHandler>:
/* ======================================================================== */
     Insert_ExceptionHandler ERU0_2_IRQHandler
 8000388:	e7fe      	b.n	8000388 <ERU0_2_IRQHandler>

0800038a <ERU0_2_IRQHandler_Veneer>:
 800038a:	f8df 05e0 	ldr.w	r0, [pc, #1504]	; 800096c <GPDMA1_0_IRQHandler_Veneer+0x42>
 800038e:	b500      	push	{lr}
 8000390:	b081      	sub	sp, #4
 8000392:	4780      	blx	r0
 8000394:	b001      	add	sp, #4
 8000396:	bd00      	pop	{pc}

08000398 <ERU0_3_IRQHandler>:
/* ======================================================================== */
     Insert_ExceptionHandler ERU0_3_IRQHandler
 8000398:	e7fe      	b.n	8000398 <ERU0_3_IRQHandler>

0800039a <ERU0_3_IRQHandler_Veneer>:
 800039a:	f8df 05d4 	ldr.w	r0, [pc, #1492]	; 8000970 <GPDMA1_0_IRQHandler_Veneer+0x46>
 800039e:	b500      	push	{lr}
 80003a0:	b081      	sub	sp, #4
 80003a2:	4780      	blx	r0
 80003a4:	b001      	add	sp, #4
 80003a6:	bd00      	pop	{pc}

080003a8 <ERU1_0_IRQHandler>:
/* ======================================================================== */
     Insert_ExceptionHandler ERU1_0_IRQHandler
 80003a8:	e7fe      	b.n	80003a8 <ERU1_0_IRQHandler>

080003aa <ERU1_0_IRQHandler_Veneer>:
 80003aa:	f8df 05c8 	ldr.w	r0, [pc, #1480]	; 8000974 <GPDMA1_0_IRQHandler_Veneer+0x4a>
 80003ae:	b500      	push	{lr}
 80003b0:	b081      	sub	sp, #4
 80003b2:	4780      	blx	r0
 80003b4:	b001      	add	sp, #4
 80003b6:	bd00      	pop	{pc}

080003b8 <ERU1_1_IRQHandler>:
/* ======================================================================== */
     Insert_ExceptionHandler ERU1_1_IRQHandler
 80003b8:	e7fe      	b.n	80003b8 <ERU1_1_IRQHandler>

080003ba <ERU1_1_IRQHandler_Veneer>:
 80003ba:	f8df 05bc 	ldr.w	r0, [pc, #1468]	; 8000978 <GPDMA1_0_IRQHandler_Veneer+0x4e>
 80003be:	b500      	push	{lr}
 80003c0:	b081      	sub	sp, #4
 80003c2:	4780      	blx	r0
 80003c4:	b001      	add	sp, #4
 80003c6:	bd00      	pop	{pc}

080003c8 <ERU1_2_IRQHandler>:
/* ======================================================================== */
     Insert_ExceptionHandler ERU1_2_IRQHandler
 80003c8:	e7fe      	b.n	80003c8 <ERU1_2_IRQHandler>

080003ca <ERU1_2_IRQHandler_Veneer>:
 80003ca:	f8df 05b0 	ldr.w	r0, [pc, #1456]	; 800097c <GPDMA1_0_IRQHandler_Veneer+0x52>
 80003ce:	b500      	push	{lr}
 80003d0:	b081      	sub	sp, #4
 80003d2:	4780      	blx	r0
 80003d4:	b001      	add	sp, #4
 80003d6:	bd00      	pop	{pc}

080003d8 <ERU1_3_IRQHandler>:
/* ======================================================================== */
     Insert_ExceptionHandler ERU1_3_IRQHandler
 80003d8:	e7fe      	b.n	80003d8 <ERU1_3_IRQHandler>

080003da <ERU1_3_IRQHandler_Veneer>:
 80003da:	f8df 05a4 	ldr.w	r0, [pc, #1444]	; 8000980 <GPDMA1_0_IRQHandler_Veneer+0x56>
 80003de:	b500      	push	{lr}
 80003e0:	b081      	sub	sp, #4
 80003e2:	4780      	blx	r0
 80003e4:	b001      	add	sp, #4
 80003e6:	bd00      	pop	{pc}

080003e8 <PMU0_0_IRQHandler>:
/* ======================================================================== */
     Insert_ExceptionHandler PMU0_0_IRQHandler
 80003e8:	e7fe      	b.n	80003e8 <PMU0_0_IRQHandler>

080003ea <PMU0_0_IRQHandler_Veneer>:
 80003ea:	f8df 0598 	ldr.w	r0, [pc, #1432]	; 8000984 <GPDMA1_0_IRQHandler_Veneer+0x5a>
 80003ee:	b500      	push	{lr}
 80003f0:	b081      	sub	sp, #4
 80003f2:	4780      	blx	r0
 80003f4:	b001      	add	sp, #4
 80003f6:	bd00      	pop	{pc}

080003f8 <VADC0_C0_0_IRQHandler>:
/* ======================================================================== */
     Insert_ExceptionHandler VADC0_C0_0_IRQHandler
 80003f8:	e7fe      	b.n	80003f8 <VADC0_C0_0_IRQHandler>

080003fa <VADC0_C0_0_IRQHandler_Veneer>:
 80003fa:	f8df 058c 	ldr.w	r0, [pc, #1420]	; 8000988 <GPDMA1_0_IRQHandler_Veneer+0x5e>
 80003fe:	b500      	push	{lr}
 8000400:	b081      	sub	sp, #4
 8000402:	4780      	blx	r0
 8000404:	b001      	add	sp, #4
 8000406:	bd00      	pop	{pc}

08000408 <VADC0_C0_1_IRQHandler>:
/* ======================================================================== */
     Insert_ExceptionHandler VADC0_C0_1_IRQHandler
 8000408:	e7fe      	b.n	8000408 <VADC0_C0_1_IRQHandler>

0800040a <VADC0_C0_1_IRQHandler_Veneer>:
 800040a:	f8df 0580 	ldr.w	r0, [pc, #1408]	; 800098c <GPDMA1_0_IRQHandler_Veneer+0x62>
 800040e:	b500      	push	{lr}
 8000410:	b081      	sub	sp, #4
 8000412:	4780      	blx	r0
 8000414:	b001      	add	sp, #4
 8000416:	bd00      	pop	{pc}

08000418 <VADC0_C0_2_IRQHandler>:
/* ======================================================================== */
     Insert_ExceptionHandler VADC0_C0_2_IRQHandler
 8000418:	e7fe      	b.n	8000418 <VADC0_C0_2_IRQHandler>

0800041a <VADC0_C0_2_IRQHandler_Veneer>:
 800041a:	f8df 0574 	ldr.w	r0, [pc, #1396]	; 8000990 <GPDMA1_0_IRQHandler_Veneer+0x66>
 800041e:	b500      	push	{lr}
 8000420:	b081      	sub	sp, #4
 8000422:	4780      	blx	r0
 8000424:	b001      	add	sp, #4
 8000426:	bd00      	pop	{pc}

08000428 <VADC0_C0_3_IRQHandler>:
/* ======================================================================== */
     Insert_ExceptionHandler VADC0_C0_3_IRQHandler
 8000428:	e7fe      	b.n	8000428 <VADC0_C0_3_IRQHandler>

0800042a <VADC0_C0_3_IRQHandler_Veneer>:
 800042a:	f8df 0568 	ldr.w	r0, [pc, #1384]	; 8000994 <GPDMA1_0_IRQHandler_Veneer+0x6a>
 800042e:	b500      	push	{lr}
 8000430:	b081      	sub	sp, #4
 8000432:	4780      	blx	r0
 8000434:	b001      	add	sp, #4
 8000436:	bd00      	pop	{pc}

08000438 <VADC0_G0_0_IRQHandler>:
/* ======================================================================== */
     Insert_ExceptionHandler VADC0_G0_0_IRQHandler
 8000438:	e7fe      	b.n	8000438 <VADC0_G0_0_IRQHandler>

0800043a <VADC0_G0_0_IRQHandler_Veneer>:
 800043a:	f8df 055c 	ldr.w	r0, [pc, #1372]	; 8000998 <GPDMA1_0_IRQHandler_Veneer+0x6e>
 800043e:	b500      	push	{lr}
 8000440:	b081      	sub	sp, #4
 8000442:	4780      	blx	r0
 8000444:	b001      	add	sp, #4
 8000446:	bd00      	pop	{pc}

08000448 <VADC0_G0_1_IRQHandler>:
/* ======================================================================== */
     Insert_ExceptionHandler VADC0_G0_1_IRQHandler
 8000448:	e7fe      	b.n	8000448 <VADC0_G0_1_IRQHandler>

0800044a <VADC0_G0_1_IRQHandler_Veneer>:
 800044a:	f8df 0550 	ldr.w	r0, [pc, #1360]	; 800099c <GPDMA1_0_IRQHandler_Veneer+0x72>
 800044e:	b500      	push	{lr}
 8000450:	b081      	sub	sp, #4
 8000452:	4780      	blx	r0
 8000454:	b001      	add	sp, #4
 8000456:	bd00      	pop	{pc}

08000458 <VADC0_G0_2_IRQHandler>:
/* ======================================================================== */
     Insert_ExceptionHandler VADC0_G0_2_IRQHandler
 8000458:	e7fe      	b.n	8000458 <VADC0_G0_2_IRQHandler>

0800045a <VADC0_G0_2_IRQHandler_Veneer>:
 800045a:	f8df 0544 	ldr.w	r0, [pc, #1348]	; 80009a0 <GPDMA1_0_IRQHandler_Veneer+0x76>
 800045e:	b500      	push	{lr}
 8000460:	b081      	sub	sp, #4
 8000462:	4780      	blx	r0
 8000464:	b001      	add	sp, #4
 8000466:	bd00      	pop	{pc}

08000468 <VADC0_G0_3_IRQHandler>:
/* ======================================================================== */
     Insert_ExceptionHandler VADC0_G0_3_IRQHandler
 8000468:	e7fe      	b.n	8000468 <VADC0_G0_3_IRQHandler>

0800046a <VADC0_G0_3_IRQHandler_Veneer>:
 800046a:	f8df 0538 	ldr.w	r0, [pc, #1336]	; 80009a4 <GPDMA1_0_IRQHandler_Veneer+0x7a>
 800046e:	b500      	push	{lr}
 8000470:	b081      	sub	sp, #4
 8000472:	4780      	blx	r0
 8000474:	b001      	add	sp, #4
 8000476:	bd00      	pop	{pc}

08000478 <VADC0_G1_0_IRQHandler>:
/* ======================================================================== */
     Insert_ExceptionHandler VADC0_G1_0_IRQHandler
 8000478:	e7fe      	b.n	8000478 <VADC0_G1_0_IRQHandler>

0800047a <VADC0_G1_0_IRQHandler_Veneer>:
 800047a:	f8df 052c 	ldr.w	r0, [pc, #1324]	; 80009a8 <GPDMA1_0_IRQHandler_Veneer+0x7e>
 800047e:	b500      	push	{lr}
 8000480:	b081      	sub	sp, #4
 8000482:	4780      	blx	r0
 8000484:	b001      	add	sp, #4
 8000486:	bd00      	pop	{pc}

08000488 <VADC0_G1_1_IRQHandler>:
/* ======================================================================== */
     Insert_ExceptionHandler VADC0_G1_1_IRQHandler
 8000488:	e7fe      	b.n	8000488 <VADC0_G1_1_IRQHandler>

0800048a <VADC0_G1_1_IRQHandler_Veneer>:
 800048a:	f8df 0520 	ldr.w	r0, [pc, #1312]	; 80009ac <GPDMA1_0_IRQHandler_Veneer+0x82>
 800048e:	b500      	push	{lr}
 8000490:	b081      	sub	sp, #4
 8000492:	4780      	blx	r0
 8000494:	b001      	add	sp, #4
 8000496:	bd00      	pop	{pc}

08000498 <VADC0_G1_2_IRQHandler>:
/* ======================================================================== */
     Insert_ExceptionHandler VADC0_G1_2_IRQHandler
 8000498:	e7fe      	b.n	8000498 <VADC0_G1_2_IRQHandler>

0800049a <VADC0_G1_2_IRQHandler_Veneer>:
 800049a:	f8df 0514 	ldr.w	r0, [pc, #1300]	; 80009b0 <GPDMA1_0_IRQHandler_Veneer+0x86>
 800049e:	b500      	push	{lr}
 80004a0:	b081      	sub	sp, #4
 80004a2:	4780      	blx	r0
 80004a4:	b001      	add	sp, #4
 80004a6:	bd00      	pop	{pc}

080004a8 <VADC0_G1_3_IRQHandler>:
/* ======================================================================== */
     Insert_ExceptionHandler VADC0_G1_3_IRQHandler
 80004a8:	e7fe      	b.n	80004a8 <VADC0_G1_3_IRQHandler>

080004aa <VADC0_G1_3_IRQHandler_Veneer>:
 80004aa:	f8df 0508 	ldr.w	r0, [pc, #1288]	; 80009b4 <GPDMA1_0_IRQHandler_Veneer+0x8a>
 80004ae:	b500      	push	{lr}
 80004b0:	b081      	sub	sp, #4
 80004b2:	4780      	blx	r0
 80004b4:	b001      	add	sp, #4
 80004b6:	bd00      	pop	{pc}

080004b8 <VADC0_G2_0_IRQHandler>:
/* ======================================================================== */
     Insert_ExceptionHandler VADC0_G2_0_IRQHandler
 80004b8:	e7fe      	b.n	80004b8 <VADC0_G2_0_IRQHandler>

080004ba <VADC0_G2_0_IRQHandler_Veneer>:
 80004ba:	f8df 04fc 	ldr.w	r0, [pc, #1276]	; 80009b8 <GPDMA1_0_IRQHandler_Veneer+0x8e>
 80004be:	b500      	push	{lr}
 80004c0:	b081      	sub	sp, #4
 80004c2:	4780      	blx	r0
 80004c4:	b001      	add	sp, #4
 80004c6:	bd00      	pop	{pc}

080004c8 <VADC0_G2_1_IRQHandler>:
/* ======================================================================== */
     Insert_ExceptionHandler VADC0_G2_1_IRQHandler
 80004c8:	e7fe      	b.n	80004c8 <VADC0_G2_1_IRQHandler>

080004ca <VADC0_G2_1_IRQHandler_Veneer>:
 80004ca:	f8df 04f0 	ldr.w	r0, [pc, #1264]	; 80009bc <GPDMA1_0_IRQHandler_Veneer+0x92>
 80004ce:	b500      	push	{lr}
 80004d0:	b081      	sub	sp, #4
 80004d2:	4780      	blx	r0
 80004d4:	b001      	add	sp, #4
 80004d6:	bd00      	pop	{pc}

080004d8 <VADC0_G2_2_IRQHandler>:
/* ======================================================================== */
     Insert_ExceptionHandler VADC0_G2_2_IRQHandler
 80004d8:	e7fe      	b.n	80004d8 <VADC0_G2_2_IRQHandler>

080004da <VADC0_G2_2_IRQHandler_Veneer>:
 80004da:	f8df 04e4 	ldr.w	r0, [pc, #1252]	; 80009c0 <GPDMA1_0_IRQHandler_Veneer+0x96>
 80004de:	b500      	push	{lr}
 80004e0:	b081      	sub	sp, #4
 80004e2:	4780      	blx	r0
 80004e4:	b001      	add	sp, #4
 80004e6:	bd00      	pop	{pc}

080004e8 <VADC0_G2_3_IRQHandler>:
/* ======================================================================== */
     Insert_ExceptionHandler VADC0_G2_3_IRQHandler
 80004e8:	e7fe      	b.n	80004e8 <VADC0_G2_3_IRQHandler>

080004ea <VADC0_G2_3_IRQHandler_Veneer>:
 80004ea:	f8df 04d8 	ldr.w	r0, [pc, #1240]	; 80009c4 <GPDMA1_0_IRQHandler_Veneer+0x9a>
 80004ee:	b500      	push	{lr}
 80004f0:	b081      	sub	sp, #4
 80004f2:	4780      	blx	r0
 80004f4:	b001      	add	sp, #4
 80004f6:	bd00      	pop	{pc}

080004f8 <VADC0_G3_0_IRQHandler>:
/* ======================================================================== */
     Insert_ExceptionHandler VADC0_G3_0_IRQHandler
 80004f8:	e7fe      	b.n	80004f8 <VADC0_G3_0_IRQHandler>

080004fa <VADC0_G3_0_IRQHandler_Veneer>:
 80004fa:	f8df 04cc 	ldr.w	r0, [pc, #1228]	; 80009c8 <GPDMA1_0_IRQHandler_Veneer+0x9e>
 80004fe:	b500      	push	{lr}
 8000500:	b081      	sub	sp, #4
 8000502:	4780      	blx	r0
 8000504:	b001      	add	sp, #4
 8000506:	bd00      	pop	{pc}

08000508 <VADC0_G3_1_IRQHandler>:
/* ======================================================================== */
     Insert_ExceptionHandler VADC0_G3_1_IRQHandler
 8000508:	e7fe      	b.n	8000508 <VADC0_G3_1_IRQHandler>

0800050a <VADC0_G3_1_IRQHandler_Veneer>:
 800050a:	f8df 04c0 	ldr.w	r0, [pc, #1216]	; 80009cc <GPDMA1_0_IRQHandler_Veneer+0xa2>
 800050e:	b500      	push	{lr}
 8000510:	b081      	sub	sp, #4
 8000512:	4780      	blx	r0
 8000514:	b001      	add	sp, #4
 8000516:	bd00      	pop	{pc}

08000518 <VADC0_G3_2_IRQHandler>:
/* ======================================================================== */
     Insert_ExceptionHandler VADC0_G3_2_IRQHandler
 8000518:	e7fe      	b.n	8000518 <VADC0_G3_2_IRQHandler>

0800051a <VADC0_G3_2_IRQHandler_Veneer>:
 800051a:	f8df 04b4 	ldr.w	r0, [pc, #1204]	; 80009d0 <GPDMA1_0_IRQHandler_Veneer+0xa6>
 800051e:	b500      	push	{lr}
 8000520:	b081      	sub	sp, #4
 8000522:	4780      	blx	r0
 8000524:	b001      	add	sp, #4
 8000526:	bd00      	pop	{pc}

08000528 <VADC0_G3_3_IRQHandler>:
/* ======================================================================== */
     Insert_ExceptionHandler VADC0_G3_3_IRQHandler
 8000528:	e7fe      	b.n	8000528 <VADC0_G3_3_IRQHandler>

0800052a <VADC0_G3_3_IRQHandler_Veneer>:
 800052a:	f8df 04a8 	ldr.w	r0, [pc, #1192]	; 80009d4 <GPDMA1_0_IRQHandler_Veneer+0xaa>
 800052e:	b500      	push	{lr}
 8000530:	b081      	sub	sp, #4
 8000532:	4780      	blx	r0
 8000534:	b001      	add	sp, #4
 8000536:	bd00      	pop	{pc}

08000538 <DSD0_0_IRQHandler>:
/* ======================================================================== */
     Insert_ExceptionHandler DSD0_0_IRQHandler
 8000538:	e7fe      	b.n	8000538 <DSD0_0_IRQHandler>

0800053a <DSD0_0_IRQHandler_Veneer>:
 800053a:	f8df 049c 	ldr.w	r0, [pc, #1180]	; 80009d8 <GPDMA1_0_IRQHandler_Veneer+0xae>
 800053e:	b500      	push	{lr}
 8000540:	b081      	sub	sp, #4
 8000542:	4780      	blx	r0
 8000544:	b001      	add	sp, #4
 8000546:	bd00      	pop	{pc}

08000548 <DSD0_1_IRQHandler>:
/* ======================================================================== */
     Insert_ExceptionHandler DSD0_1_IRQHandler
 8000548:	e7fe      	b.n	8000548 <DSD0_1_IRQHandler>

0800054a <DSD0_1_IRQHandler_Veneer>:
 800054a:	f8df 0490 	ldr.w	r0, [pc, #1168]	; 80009dc <GPDMA1_0_IRQHandler_Veneer+0xb2>
 800054e:	b500      	push	{lr}
 8000550:	b081      	sub	sp, #4
 8000552:	4780      	blx	r0
 8000554:	b001      	add	sp, #4
 8000556:	bd00      	pop	{pc}

08000558 <DSD0_2_IRQHandler>:
/* ======================================================================== */
     Insert_ExceptionHandler DSD0_2_IRQHandler
 8000558:	e7fe      	b.n	8000558 <DSD0_2_IRQHandler>

0800055a <DSD0_2_IRQHandler_Veneer>:
 800055a:	f8df 0484 	ldr.w	r0, [pc, #1156]	; 80009e0 <GPDMA1_0_IRQHandler_Veneer+0xb6>
 800055e:	b500      	push	{lr}
 8000560:	b081      	sub	sp, #4
 8000562:	4780      	blx	r0
 8000564:	b001      	add	sp, #4
 8000566:	bd00      	pop	{pc}

08000568 <DSD0_3_IRQHandler>:
/* ======================================================================== */
     Insert_ExceptionHandler DSD0_3_IRQHandler
 8000568:	e7fe      	b.n	8000568 <DSD0_3_IRQHandler>

0800056a <DSD0_3_IRQHandler_Veneer>:
 800056a:	f8df 0478 	ldr.w	r0, [pc, #1144]	; 80009e4 <GPDMA1_0_IRQHandler_Veneer+0xba>
 800056e:	b500      	push	{lr}
 8000570:	b081      	sub	sp, #4
 8000572:	4780      	blx	r0
 8000574:	b001      	add	sp, #4
 8000576:	bd00      	pop	{pc}

08000578 <DSD0_4_IRQHandler>:
/* ======================================================================== */
     Insert_ExceptionHandler DSD0_4_IRQHandler
 8000578:	e7fe      	b.n	8000578 <DSD0_4_IRQHandler>

0800057a <DSD0_4_IRQHandler_Veneer>:
 800057a:	f8df 046c 	ldr.w	r0, [pc, #1132]	; 80009e8 <GPDMA1_0_IRQHandler_Veneer+0xbe>
 800057e:	b500      	push	{lr}
 8000580:	b081      	sub	sp, #4
 8000582:	4780      	blx	r0
 8000584:	b001      	add	sp, #4
 8000586:	bd00      	pop	{pc}

08000588 <DSD0_5_IRQHandler>:
/* ======================================================================== */
     Insert_ExceptionHandler DSD0_5_IRQHandler
 8000588:	e7fe      	b.n	8000588 <DSD0_5_IRQHandler>

0800058a <DSD0_5_IRQHandler_Veneer>:
 800058a:	f8df 0460 	ldr.w	r0, [pc, #1120]	; 80009ec <GPDMA1_0_IRQHandler_Veneer+0xc2>
 800058e:	b500      	push	{lr}
 8000590:	b081      	sub	sp, #4
 8000592:	4780      	blx	r0
 8000594:	b001      	add	sp, #4
 8000596:	bd00      	pop	{pc}

08000598 <DSD0_6_IRQHandler>:
/* ======================================================================== */
     Insert_ExceptionHandler DSD0_6_IRQHandler
 8000598:	e7fe      	b.n	8000598 <DSD0_6_IRQHandler>

0800059a <DSD0_6_IRQHandler_Veneer>:
 800059a:	f8df 0454 	ldr.w	r0, [pc, #1108]	; 80009f0 <GPDMA1_0_IRQHandler_Veneer+0xc6>
 800059e:	b500      	push	{lr}
 80005a0:	b081      	sub	sp, #4
 80005a2:	4780      	blx	r0
 80005a4:	b001      	add	sp, #4
 80005a6:	bd00      	pop	{pc}

080005a8 <DSD0_7_IRQHandler>:
/* ======================================================================== */
     Insert_ExceptionHandler DSD0_7_IRQHandler
 80005a8:	e7fe      	b.n	80005a8 <DSD0_7_IRQHandler>

080005aa <DSD0_7_IRQHandler_Veneer>:
 80005aa:	f8df 0448 	ldr.w	r0, [pc, #1096]	; 80009f4 <GPDMA1_0_IRQHandler_Veneer+0xca>
 80005ae:	b500      	push	{lr}
 80005b0:	b081      	sub	sp, #4
 80005b2:	4780      	blx	r0
 80005b4:	b001      	add	sp, #4
 80005b6:	bd00      	pop	{pc}

080005b8 <DAC0_0_IRQHandler>:
/* ======================================================================== */
     Insert_ExceptionHandler DAC0_0_IRQHandler
 80005b8:	e7fe      	b.n	80005b8 <DAC0_0_IRQHandler>

080005ba <DAC0_0_IRQHandler_Veneer>:
 80005ba:	f8df 043c 	ldr.w	r0, [pc, #1084]	; 80009f8 <GPDMA1_0_IRQHandler_Veneer+0xce>
 80005be:	b500      	push	{lr}
 80005c0:	b081      	sub	sp, #4
 80005c2:	4780      	blx	r0
 80005c4:	b001      	add	sp, #4
 80005c6:	bd00      	pop	{pc}

080005c8 <DAC0_1_IRQHandler>:
/* ======================================================================== */
     Insert_ExceptionHandler DAC0_1_IRQHandler
 80005c8:	e7fe      	b.n	80005c8 <DAC0_1_IRQHandler>

080005ca <DAC0_1_IRQHandler_Veneer>:
 80005ca:	f8df 0430 	ldr.w	r0, [pc, #1072]	; 80009fc <GPDMA1_0_IRQHandler_Veneer+0xd2>
 80005ce:	b500      	push	{lr}
 80005d0:	b081      	sub	sp, #4
 80005d2:	4780      	blx	r0
 80005d4:	b001      	add	sp, #4
 80005d6:	bd00      	pop	{pc}

080005d8 <CCU40_0_IRQHandler>:
/* ======================================================================== */
     Insert_ExceptionHandler CCU40_0_IRQHandler
 80005d8:	e7fe      	b.n	80005d8 <CCU40_0_IRQHandler>

080005da <CCU40_0_IRQHandler_Veneer>:
 80005da:	f8df 0424 	ldr.w	r0, [pc, #1060]	; 8000a00 <GPDMA1_0_IRQHandler_Veneer+0xd6>
 80005de:	b500      	push	{lr}
 80005e0:	b081      	sub	sp, #4
 80005e2:	4780      	blx	r0
 80005e4:	b001      	add	sp, #4
 80005e6:	bd00      	pop	{pc}

080005e8 <CCU40_1_IRQHandler>:
/* ======================================================================== */
     Insert_ExceptionHandler CCU40_1_IRQHandler
 80005e8:	e7fe      	b.n	80005e8 <CCU40_1_IRQHandler>

080005ea <CCU40_1_IRQHandler_Veneer>:
 80005ea:	f8df 0418 	ldr.w	r0, [pc, #1048]	; 8000a04 <GPDMA1_0_IRQHandler_Veneer+0xda>
 80005ee:	b500      	push	{lr}
 80005f0:	b081      	sub	sp, #4
 80005f2:	4780      	blx	r0
 80005f4:	b001      	add	sp, #4
 80005f6:	bd00      	pop	{pc}

080005f8 <CCU40_2_IRQHandler>:
/* ======================================================================== */
     Insert_ExceptionHandler CCU40_2_IRQHandler
 80005f8:	e7fe      	b.n	80005f8 <CCU40_2_IRQHandler>

080005fa <CCU40_2_IRQHandler_Veneer>:
 80005fa:	f8df 040c 	ldr.w	r0, [pc, #1036]	; 8000a08 <GPDMA1_0_IRQHandler_Veneer+0xde>
 80005fe:	b500      	push	{lr}
 8000600:	b081      	sub	sp, #4
 8000602:	4780      	blx	r0
 8000604:	b001      	add	sp, #4
 8000606:	bd00      	pop	{pc}

08000608 <CCU40_3_IRQHandler>:
/* ======================================================================== */
     Insert_ExceptionHandler CCU40_3_IRQHandler
 8000608:	e7fe      	b.n	8000608 <CCU40_3_IRQHandler>

0800060a <CCU40_3_IRQHandler_Veneer>:
 800060a:	f8df 0400 	ldr.w	r0, [pc, #1024]	; 8000a0c <GPDMA1_0_IRQHandler_Veneer+0xe2>
 800060e:	b500      	push	{lr}
 8000610:	b081      	sub	sp, #4
 8000612:	4780      	blx	r0
 8000614:	b001      	add	sp, #4
 8000616:	bd00      	pop	{pc}

08000618 <CCU41_0_IRQHandler>:
/* ======================================================================== */
     Insert_ExceptionHandler CCU41_0_IRQHandler
 8000618:	e7fe      	b.n	8000618 <CCU41_0_IRQHandler>

0800061a <CCU41_0_IRQHandler_Veneer>:
 800061a:	48fd      	ldr	r0, [pc, #1012]	; (8000a10 <GPDMA1_0_IRQHandler_Veneer+0xe6>)
 800061c:	b500      	push	{lr}
 800061e:	b081      	sub	sp, #4
 8000620:	4780      	blx	r0
 8000622:	b001      	add	sp, #4
 8000624:	bd00      	pop	{pc}

08000626 <CCU41_1_IRQHandler>:
/* ======================================================================== */
     Insert_ExceptionHandler CCU41_1_IRQHandler
 8000626:	e7fe      	b.n	8000626 <CCU41_1_IRQHandler>

08000628 <CCU41_1_IRQHandler_Veneer>:
 8000628:	48fa      	ldr	r0, [pc, #1000]	; (8000a14 <GPDMA1_0_IRQHandler_Veneer+0xea>)
 800062a:	b500      	push	{lr}
 800062c:	b081      	sub	sp, #4
 800062e:	4780      	blx	r0
 8000630:	b001      	add	sp, #4
 8000632:	bd00      	pop	{pc}

08000634 <CCU41_2_IRQHandler>:
/* ======================================================================== */
     Insert_ExceptionHandler CCU41_2_IRQHandler
 8000634:	e7fe      	b.n	8000634 <CCU41_2_IRQHandler>

08000636 <CCU41_2_IRQHandler_Veneer>:
 8000636:	48f8      	ldr	r0, [pc, #992]	; (8000a18 <GPDMA1_0_IRQHandler_Veneer+0xee>)
 8000638:	b500      	push	{lr}
 800063a:	b081      	sub	sp, #4
 800063c:	4780      	blx	r0
 800063e:	b001      	add	sp, #4
 8000640:	bd00      	pop	{pc}

08000642 <CCU41_3_IRQHandler>:
/* ======================================================================== */
     Insert_ExceptionHandler CCU41_3_IRQHandler
 8000642:	e7fe      	b.n	8000642 <CCU41_3_IRQHandler>

08000644 <CCU41_3_IRQHandler_Veneer>:
 8000644:	48f5      	ldr	r0, [pc, #980]	; (8000a1c <GPDMA1_0_IRQHandler_Veneer+0xf2>)
 8000646:	b500      	push	{lr}
 8000648:	b081      	sub	sp, #4
 800064a:	4780      	blx	r0
 800064c:	b001      	add	sp, #4
 800064e:	bd00      	pop	{pc}

08000650 <CCU42_0_IRQHandler>:
/* ======================================================================== */
     Insert_ExceptionHandler CCU42_0_IRQHandler
 8000650:	e7fe      	b.n	8000650 <CCU42_0_IRQHandler>

08000652 <CCU42_0_IRQHandler_Veneer>:
 8000652:	48f3      	ldr	r0, [pc, #972]	; (8000a20 <GPDMA1_0_IRQHandler_Veneer+0xf6>)
 8000654:	b500      	push	{lr}
 8000656:	b081      	sub	sp, #4
 8000658:	4780      	blx	r0
 800065a:	b001      	add	sp, #4
 800065c:	bd00      	pop	{pc}

0800065e <CCU42_1_IRQHandler>:
/* ======================================================================== */
     Insert_ExceptionHandler CCU42_1_IRQHandler
 800065e:	e7fe      	b.n	800065e <CCU42_1_IRQHandler>

08000660 <CCU42_1_IRQHandler_Veneer>:
 8000660:	48f0      	ldr	r0, [pc, #960]	; (8000a24 <GPDMA1_0_IRQHandler_Veneer+0xfa>)
 8000662:	b500      	push	{lr}
 8000664:	b081      	sub	sp, #4
 8000666:	4780      	blx	r0
 8000668:	b001      	add	sp, #4
 800066a:	bd00      	pop	{pc}

0800066c <CCU42_2_IRQHandler>:
/* ======================================================================== */
     Insert_ExceptionHandler CCU42_2_IRQHandler
 800066c:	e7fe      	b.n	800066c <CCU42_2_IRQHandler>

0800066e <CCU42_2_IRQHandler_Veneer>:
 800066e:	48ee      	ldr	r0, [pc, #952]	; (8000a28 <GPDMA1_0_IRQHandler_Veneer+0xfe>)
 8000670:	b500      	push	{lr}
 8000672:	b081      	sub	sp, #4
 8000674:	4780      	blx	r0
 8000676:	b001      	add	sp, #4
 8000678:	bd00      	pop	{pc}

0800067a <CCU42_3_IRQHandler>:
/* ======================================================================== */
     Insert_ExceptionHandler CCU42_3_IRQHandler
 800067a:	e7fe      	b.n	800067a <CCU42_3_IRQHandler>

0800067c <CCU42_3_IRQHandler_Veneer>:
 800067c:	48eb      	ldr	r0, [pc, #940]	; (8000a2c <GPDMA1_0_IRQHandler_Veneer+0x102>)
 800067e:	b500      	push	{lr}
 8000680:	b081      	sub	sp, #4
 8000682:	4780      	blx	r0
 8000684:	b001      	add	sp, #4
 8000686:	bd00      	pop	{pc}

08000688 <CCU43_0_IRQHandler>:
/* ======================================================================== */
     Insert_ExceptionHandler CCU43_0_IRQHandler
 8000688:	e7fe      	b.n	8000688 <CCU43_0_IRQHandler>

0800068a <CCU43_0_IRQHandler_Veneer>:
 800068a:	48e9      	ldr	r0, [pc, #932]	; (8000a30 <GPDMA1_0_IRQHandler_Veneer+0x106>)
 800068c:	b500      	push	{lr}
 800068e:	b081      	sub	sp, #4
 8000690:	4780      	blx	r0
 8000692:	b001      	add	sp, #4
 8000694:	bd00      	pop	{pc}

08000696 <CCU43_1_IRQHandler>:
/* ======================================================================== */
     Insert_ExceptionHandler CCU43_1_IRQHandler
 8000696:	e7fe      	b.n	8000696 <CCU43_1_IRQHandler>

08000698 <CCU43_1_IRQHandler_Veneer>:
 8000698:	48e6      	ldr	r0, [pc, #920]	; (8000a34 <GPDMA1_0_IRQHandler_Veneer+0x10a>)
 800069a:	b500      	push	{lr}
 800069c:	b081      	sub	sp, #4
 800069e:	4780      	blx	r0
 80006a0:	b001      	add	sp, #4
 80006a2:	bd00      	pop	{pc}

080006a4 <CCU43_2_IRQHandler>:
/* ======================================================================== */
     Insert_ExceptionHandler CCU43_2_IRQHandler
 80006a4:	e7fe      	b.n	80006a4 <CCU43_2_IRQHandler>

080006a6 <CCU43_2_IRQHandler_Veneer>:
 80006a6:	48e4      	ldr	r0, [pc, #912]	; (8000a38 <GPDMA1_0_IRQHandler_Veneer+0x10e>)
 80006a8:	b500      	push	{lr}
 80006aa:	b081      	sub	sp, #4
 80006ac:	4780      	blx	r0
 80006ae:	b001      	add	sp, #4
 80006b0:	bd00      	pop	{pc}

080006b2 <CCU43_3_IRQHandler>:
/* ======================================================================== */
     Insert_ExceptionHandler CCU43_3_IRQHandler
 80006b2:	e7fe      	b.n	80006b2 <CCU43_3_IRQHandler>

080006b4 <CCU43_3_IRQHandler_Veneer>:
 80006b4:	48e1      	ldr	r0, [pc, #900]	; (8000a3c <GPDMA1_0_IRQHandler_Veneer+0x112>)
 80006b6:	b500      	push	{lr}
 80006b8:	b081      	sub	sp, #4
 80006ba:	4780      	blx	r0
 80006bc:	b001      	add	sp, #4
 80006be:	bd00      	pop	{pc}

080006c0 <CCU80_0_IRQHandler>:
/* ======================================================================== */
     Insert_ExceptionHandler CCU80_0_IRQHandler
 80006c0:	e7fe      	b.n	80006c0 <CCU80_0_IRQHandler>

080006c2 <CCU80_0_IRQHandler_Veneer>:
 80006c2:	48df      	ldr	r0, [pc, #892]	; (8000a40 <GPDMA1_0_IRQHandler_Veneer+0x116>)
 80006c4:	b500      	push	{lr}
 80006c6:	b081      	sub	sp, #4
 80006c8:	4780      	blx	r0
 80006ca:	b001      	add	sp, #4
 80006cc:	bd00      	pop	{pc}

080006ce <CCU80_1_IRQHandler>:
/* ======================================================================== */
     Insert_ExceptionHandler CCU80_1_IRQHandler
 80006ce:	e7fe      	b.n	80006ce <CCU80_1_IRQHandler>

080006d0 <CCU80_1_IRQHandler_Veneer>:
 80006d0:	48dc      	ldr	r0, [pc, #880]	; (8000a44 <GPDMA1_0_IRQHandler_Veneer+0x11a>)
 80006d2:	b500      	push	{lr}
 80006d4:	b081      	sub	sp, #4
 80006d6:	4780      	blx	r0
 80006d8:	b001      	add	sp, #4
 80006da:	bd00      	pop	{pc}

080006dc <CCU80_2_IRQHandler>:
/* ======================================================================== */
     Insert_ExceptionHandler CCU80_2_IRQHandler
 80006dc:	e7fe      	b.n	80006dc <CCU80_2_IRQHandler>

080006de <CCU80_2_IRQHandler_Veneer>:
 80006de:	48da      	ldr	r0, [pc, #872]	; (8000a48 <GPDMA1_0_IRQHandler_Veneer+0x11e>)
 80006e0:	b500      	push	{lr}
 80006e2:	b081      	sub	sp, #4
 80006e4:	4780      	blx	r0
 80006e6:	b001      	add	sp, #4
 80006e8:	bd00      	pop	{pc}

080006ea <CCU80_3_IRQHandler>:
/* ======================================================================== */
     Insert_ExceptionHandler CCU80_3_IRQHandler
 80006ea:	e7fe      	b.n	80006ea <CCU80_3_IRQHandler>

080006ec <CCU80_3_IRQHandler_Veneer>:
 80006ec:	48d7      	ldr	r0, [pc, #860]	; (8000a4c <GPDMA1_0_IRQHandler_Veneer+0x122>)
 80006ee:	b500      	push	{lr}
 80006f0:	b081      	sub	sp, #4
 80006f2:	4780      	blx	r0
 80006f4:	b001      	add	sp, #4
 80006f6:	bd00      	pop	{pc}

080006f8 <CCU81_0_IRQHandler>:
/* ======================================================================== */
     Insert_ExceptionHandler CCU81_0_IRQHandler
 80006f8:	e7fe      	b.n	80006f8 <CCU81_0_IRQHandler>

080006fa <CCU81_0_IRQHandler_Veneer>:
 80006fa:	48d5      	ldr	r0, [pc, #852]	; (8000a50 <GPDMA1_0_IRQHandler_Veneer+0x126>)
 80006fc:	b500      	push	{lr}
 80006fe:	b081      	sub	sp, #4
 8000700:	4780      	blx	r0
 8000702:	b001      	add	sp, #4
 8000704:	bd00      	pop	{pc}

08000706 <CCU81_1_IRQHandler>:
/* ======================================================================== */
     Insert_ExceptionHandler CCU81_1_IRQHandler
 8000706:	e7fe      	b.n	8000706 <CCU81_1_IRQHandler>

08000708 <CCU81_1_IRQHandler_Veneer>:
 8000708:	48d2      	ldr	r0, [pc, #840]	; (8000a54 <GPDMA1_0_IRQHandler_Veneer+0x12a>)
 800070a:	b500      	push	{lr}
 800070c:	b081      	sub	sp, #4
 800070e:	4780      	blx	r0
 8000710:	b001      	add	sp, #4
 8000712:	bd00      	pop	{pc}

08000714 <CCU81_2_IRQHandler>:
/* ======================================================================== */
     Insert_ExceptionHandler CCU81_2_IRQHandler
 8000714:	e7fe      	b.n	8000714 <CCU81_2_IRQHandler>

08000716 <CCU81_2_IRQHandler_Veneer>:
 8000716:	48d0      	ldr	r0, [pc, #832]	; (8000a58 <GPDMA1_0_IRQHandler_Veneer+0x12e>)
 8000718:	b500      	push	{lr}
 800071a:	b081      	sub	sp, #4
 800071c:	4780      	blx	r0
 800071e:	b001      	add	sp, #4
 8000720:	bd00      	pop	{pc}

08000722 <CCU81_3_IRQHandler>:
/* ======================================================================== */
     Insert_ExceptionHandler CCU81_3_IRQHandler
 8000722:	e7fe      	b.n	8000722 <CCU81_3_IRQHandler>

08000724 <CCU81_3_IRQHandler_Veneer>:
 8000724:	48cd      	ldr	r0, [pc, #820]	; (8000a5c <GPDMA1_0_IRQHandler_Veneer+0x132>)
 8000726:	b500      	push	{lr}
 8000728:	b081      	sub	sp, #4
 800072a:	4780      	blx	r0
 800072c:	b001      	add	sp, #4
 800072e:	bd00      	pop	{pc}

08000730 <POSIF0_0_IRQHandler>:
/* ======================================================================== */
     Insert_ExceptionHandler POSIF0_0_IRQHandler
 8000730:	e7fe      	b.n	8000730 <POSIF0_0_IRQHandler>

08000732 <POSIF0_0_IRQHandler_Veneer>:
 8000732:	48cb      	ldr	r0, [pc, #812]	; (8000a60 <GPDMA1_0_IRQHandler_Veneer+0x136>)
 8000734:	b500      	push	{lr}
 8000736:	b081      	sub	sp, #4
 8000738:	4780      	blx	r0
 800073a:	b001      	add	sp, #4
 800073c:	bd00      	pop	{pc}

0800073e <POSIF0_1_IRQHandler>:
/* ======================================================================== */
     Insert_ExceptionHandler POSIF0_1_IRQHandler
 800073e:	e7fe      	b.n	800073e <POSIF0_1_IRQHandler>

08000740 <POSIF0_1_IRQHandler_Veneer>:
 8000740:	48c8      	ldr	r0, [pc, #800]	; (8000a64 <GPDMA1_0_IRQHandler_Veneer+0x13a>)
 8000742:	b500      	push	{lr}
 8000744:	b081      	sub	sp, #4
 8000746:	4780      	blx	r0
 8000748:	b001      	add	sp, #4
 800074a:	bd00      	pop	{pc}

0800074c <POSIF1_0_IRQHandler>:
/* ======================================================================== */
     Insert_ExceptionHandler POSIF1_0_IRQHandler
 800074c:	e7fe      	b.n	800074c <POSIF1_0_IRQHandler>

0800074e <POSIF1_0_IRQHandler_Veneer>:
 800074e:	48c6      	ldr	r0, [pc, #792]	; (8000a68 <GPDMA1_0_IRQHandler_Veneer+0x13e>)
 8000750:	b500      	push	{lr}
 8000752:	b081      	sub	sp, #4
 8000754:	4780      	blx	r0
 8000756:	b001      	add	sp, #4
 8000758:	bd00      	pop	{pc}

0800075a <POSIF1_1_IRQHandler>:
/* ======================================================================== */
     Insert_ExceptionHandler POSIF1_1_IRQHandler
 800075a:	e7fe      	b.n	800075a <POSIF1_1_IRQHandler>

0800075c <POSIF1_1_IRQHandler_Veneer>:
 800075c:	48c3      	ldr	r0, [pc, #780]	; (8000a6c <GPDMA1_0_IRQHandler_Veneer+0x142>)
 800075e:	b500      	push	{lr}
 8000760:	b081      	sub	sp, #4
 8000762:	4780      	blx	r0
 8000764:	b001      	add	sp, #4
 8000766:	bd00      	pop	{pc}

08000768 <CAN0_0_IRQHandler>:
/* ======================================================================== */
     Insert_ExceptionHandler CAN0_0_IRQHandler
 8000768:	e7fe      	b.n	8000768 <CAN0_0_IRQHandler>

0800076a <CAN0_0_IRQHandler_Veneer>:
 800076a:	48c1      	ldr	r0, [pc, #772]	; (8000a70 <GPDMA1_0_IRQHandler_Veneer+0x146>)
 800076c:	b500      	push	{lr}
 800076e:	b081      	sub	sp, #4
 8000770:	4780      	blx	r0
 8000772:	b001      	add	sp, #4
 8000774:	bd00      	pop	{pc}

08000776 <CAN0_1_IRQHandler>:
/* ======================================================================== */
     Insert_ExceptionHandler CAN0_1_IRQHandler
 8000776:	e7fe      	b.n	8000776 <CAN0_1_IRQHandler>

08000778 <CAN0_1_IRQHandler_Veneer>:
 8000778:	48be      	ldr	r0, [pc, #760]	; (8000a74 <GPDMA1_0_IRQHandler_Veneer+0x14a>)
 800077a:	b500      	push	{lr}
 800077c:	b081      	sub	sp, #4
 800077e:	4780      	blx	r0
 8000780:	b001      	add	sp, #4
 8000782:	bd00      	pop	{pc}

08000784 <CAN0_2_IRQHandler>:
/* ======================================================================== */
     Insert_ExceptionHandler CAN0_2_IRQHandler
 8000784:	e7fe      	b.n	8000784 <CAN0_2_IRQHandler>

08000786 <CAN0_2_IRQHandler_Veneer>:
 8000786:	48bc      	ldr	r0, [pc, #752]	; (8000a78 <GPDMA1_0_IRQHandler_Veneer+0x14e>)
 8000788:	b500      	push	{lr}
 800078a:	b081      	sub	sp, #4
 800078c:	4780      	blx	r0
 800078e:	b001      	add	sp, #4
 8000790:	bd00      	pop	{pc}

08000792 <CAN0_3_IRQHandler>:
/* ======================================================================== */
     Insert_ExceptionHandler CAN0_3_IRQHandler
 8000792:	e7fe      	b.n	8000792 <CAN0_3_IRQHandler>

08000794 <CAN0_3_IRQHandler_Veneer>:
 8000794:	48b9      	ldr	r0, [pc, #740]	; (8000a7c <GPDMA1_0_IRQHandler_Veneer+0x152>)
 8000796:	b500      	push	{lr}
 8000798:	b081      	sub	sp, #4
 800079a:	4780      	blx	r0
 800079c:	b001      	add	sp, #4
 800079e:	bd00      	pop	{pc}

080007a0 <CAN0_4_IRQHandler>:
/* ======================================================================== */
     Insert_ExceptionHandler CAN0_4_IRQHandler
 80007a0:	e7fe      	b.n	80007a0 <CAN0_4_IRQHandler>

080007a2 <CAN0_4_IRQHandler_Veneer>:
 80007a2:	48b7      	ldr	r0, [pc, #732]	; (8000a80 <GPDMA1_0_IRQHandler_Veneer+0x156>)
 80007a4:	b500      	push	{lr}
 80007a6:	b081      	sub	sp, #4
 80007a8:	4780      	blx	r0
 80007aa:	b001      	add	sp, #4
 80007ac:	bd00      	pop	{pc}

080007ae <CAN0_5_IRQHandler>:
/* ======================================================================== */
     Insert_ExceptionHandler CAN0_5_IRQHandler
 80007ae:	e7fe      	b.n	80007ae <CAN0_5_IRQHandler>

080007b0 <CAN0_5_IRQHandler_Veneer>:
 80007b0:	48b4      	ldr	r0, [pc, #720]	; (8000a84 <GPDMA1_0_IRQHandler_Veneer+0x15a>)
 80007b2:	b500      	push	{lr}
 80007b4:	b081      	sub	sp, #4
 80007b6:	4780      	blx	r0
 80007b8:	b001      	add	sp, #4
 80007ba:	bd00      	pop	{pc}

080007bc <CAN0_6_IRQHandler>:
/* ======================================================================== */
     Insert_ExceptionHandler CAN0_6_IRQHandler
 80007bc:	e7fe      	b.n	80007bc <CAN0_6_IRQHandler>

080007be <CAN0_6_IRQHandler_Veneer>:
 80007be:	48b2      	ldr	r0, [pc, #712]	; (8000a88 <GPDMA1_0_IRQHandler_Veneer+0x15e>)
 80007c0:	b500      	push	{lr}
 80007c2:	b081      	sub	sp, #4
 80007c4:	4780      	blx	r0
 80007c6:	b001      	add	sp, #4
 80007c8:	bd00      	pop	{pc}

080007ca <CAN0_7_IRQHandler>:
/* ======================================================================== */
     Insert_ExceptionHandler CAN0_7_IRQHandler
 80007ca:	e7fe      	b.n	80007ca <CAN0_7_IRQHandler>

080007cc <CAN0_7_IRQHandler_Veneer>:
 80007cc:	48af      	ldr	r0, [pc, #700]	; (8000a8c <GPDMA1_0_IRQHandler_Veneer+0x162>)
 80007ce:	b500      	push	{lr}
 80007d0:	b081      	sub	sp, #4
 80007d2:	4780      	blx	r0
 80007d4:	b001      	add	sp, #4
 80007d6:	bd00      	pop	{pc}

080007d8 <USIC0_0_IRQHandler>:
/* ======================================================================== */
     Insert_ExceptionHandler USIC0_0_IRQHandler
 80007d8:	e7fe      	b.n	80007d8 <USIC0_0_IRQHandler>

080007da <USIC0_0_IRQHandler_Veneer>:
 80007da:	48ad      	ldr	r0, [pc, #692]	; (8000a90 <GPDMA1_0_IRQHandler_Veneer+0x166>)
 80007dc:	b500      	push	{lr}
 80007de:	b081      	sub	sp, #4
 80007e0:	4780      	blx	r0
 80007e2:	b001      	add	sp, #4
 80007e4:	bd00      	pop	{pc}

080007e6 <USIC0_1_IRQHandler>:
/* ======================================================================== */
     Insert_ExceptionHandler USIC0_1_IRQHandler
 80007e6:	e7fe      	b.n	80007e6 <USIC0_1_IRQHandler>

080007e8 <USIC0_1_IRQHandler_Veneer>:
 80007e8:	48aa      	ldr	r0, [pc, #680]	; (8000a94 <GPDMA1_0_IRQHandler_Veneer+0x16a>)
 80007ea:	b500      	push	{lr}
 80007ec:	b081      	sub	sp, #4
 80007ee:	4780      	blx	r0
 80007f0:	b001      	add	sp, #4
 80007f2:	bd00      	pop	{pc}

080007f4 <USIC0_2_IRQHandler>:
/* ======================================================================== */
     Insert_ExceptionHandler USIC0_2_IRQHandler
 80007f4:	e7fe      	b.n	80007f4 <USIC0_2_IRQHandler>

080007f6 <USIC0_2_IRQHandler_Veneer>:
 80007f6:	48a8      	ldr	r0, [pc, #672]	; (8000a98 <GPDMA1_0_IRQHandler_Veneer+0x16e>)
 80007f8:	b500      	push	{lr}
 80007fa:	b081      	sub	sp, #4
 80007fc:	4780      	blx	r0
 80007fe:	b001      	add	sp, #4
 8000800:	bd00      	pop	{pc}

08000802 <USIC0_3_IRQHandler>:
/* ======================================================================== */
     Insert_ExceptionHandler USIC0_3_IRQHandler
 8000802:	e7fe      	b.n	8000802 <USIC0_3_IRQHandler>

08000804 <USIC0_3_IRQHandler_Veneer>:
 8000804:	48a5      	ldr	r0, [pc, #660]	; (8000a9c <GPDMA1_0_IRQHandler_Veneer+0x172>)
 8000806:	b500      	push	{lr}
 8000808:	b081      	sub	sp, #4
 800080a:	4780      	blx	r0
 800080c:	b001      	add	sp, #4
 800080e:	bd00      	pop	{pc}

08000810 <USIC0_4_IRQHandler>:
/* ======================================================================== */
     Insert_ExceptionHandler USIC0_4_IRQHandler
 8000810:	e7fe      	b.n	8000810 <USIC0_4_IRQHandler>

08000812 <USIC0_4_IRQHandler_Veneer>:
 8000812:	48a3      	ldr	r0, [pc, #652]	; (8000aa0 <GPDMA1_0_IRQHandler_Veneer+0x176>)
 8000814:	b500      	push	{lr}
 8000816:	b081      	sub	sp, #4
 8000818:	4780      	blx	r0
 800081a:	b001      	add	sp, #4
 800081c:	bd00      	pop	{pc}

0800081e <USIC0_5_IRQHandler>:
/* ======================================================================== */
     Insert_ExceptionHandler USIC0_5_IRQHandler
 800081e:	e7fe      	b.n	800081e <USIC0_5_IRQHandler>

08000820 <USIC0_5_IRQHandler_Veneer>:
 8000820:	48a0      	ldr	r0, [pc, #640]	; (8000aa4 <GPDMA1_0_IRQHandler_Veneer+0x17a>)
 8000822:	b500      	push	{lr}
 8000824:	b081      	sub	sp, #4
 8000826:	4780      	blx	r0
 8000828:	b001      	add	sp, #4
 800082a:	bd00      	pop	{pc}

0800082c <USIC1_0_IRQHandler>:
/* ======================================================================== */
     Insert_ExceptionHandler USIC1_0_IRQHandler
 800082c:	e7fe      	b.n	800082c <USIC1_0_IRQHandler>

0800082e <USIC1_0_IRQHandler_Veneer>:
 800082e:	489e      	ldr	r0, [pc, #632]	; (8000aa8 <GPDMA1_0_IRQHandler_Veneer+0x17e>)
 8000830:	b500      	push	{lr}
 8000832:	b081      	sub	sp, #4
 8000834:	4780      	blx	r0
 8000836:	b001      	add	sp, #4
 8000838:	bd00      	pop	{pc}

0800083a <USIC1_1_IRQHandler>:
/* ======================================================================== */
     Insert_ExceptionHandler USIC1_1_IRQHandler
 800083a:	e7fe      	b.n	800083a <USIC1_1_IRQHandler>

0800083c <USIC1_1_IRQHandler_Veneer>:
 800083c:	489b      	ldr	r0, [pc, #620]	; (8000aac <GPDMA1_0_IRQHandler_Veneer+0x182>)
 800083e:	b500      	push	{lr}
 8000840:	b081      	sub	sp, #4
 8000842:	4780      	blx	r0
 8000844:	b001      	add	sp, #4
 8000846:	bd00      	pop	{pc}

08000848 <USIC1_2_IRQHandler>:
/* ======================================================================== */
     Insert_ExceptionHandler USIC1_2_IRQHandler
 8000848:	e7fe      	b.n	8000848 <USIC1_2_IRQHandler>

0800084a <USIC1_2_IRQHandler_Veneer>:
 800084a:	4899      	ldr	r0, [pc, #612]	; (8000ab0 <GPDMA1_0_IRQHandler_Veneer+0x186>)
 800084c:	b500      	push	{lr}
 800084e:	b081      	sub	sp, #4
 8000850:	4780      	blx	r0
 8000852:	b001      	add	sp, #4
 8000854:	bd00      	pop	{pc}

08000856 <USIC1_3_IRQHandler>:
/* ======================================================================== */
     Insert_ExceptionHandler USIC1_3_IRQHandler
 8000856:	e7fe      	b.n	8000856 <USIC1_3_IRQHandler>

08000858 <USIC1_3_IRQHandler_Veneer>:
 8000858:	4896      	ldr	r0, [pc, #600]	; (8000ab4 <GPDMA1_0_IRQHandler_Veneer+0x18a>)
 800085a:	b500      	push	{lr}
 800085c:	b081      	sub	sp, #4
 800085e:	4780      	blx	r0
 8000860:	b001      	add	sp, #4
 8000862:	bd00      	pop	{pc}

08000864 <USIC1_4_IRQHandler>:
/* ======================================================================== */
     Insert_ExceptionHandler USIC1_4_IRQHandler
 8000864:	e7fe      	b.n	8000864 <USIC1_4_IRQHandler>

08000866 <USIC1_4_IRQHandler_Veneer>:
 8000866:	4894      	ldr	r0, [pc, #592]	; (8000ab8 <GPDMA1_0_IRQHandler_Veneer+0x18e>)
 8000868:	b500      	push	{lr}
 800086a:	b081      	sub	sp, #4
 800086c:	4780      	blx	r0
 800086e:	b001      	add	sp, #4
 8000870:	bd00      	pop	{pc}

08000872 <USIC1_5_IRQHandler>:
/* ======================================================================== */
     Insert_ExceptionHandler USIC1_5_IRQHandler
 8000872:	e7fe      	b.n	8000872 <USIC1_5_IRQHandler>

08000874 <USIC1_5_IRQHandler_Veneer>:
 8000874:	4891      	ldr	r0, [pc, #580]	; (8000abc <GPDMA1_0_IRQHandler_Veneer+0x192>)
 8000876:	b500      	push	{lr}
 8000878:	b081      	sub	sp, #4
 800087a:	4780      	blx	r0
 800087c:	b001      	add	sp, #4
 800087e:	bd00      	pop	{pc}

08000880 <USIC2_0_IRQHandler>:
/* ======================================================================== */
     Insert_ExceptionHandler USIC2_0_IRQHandler
 8000880:	e7fe      	b.n	8000880 <USIC2_0_IRQHandler>

08000882 <USIC2_0_IRQHandler_Veneer>:
 8000882:	488f      	ldr	r0, [pc, #572]	; (8000ac0 <GPDMA1_0_IRQHandler_Veneer+0x196>)
 8000884:	b500      	push	{lr}
 8000886:	b081      	sub	sp, #4
 8000888:	4780      	blx	r0
 800088a:	b001      	add	sp, #4
 800088c:	bd00      	pop	{pc}

0800088e <USIC2_1_IRQHandler>:
/* ======================================================================== */
     Insert_ExceptionHandler USIC2_1_IRQHandler
 800088e:	e7fe      	b.n	800088e <USIC2_1_IRQHandler>

08000890 <USIC2_1_IRQHandler_Veneer>:
 8000890:	488c      	ldr	r0, [pc, #560]	; (8000ac4 <GPDMA1_0_IRQHandler_Veneer+0x19a>)
 8000892:	b500      	push	{lr}
 8000894:	b081      	sub	sp, #4
 8000896:	4780      	blx	r0
 8000898:	b001      	add	sp, #4
 800089a:	bd00      	pop	{pc}

0800089c <USIC2_2_IRQHandler>:
/* ======================================================================== */
     Insert_ExceptionHandler USIC2_2_IRQHandler
 800089c:	e7fe      	b.n	800089c <USIC2_2_IRQHandler>

0800089e <USIC2_2_IRQHandler_Veneer>:
 800089e:	488a      	ldr	r0, [pc, #552]	; (8000ac8 <GPDMA1_0_IRQHandler_Veneer+0x19e>)
 80008a0:	b500      	push	{lr}
 80008a2:	b081      	sub	sp, #4
 80008a4:	4780      	blx	r0
 80008a6:	b001      	add	sp, #4
 80008a8:	bd00      	pop	{pc}

080008aa <USIC2_3_IRQHandler>:
/* ======================================================================== */
     Insert_ExceptionHandler USIC2_3_IRQHandler
 80008aa:	e7fe      	b.n	80008aa <USIC2_3_IRQHandler>

080008ac <USIC2_3_IRQHandler_Veneer>:
 80008ac:	4887      	ldr	r0, [pc, #540]	; (8000acc <GPDMA1_0_IRQHandler_Veneer+0x1a2>)
 80008ae:	b500      	push	{lr}
 80008b0:	b081      	sub	sp, #4
 80008b2:	4780      	blx	r0
 80008b4:	b001      	add	sp, #4
 80008b6:	bd00      	pop	{pc}

080008b8 <USIC2_4_IRQHandler>:
/* ======================================================================== */
     Insert_ExceptionHandler USIC2_4_IRQHandler
 80008b8:	e7fe      	b.n	80008b8 <USIC2_4_IRQHandler>

080008ba <USIC2_4_IRQHandler_Veneer>:
 80008ba:	4885      	ldr	r0, [pc, #532]	; (8000ad0 <GPDMA1_0_IRQHandler_Veneer+0x1a6>)
 80008bc:	b500      	push	{lr}
 80008be:	b081      	sub	sp, #4
 80008c0:	4780      	blx	r0
 80008c2:	b001      	add	sp, #4
 80008c4:	bd00      	pop	{pc}

080008c6 <USIC2_5_IRQHandler>:
/* ======================================================================== */
     Insert_ExceptionHandler USIC2_5_IRQHandler
 80008c6:	e7fe      	b.n	80008c6 <USIC2_5_IRQHandler>

080008c8 <USIC2_5_IRQHandler_Veneer>:
 80008c8:	4882      	ldr	r0, [pc, #520]	; (8000ad4 <GPDMA1_0_IRQHandler_Veneer+0x1aa>)
 80008ca:	b500      	push	{lr}
 80008cc:	b081      	sub	sp, #4
 80008ce:	4780      	blx	r0
 80008d0:	b001      	add	sp, #4
 80008d2:	bd00      	pop	{pc}

080008d4 <LEDTS0_0_IRQHandler>:
/* ======================================================================== */
     Insert_ExceptionHandler LEDTS0_0_IRQHandler
 80008d4:	e7fe      	b.n	80008d4 <LEDTS0_0_IRQHandler>

080008d6 <LEDTS0_0_IRQHandler_Veneer>:
 80008d6:	4880      	ldr	r0, [pc, #512]	; (8000ad8 <GPDMA1_0_IRQHandler_Veneer+0x1ae>)
 80008d8:	b500      	push	{lr}
 80008da:	b081      	sub	sp, #4
 80008dc:	4780      	blx	r0
 80008de:	b001      	add	sp, #4
 80008e0:	bd00      	pop	{pc}

080008e2 <FCE0_0_IRQHandler>:
/* ======================================================================== */
     Insert_ExceptionHandler FCE0_0_IRQHandler
 80008e2:	e7fe      	b.n	80008e2 <FCE0_0_IRQHandler>

080008e4 <FCE0_0_IRQHandler_Veneer>:
 80008e4:	487d      	ldr	r0, [pc, #500]	; (8000adc <GPDMA1_0_IRQHandler_Veneer+0x1b2>)
 80008e6:	b500      	push	{lr}
 80008e8:	b081      	sub	sp, #4
 80008ea:	4780      	blx	r0
 80008ec:	b001      	add	sp, #4
 80008ee:	bd00      	pop	{pc}

080008f0 <GPDMA0_0_IRQHandler>:
/* ======================================================================== */
     Insert_ExceptionHandler GPDMA0_0_IRQHandler
 80008f0:	e7fe      	b.n	80008f0 <GPDMA0_0_IRQHandler>

080008f2 <GPDMA0_0_IRQHandler_Veneer>:
 80008f2:	487b      	ldr	r0, [pc, #492]	; (8000ae0 <GPDMA1_0_IRQHandler_Veneer+0x1b6>)
 80008f4:	b500      	push	{lr}
 80008f6:	b081      	sub	sp, #4
 80008f8:	4780      	blx	r0
 80008fa:	b001      	add	sp, #4
 80008fc:	bd00      	pop	{pc}

080008fe <SDMMC0_0_IRQHandler>:
/* ======================================================================== */
     Insert_ExceptionHandler SDMMC0_0_IRQHandler
 80008fe:	e7fe      	b.n	80008fe <SDMMC0_0_IRQHandler>

08000900 <SDMMC0_0_IRQHandler_Veneer>:
 8000900:	4878      	ldr	r0, [pc, #480]	; (8000ae4 <GPDMA1_0_IRQHandler_Veneer+0x1ba>)
 8000902:	b500      	push	{lr}
 8000904:	b081      	sub	sp, #4
 8000906:	4780      	blx	r0
 8000908:	b001      	add	sp, #4
 800090a:	bd00      	pop	{pc}

0800090c <USB0_0_IRQHandler>:
/* ======================================================================== */
     Insert_ExceptionHandler USB0_0_IRQHandler
 800090c:	e7fe      	b.n	800090c <USB0_0_IRQHandler>

0800090e <USB0_0_IRQHandler_Veneer>:
 800090e:	4876      	ldr	r0, [pc, #472]	; (8000ae8 <GPDMA1_0_IRQHandler_Veneer+0x1be>)
 8000910:	b500      	push	{lr}
 8000912:	b081      	sub	sp, #4
 8000914:	4780      	blx	r0
 8000916:	b001      	add	sp, #4
 8000918:	bd00      	pop	{pc}

0800091a <ETH0_0_IRQHandler>:
/* ======================================================================== */
     Insert_ExceptionHandler ETH0_0_IRQHandler
 800091a:	e7fe      	b.n	800091a <ETH0_0_IRQHandler>

0800091c <ETH0_0_IRQHandler_Veneer>:
 800091c:	4873      	ldr	r0, [pc, #460]	; (8000aec <GPDMA1_0_IRQHandler_Veneer+0x1c2>)
 800091e:	b500      	push	{lr}
 8000920:	b081      	sub	sp, #4
 8000922:	4780      	blx	r0
 8000924:	b001      	add	sp, #4
 8000926:	bd00      	pop	{pc}

08000928 <GPDMA1_0_IRQHandler>:
/* ======================================================================== */
     Insert_ExceptionHandler GPDMA1_0_IRQHandler
 8000928:	e7fe      	b.n	8000928 <GPDMA1_0_IRQHandler>

0800092a <GPDMA1_0_IRQHandler_Veneer>:
 800092a:	4871      	ldr	r0, [pc, #452]	; (8000af0 <GPDMA1_0_IRQHandler_Veneer+0x1c6>)
 800092c:	b500      	push	{lr}
 800092e:	b081      	sub	sp, #4
 8000930:	4780      	blx	r0
 8000932:	b001      	add	sp, #4
 8000934:	bd00      	pop	{pc}
   returns FALSE indicating that the code engine has performed the clock setup
*/   
    .weak   AllowPLLInitByStartup
    .type   AllowPLLInitByStartup, %function
AllowPLLInitByStartup:
    MOV R0,#1
 8000936:	f04f 0001 	mov.w	r0, #1
    BX LR
 800093a:	4770      	bx	lr
/* Default exception Handlers - Users may override this default functionality by
   defining handlers of the same name in their C code */
    .thumb
    .text

     Insert_ExceptionHandler NMI_Handler
 800093c:	080002c9 	.word	0x080002c9
/* ======================================================================== */
     Insert_ExceptionHandler HardFault_Handler
 8000940:	080002d9 	.word	0x080002d9
/* ======================================================================== */
     Insert_ExceptionHandler MemManage_Handler
 8000944:	080002e9 	.word	0x080002e9
/* ======================================================================== */
     Insert_ExceptionHandler BusFault_Handler
 8000948:	080002f9 	.word	0x080002f9
/* ======================================================================== */
     Insert_ExceptionHandler UsageFault_Handler
 800094c:	08000309 	.word	0x08000309
/* ======================================================================== */
     Insert_ExceptionHandler SVC_Handler
 8000950:	08000319 	.word	0x08000319
/* ======================================================================== */
     Insert_ExceptionHandler DebugMon_Handler
 8000954:	08000329 	.word	0x08000329
/* ======================================================================== */
     Insert_ExceptionHandler PendSV_Handler
 8000958:	08000339 	.word	0x08000339
/* ======================================================================== */
     Insert_ExceptionHandler SysTick_Handler
 800095c:	08000349 	.word	0x08000349
/* ============= END OF EXCEPTION HANDLER DEFINITION ======================== */

/* ============= START OF INTERRUPT HANDLER DEFINITION ====================== */

/* IRQ Handlers */
     Insert_ExceptionHandler SCU_0_IRQHandler
 8000960:	08000359 	.word	0x08000359
/* ======================================================================== */
     Insert_ExceptionHandler ERU0_0_IRQHandler
 8000964:	08000369 	.word	0x08000369
/* ======================================================================== */
     Insert_ExceptionHandler ERU0_1_IRQHandler
 8000968:	08000379 	.word	0x08000379
/* ======================================================================== */
     Insert_ExceptionHandler ERU0_2_IRQHandler
 800096c:	08000389 	.word	0x08000389
/* ======================================================================== */
     Insert_ExceptionHandler ERU0_3_IRQHandler
 8000970:	08000399 	.word	0x08000399
/* ======================================================================== */
     Insert_ExceptionHandler ERU1_0_IRQHandler
 8000974:	080003a9 	.word	0x080003a9
/* ======================================================================== */
     Insert_ExceptionHandler ERU1_1_IRQHandler
 8000978:	080003b9 	.word	0x080003b9
/* ======================================================================== */
     Insert_ExceptionHandler ERU1_2_IRQHandler
 800097c:	080003c9 	.word	0x080003c9
/* ======================================================================== */
     Insert_ExceptionHandler ERU1_3_IRQHandler
 8000980:	080003d9 	.word	0x080003d9
/* ======================================================================== */
     Insert_ExceptionHandler PMU0_0_IRQHandler
 8000984:	080003e9 	.word	0x080003e9
/* ======================================================================== */
     Insert_ExceptionHandler VADC0_C0_0_IRQHandler
 8000988:	080003f9 	.word	0x080003f9
/* ======================================================================== */
     Insert_ExceptionHandler VADC0_C0_1_IRQHandler
 800098c:	08000409 	.word	0x08000409
/* ======================================================================== */
     Insert_ExceptionHandler VADC0_C0_2_IRQHandler
 8000990:	08000419 	.word	0x08000419
/* ======================================================================== */
     Insert_ExceptionHandler VADC0_C0_3_IRQHandler
 8000994:	08000429 	.word	0x08000429
/* ======================================================================== */
     Insert_ExceptionHandler VADC0_G0_0_IRQHandler
 8000998:	08000439 	.word	0x08000439
/* ======================================================================== */
     Insert_ExceptionHandler VADC0_G0_1_IRQHandler
 800099c:	08000449 	.word	0x08000449
/* ======================================================================== */
     Insert_ExceptionHandler VADC0_G0_2_IRQHandler
 80009a0:	08000459 	.word	0x08000459
/* ======================================================================== */
     Insert_ExceptionHandler VADC0_G0_3_IRQHandler
 80009a4:	08000469 	.word	0x08000469
/* ======================================================================== */
     Insert_ExceptionHandler VADC0_G1_0_IRQHandler
 80009a8:	08000479 	.word	0x08000479
/* ======================================================================== */
     Insert_ExceptionHandler VADC0_G1_1_IRQHandler
 80009ac:	08000489 	.word	0x08000489
/* ======================================================================== */
     Insert_ExceptionHandler VADC0_G1_2_IRQHandler
 80009b0:	08000499 	.word	0x08000499
/* ======================================================================== */
     Insert_ExceptionHandler VADC0_G1_3_IRQHandler
 80009b4:	080004a9 	.word	0x080004a9
/* ======================================================================== */
     Insert_ExceptionHandler VADC0_G2_0_IRQHandler
 80009b8:	080004b9 	.word	0x080004b9
/* ======================================================================== */
     Insert_ExceptionHandler VADC0_G2_1_IRQHandler
 80009bc:	080004c9 	.word	0x080004c9
/* ======================================================================== */
     Insert_ExceptionHandler VADC0_G2_2_IRQHandler
 80009c0:	080004d9 	.word	0x080004d9
/* ======================================================================== */
     Insert_ExceptionHandler VADC0_G2_3_IRQHandler
 80009c4:	080004e9 	.word	0x080004e9
/* ======================================================================== */
     Insert_ExceptionHandler VADC0_G3_0_IRQHandler
 80009c8:	080004f9 	.word	0x080004f9
/* ======================================================================== */
     Insert_ExceptionHandler VADC0_G3_1_IRQHandler
 80009cc:	08000509 	.word	0x08000509
/* ======================================================================== */
     Insert_ExceptionHandler VADC0_G3_2_IRQHandler
 80009d0:	08000519 	.word	0x08000519
/* ======================================================================== */
     Insert_ExceptionHandler VADC0_G3_3_IRQHandler
 80009d4:	08000529 	.word	0x08000529
/* ======================================================================== */
     Insert_ExceptionHandler DSD0_0_IRQHandler
 80009d8:	08000539 	.word	0x08000539
/* ======================================================================== */
     Insert_ExceptionHandler DSD0_1_IRQHandler
 80009dc:	08000549 	.word	0x08000549
/* ======================================================================== */
     Insert_ExceptionHandler DSD0_2_IRQHandler
 80009e0:	08000559 	.word	0x08000559
/* ======================================================================== */
     Insert_ExceptionHandler DSD0_3_IRQHandler
 80009e4:	08000569 	.word	0x08000569
/* ======================================================================== */
     Insert_ExceptionHandler DSD0_4_IRQHandler
 80009e8:	08000579 	.word	0x08000579
/* ======================================================================== */
     Insert_ExceptionHandler DSD0_5_IRQHandler
 80009ec:	08000589 	.word	0x08000589
/* ======================================================================== */
     Insert_ExceptionHandler DSD0_6_IRQHandler
 80009f0:	08000599 	.word	0x08000599
/* ======================================================================== */
     Insert_ExceptionHandler DSD0_7_IRQHandler
 80009f4:	080005a9 	.word	0x080005a9
/* ======================================================================== */
     Insert_ExceptionHandler DAC0_0_IRQHandler
 80009f8:	080005b9 	.word	0x080005b9
/* ======================================================================== */
     Insert_ExceptionHandler DAC0_1_IRQHandler
 80009fc:	080005c9 	.word	0x080005c9
/* ======================================================================== */
     Insert_ExceptionHandler CCU40_0_IRQHandler
 8000a00:	080005d9 	.word	0x080005d9
/* ======================================================================== */
     Insert_ExceptionHandler CCU40_1_IRQHandler
 8000a04:	080005e9 	.word	0x080005e9
/* ======================================================================== */
     Insert_ExceptionHandler CCU40_2_IRQHandler
 8000a08:	080005f9 	.word	0x080005f9
/* ======================================================================== */
     Insert_ExceptionHandler CCU40_3_IRQHandler
 8000a0c:	08000609 	.word	0x08000609
/* ======================================================================== */
     Insert_ExceptionHandler CCU41_0_IRQHandler
 8000a10:	08000619 	.word	0x08000619
/* ======================================================================== */
     Insert_ExceptionHandler CCU41_1_IRQHandler
 8000a14:	08000627 	.word	0x08000627
/* ======================================================================== */
     Insert_ExceptionHandler CCU41_2_IRQHandler
 8000a18:	08000635 	.word	0x08000635
/* ======================================================================== */
     Insert_ExceptionHandler CCU41_3_IRQHandler
 8000a1c:	08000643 	.word	0x08000643
/* ======================================================================== */
     Insert_ExceptionHandler CCU42_0_IRQHandler
 8000a20:	08000651 	.word	0x08000651
/* ======================================================================== */
     Insert_ExceptionHandler CCU42_1_IRQHandler
 8000a24:	0800065f 	.word	0x0800065f
/* ======================================================================== */
     Insert_ExceptionHandler CCU42_2_IRQHandler
 8000a28:	0800066d 	.word	0x0800066d
/* ======================================================================== */
     Insert_ExceptionHandler CCU42_3_IRQHandler
 8000a2c:	0800067b 	.word	0x0800067b
/* ======================================================================== */
     Insert_ExceptionHandler CCU43_0_IRQHandler
 8000a30:	08000689 	.word	0x08000689
/* ======================================================================== */
     Insert_ExceptionHandler CCU43_1_IRQHandler
 8000a34:	08000697 	.word	0x08000697
/* ======================================================================== */
     Insert_ExceptionHandler CCU43_2_IRQHandler
 8000a38:	080006a5 	.word	0x080006a5
/* ======================================================================== */
     Insert_ExceptionHandler CCU43_3_IRQHandler
 8000a3c:	080006b3 	.word	0x080006b3
/* ======================================================================== */
     Insert_ExceptionHandler CCU80_0_IRQHandler
 8000a40:	080006c1 	.word	0x080006c1
/* ======================================================================== */
     Insert_ExceptionHandler CCU80_1_IRQHandler
 8000a44:	080006cf 	.word	0x080006cf
/* ======================================================================== */
     Insert_ExceptionHandler CCU80_2_IRQHandler
 8000a48:	080006dd 	.word	0x080006dd
/* ======================================================================== */
     Insert_ExceptionHandler CCU80_3_IRQHandler
 8000a4c:	080006eb 	.word	0x080006eb
/* ======================================================================== */
     Insert_ExceptionHandler CCU81_0_IRQHandler
 8000a50:	080006f9 	.word	0x080006f9
/* ======================================================================== */
     Insert_ExceptionHandler CCU81_1_IRQHandler
 8000a54:	08000707 	.word	0x08000707
/* ======================================================================== */
     Insert_ExceptionHandler CCU81_2_IRQHandler
 8000a58:	08000715 	.word	0x08000715
/* ======================================================================== */
     Insert_ExceptionHandler CCU81_3_IRQHandler
 8000a5c:	08000723 	.word	0x08000723
/* ======================================================================== */
     Insert_ExceptionHandler POSIF0_0_IRQHandler
 8000a60:	08000731 	.word	0x08000731
/* ======================================================================== */
     Insert_ExceptionHandler POSIF0_1_IRQHandler
 8000a64:	0800073f 	.word	0x0800073f
/* ======================================================================== */
     Insert_ExceptionHandler POSIF1_0_IRQHandler
 8000a68:	0800074d 	.word	0x0800074d
/* ======================================================================== */
     Insert_ExceptionHandler POSIF1_1_IRQHandler
 8000a6c:	0800075b 	.word	0x0800075b
/* ======================================================================== */
     Insert_ExceptionHandler CAN0_0_IRQHandler
 8000a70:	08000769 	.word	0x08000769
/* ======================================================================== */
     Insert_ExceptionHandler CAN0_1_IRQHandler
 8000a74:	08000777 	.word	0x08000777
/* ======================================================================== */
     Insert_ExceptionHandler CAN0_2_IRQHandler
 8000a78:	08000785 	.word	0x08000785
/* ======================================================================== */
     Insert_ExceptionHandler CAN0_3_IRQHandler
 8000a7c:	08000793 	.word	0x08000793
/* ======================================================================== */
     Insert_ExceptionHandler CAN0_4_IRQHandler
 8000a80:	080007a1 	.word	0x080007a1
/* ======================================================================== */
     Insert_ExceptionHandler CAN0_5_IRQHandler
 8000a84:	080007af 	.word	0x080007af
/* ======================================================================== */
     Insert_ExceptionHandler CAN0_6_IRQHandler
 8000a88:	080007bd 	.word	0x080007bd
/* ======================================================================== */
     Insert_ExceptionHandler CAN0_7_IRQHandler
 8000a8c:	080007cb 	.word	0x080007cb
/* ======================================================================== */
     Insert_ExceptionHandler USIC0_0_IRQHandler
 8000a90:	080007d9 	.word	0x080007d9
/* ======================================================================== */
     Insert_ExceptionHandler USIC0_1_IRQHandler
 8000a94:	080007e7 	.word	0x080007e7
/* ======================================================================== */
     Insert_ExceptionHandler USIC0_2_IRQHandler
 8000a98:	080007f5 	.word	0x080007f5
/* ======================================================================== */
     Insert_ExceptionHandler USIC0_3_IRQHandler
 8000a9c:	08000803 	.word	0x08000803
/* ======================================================================== */
     Insert_ExceptionHandler USIC0_4_IRQHandler
 8000aa0:	08000811 	.word	0x08000811
/* ======================================================================== */
     Insert_ExceptionHandler USIC0_5_IRQHandler
 8000aa4:	0800081f 	.word	0x0800081f
/* ======================================================================== */
     Insert_ExceptionHandler USIC1_0_IRQHandler
 8000aa8:	0800082d 	.word	0x0800082d
/* ======================================================================== */
     Insert_ExceptionHandler USIC1_1_IRQHandler
 8000aac:	0800083b 	.word	0x0800083b
/* ======================================================================== */
     Insert_ExceptionHandler USIC1_2_IRQHandler
 8000ab0:	08000849 	.word	0x08000849
/* ======================================================================== */
     Insert_ExceptionHandler USIC1_3_IRQHandler
 8000ab4:	08000857 	.word	0x08000857
/* ======================================================================== */
     Insert_ExceptionHandler USIC1_4_IRQHandler
 8000ab8:	08000865 	.word	0x08000865
/* ======================================================================== */
     Insert_ExceptionHandler USIC1_5_IRQHandler
 8000abc:	08000873 	.word	0x08000873
/* ======================================================================== */
     Insert_ExceptionHandler USIC2_0_IRQHandler
 8000ac0:	08000881 	.word	0x08000881
/* ======================================================================== */
     Insert_ExceptionHandler USIC2_1_IRQHandler
 8000ac4:	0800088f 	.word	0x0800088f
/* ======================================================================== */
     Insert_ExceptionHandler USIC2_2_IRQHandler
 8000ac8:	0800089d 	.word	0x0800089d
/* ======================================================================== */
     Insert_ExceptionHandler USIC2_3_IRQHandler
 8000acc:	080008ab 	.word	0x080008ab
/* ======================================================================== */
     Insert_ExceptionHandler USIC2_4_IRQHandler
 8000ad0:	080008b9 	.word	0x080008b9
/* ======================================================================== */
     Insert_ExceptionHandler USIC2_5_IRQHandler
 8000ad4:	080008c7 	.word	0x080008c7
/* ======================================================================== */
     Insert_ExceptionHandler LEDTS0_0_IRQHandler
 8000ad8:	080008d5 	.word	0x080008d5
/* ======================================================================== */
     Insert_ExceptionHandler FCE0_0_IRQHandler
 8000adc:	080008e3 	.word	0x080008e3
/* ======================================================================== */
     Insert_ExceptionHandler GPDMA0_0_IRQHandler
 8000ae0:	080008f1 	.word	0x080008f1
/* ======================================================================== */
     Insert_ExceptionHandler SDMMC0_0_IRQHandler
 8000ae4:	080008ff 	.word	0x080008ff
/* ======================================================================== */
     Insert_ExceptionHandler USB0_0_IRQHandler
 8000ae8:	0800090d 	.word	0x0800090d
/* ======================================================================== */
     Insert_ExceptionHandler ETH0_0_IRQHandler
 8000aec:	0800091b 	.word	0x0800091b
/* ======================================================================== */
     Insert_ExceptionHandler GPDMA1_0_IRQHandler
 8000af0:	08000929 	.word	0x08000929

08000af4 <SystemInit>:
  *         SystemCoreClock variable.
  * @param  None
  * @retval None
  */
void SystemInit(void)
{
 8000af4:	b580      	push	{r7, lr}
 8000af6:	b082      	sub	sp, #8
 8000af8:	af00      	add	r7, sp, #0
int temp;
	
#if (__FPU_PRESENT == 1) && (__FPU_USED == 1)
SCB->CPACR |= ((3UL << 10*2) |                 /* set CP10 Full Access */
 8000afa:	f44f 436d 	mov.w	r3, #60672	; 0xed00
 8000afe:	f2ce 0300 	movt	r3, #57344	; 0xe000
 8000b02:	f44f 426d 	mov.w	r2, #60672	; 0xed00
 8000b06:	f2ce 0200 	movt	r2, #57344	; 0xe000
 8000b0a:	f8d2 2088 	ldr.w	r2, [r2, #136]	; 0x88
 8000b0e:	f442 0270 	orr.w	r2, r2, #15728640	; 0xf00000
 8000b12:	f8c3 2088 	str.w	r2, [r3, #136]	; 0x88
               (3UL << 11*2)  );               /* set CP11 Full Access */
#endif

/* Enable unaligned memory access - SCB_CCR.UNALIGN_TRP = 0 */
SCB->CCR &= ~(SCB_CCR_UNALIGN_TRP_Msk);
 8000b16:	f44f 436d 	mov.w	r3, #60672	; 0xed00
 8000b1a:	f2ce 0300 	movt	r3, #57344	; 0xe000
 8000b1e:	f44f 426d 	mov.w	r2, #60672	; 0xed00
 8000b22:	f2ce 0200 	movt	r2, #57344	; 0xe000
 8000b26:	6952      	ldr	r2, [r2, #20]
 8000b28:	f022 0208 	bic.w	r2, r2, #8
 8000b2c:	615a      	str	r2, [r3, #20]
	
/* Setup the WDT */
#if WDT_SETUP

WDT->CTR &= ~WDTENB_nVal; 
 8000b2e:	f44f 4300 	mov.w	r3, #32768	; 0x8000
 8000b32:	f2c5 0300 	movt	r3, #20480	; 0x5000
 8000b36:	f44f 4200 	mov.w	r2, #32768	; 0x8000
 8000b3a:	f2c5 0200 	movt	r2, #20480	; 0x5000
 8000b3e:	6852      	ldr	r2, [r2, #4]
 8000b40:	f022 0201 	bic.w	r2, r2, #1
 8000b44:	605a      	str	r2, [r3, #4]

#endif

/* Setup the Flash Wait State */
#if PMU_FLASH
temp = FLASH0->FCON; 
 8000b46:	f44f 5380 	mov.w	r3, #4096	; 0x1000
 8000b4a:	f6c5 0300 	movt	r3, #22528	; 0x5800
 8000b4e:	f503 5380 	add.w	r3, r3, #4096	; 0x1000
 8000b52:	f103 0314 	add.w	r3, r3, #20
 8000b56:	681b      	ldr	r3, [r3, #0]
 8000b58:	607b      	str	r3, [r7, #4]
temp &= ~FLASH_FCON_WSPFLASH_Msk;
 8000b5a:	687b      	ldr	r3, [r7, #4]
 8000b5c:	f023 030f 	bic.w	r3, r3, #15
 8000b60:	607b      	str	r3, [r7, #4]
temp |= PMU_FLASH_WS+3;
 8000b62:	687b      	ldr	r3, [r7, #4]
 8000b64:	f043 0303 	orr.w	r3, r3, #3
 8000b68:	607b      	str	r3, [r7, #4]
FLASH0->FCON = temp;
 8000b6a:	f44f 5380 	mov.w	r3, #4096	; 0x1000
 8000b6e:	f6c5 0300 	movt	r3, #22528	; 0x5800
 8000b72:	687a      	ldr	r2, [r7, #4]
 8000b74:	f503 5380 	add.w	r3, r3, #4096	; 0x1000
 8000b78:	f103 0314 	add.w	r3, r3, #20
 8000b7c:	601a      	str	r2, [r3, #0]
#endif


/* Setup the System clock */ 
#if SCU_CLOCK_SETUP
SystemClockSetup();
 8000b7e:	f000 f8ab 	bl	8000cd8 <SystemClockSetup>
#endif

/*----------------------------------------------------------------------------
  Clock Variable definitions
 *----------------------------------------------------------------------------*/
SystemCoreClockUpdate();/*!< System Clock Frequency (Core Clock)*/
 8000b82:	f000 f805 	bl	8000b90 <SystemCoreClockUpdate>
USBClockSetup();
#endif



}
 8000b86:	f107 0708 	add.w	r7, r7, #8
 8000b8a:	46bd      	mov	sp, r7
 8000b8c:	bd80      	pop	{r7, pc}
 8000b8e:	bf00      	nop

08000b90 <SystemCoreClockUpdate>:
  * @note   -  
  * @param  None
  * @retval None
  */
void SystemCoreClockUpdate(void)
{
 8000b90:	b480      	push	{r7}
 8000b92:	b085      	sub	sp, #20
 8000b94:	af00      	add	r7, sp, #0


/*----------------------------------------------------------------------------
  Clock Variable definitions
 *----------------------------------------------------------------------------*/
if (SCU_CLK->SYSCLKCR ==  0x00010000)
 8000b96:	f44f 438c 	mov.w	r3, #17920	; 0x4600
 8000b9a:	f2c5 0300 	movt	r3, #20480	; 0x5000
 8000b9e:	68db      	ldr	r3, [r3, #12]
 8000ba0:	f5b3 3f80 	cmp.w	r3, #65536	; 0x10000
 8000ba4:	f040 8089 	bne.w	8000cba <SystemCoreClockUpdate+0x12a>
{
	if (SCU_PLL->PLLSTAT & SCU_PLL_PLLSTAT_VCOLOCK_Msk){
 8000ba8:	f244 7310 	movw	r3, #18192	; 0x4710
 8000bac:	f2c5 0300 	movt	r3, #20480	; 0x5000
 8000bb0:	681b      	ldr	r3, [r3, #0]
 8000bb2:	f003 0304 	and.w	r3, r3, #4
 8000bb6:	2b00      	cmp	r3, #0
 8000bb8:	f000 8088 	beq.w	8000ccc <SystemCoreClockUpdate+0x13c>
		/* check if PLL is locked */
		/* read back divider settings */
		 PDIV = ((SCU_PLL->PLLCON1 & SCU_PLL_PLLCON1_PDIV_Msk)>>24)+1;
 8000bbc:	f244 7310 	movw	r3, #18192	; 0x4710
 8000bc0:	f2c5 0300 	movt	r3, #20480	; 0x5000
 8000bc4:	689b      	ldr	r3, [r3, #8]
 8000bc6:	f003 6370 	and.w	r3, r3, #251658240	; 0xf000000
 8000bca:	ea4f 6313 	mov.w	r3, r3, lsr #24
 8000bce:	f103 0301 	add.w	r3, r3, #1
 8000bd2:	60fb      	str	r3, [r7, #12]
		 NDIV = ((SCU_PLL->PLLCON1 & SCU_PLL_PLLCON1_NDIV_Msk)>>8)+1;
 8000bd4:	f244 7310 	movw	r3, #18192	; 0x4710
 8000bd8:	f2c5 0300 	movt	r3, #20480	; 0x5000
 8000bdc:	689b      	ldr	r3, [r3, #8]
 8000bde:	f403 43fe 	and.w	r3, r3, #32512	; 0x7f00
 8000be2:	ea4f 2313 	mov.w	r3, r3, lsr #8
 8000be6:	f103 0301 	add.w	r3, r3, #1
 8000bea:	60bb      	str	r3, [r7, #8]
		 K2DIV  = ((SCU_PLL->PLLCON1 & SCU_PLL_PLLCON1_K2DIV_Msk)>>16)+1;
 8000bec:	f244 7310 	movw	r3, #18192	; 0x4710
 8000bf0:	f2c5 0300 	movt	r3, #20480	; 0x5000
 8000bf4:	689b      	ldr	r3, [r3, #8]
 8000bf6:	f403 03fe 	and.w	r3, r3, #8323072	; 0x7f0000
 8000bfa:	ea4f 4313 	mov.w	r3, r3, lsr #16
 8000bfe:	f103 0301 	add.w	r3, r3, #1
 8000c02:	607b      	str	r3, [r7, #4]

		if(SCU_PLL->PLLCON2 & SCU_PLL_PLLCON2_PINSEL_Msk){
 8000c04:	f244 7310 	movw	r3, #18192	; 0x4710
 8000c08:	f2c5 0300 	movt	r3, #20480	; 0x5000
 8000c0c:	68db      	ldr	r3, [r3, #12]
 8000c0e:	f003 0301 	and.w	r3, r3, #1
 8000c12:	2b00      	cmp	r3, #0
 8000c14:	d028      	beq.n	8000c68 <SystemCoreClockUpdate+0xd8>
		/* the selected clock is the Backup clock fofi */
		VCO = (CLOCK_BACK_UP/PDIV)*NDIV;
 8000c16:	f44f 5358 	mov.w	r3, #13824	; 0x3600
 8000c1a:	f2c0 136e 	movt	r3, #366	; 0x16e
 8000c1e:	68fa      	ldr	r2, [r7, #12]
 8000c20:	fbb3 f3f2 	udiv	r3, r3, r2
 8000c24:	68ba      	ldr	r2, [r7, #8]
 8000c26:	fb02 f303 	mul.w	r3, r2, r3
 8000c2a:	603b      	str	r3, [r7, #0]
		SystemCoreClock = VCO/K2DIV;
 8000c2c:	683a      	ldr	r2, [r7, #0]
 8000c2e:	687b      	ldr	r3, [r7, #4]
 8000c30:	fbb2 f2f3 	udiv	r2, r2, r3
 8000c34:	f240 0300 	movw	r3, #0
 8000c38:	f2c2 0300 	movt	r3, #8192	; 0x2000
 8000c3c:	601a      	str	r2, [r3, #0]
		/* in case the sysclock div is used */
		SystemCoreClock = SystemCoreClock/((SCU_CLK->SYSCLKCR & SCU_CLK_SYSCLKCR_SYSDIV_Msk)+1);
 8000c3e:	f240 0300 	movw	r3, #0
 8000c42:	f2c2 0300 	movt	r3, #8192	; 0x2000
 8000c46:	681a      	ldr	r2, [r3, #0]
 8000c48:	f44f 438c 	mov.w	r3, #17920	; 0x4600
 8000c4c:	f2c5 0300 	movt	r3, #20480	; 0x5000
 8000c50:	68db      	ldr	r3, [r3, #12]
 8000c52:	b2db      	uxtb	r3, r3
 8000c54:	f103 0301 	add.w	r3, r3, #1
 8000c58:	fbb2 f2f3 	udiv	r2, r2, r3
 8000c5c:	f240 0300 	movw	r3, #0
 8000c60:	f2c2 0300 	movt	r3, #8192	; 0x2000
 8000c64:	601a      	str	r2, [r3, #0]
 8000c66:	e031      	b.n	8000ccc <SystemCoreClockUpdate+0x13c>
		
		}
		else
		{
		/* the selected clock is the PLL external oscillator */		
		VCO = (CLOCK_CRYSTAL_FREQUENCY/PDIV)*NDIV;
 8000c68:	f44f 53d8 	mov.w	r3, #6912	; 0x1b00
 8000c6c:	f2c0 03b7 	movt	r3, #183	; 0xb7
 8000c70:	68fa      	ldr	r2, [r7, #12]
 8000c72:	fbb3 f3f2 	udiv	r3, r3, r2
 8000c76:	68ba      	ldr	r2, [r7, #8]
 8000c78:	fb02 f303 	mul.w	r3, r2, r3
 8000c7c:	603b      	str	r3, [r7, #0]
		SystemCoreClock = VCO/K2DIV;
 8000c7e:	683a      	ldr	r2, [r7, #0]
 8000c80:	687b      	ldr	r3, [r7, #4]
 8000c82:	fbb2 f2f3 	udiv	r2, r2, r3
 8000c86:	f240 0300 	movw	r3, #0
 8000c8a:	f2c2 0300 	movt	r3, #8192	; 0x2000
 8000c8e:	601a      	str	r2, [r3, #0]
		/* in case the sysclock div is used */
		SystemCoreClock = SystemCoreClock/((SCU_CLK->SYSCLKCR & SCU_CLK_SYSCLKCR_SYSDIV_Msk)+1);
 8000c90:	f240 0300 	movw	r3, #0
 8000c94:	f2c2 0300 	movt	r3, #8192	; 0x2000
 8000c98:	681a      	ldr	r2, [r3, #0]
 8000c9a:	f44f 438c 	mov.w	r3, #17920	; 0x4600
 8000c9e:	f2c5 0300 	movt	r3, #20480	; 0x5000
 8000ca2:	68db      	ldr	r3, [r3, #12]
 8000ca4:	b2db      	uxtb	r3, r3
 8000ca6:	f103 0301 	add.w	r3, r3, #1
 8000caa:	fbb2 f2f3 	udiv	r2, r2, r3
 8000cae:	f240 0300 	movw	r3, #0
 8000cb2:	f2c2 0300 	movt	r3, #8192	; 0x2000
 8000cb6:	601a      	str	r2, [r3, #0]
 8000cb8:	e008      	b.n	8000ccc <SystemCoreClockUpdate+0x13c>
	
	}
}
else
{
SystemCoreClock = CLOCK_BACK_UP;
 8000cba:	f240 0300 	movw	r3, #0
 8000cbe:	f2c2 0300 	movt	r3, #8192	; 0x2000
 8000cc2:	f44f 5258 	mov.w	r2, #13824	; 0x3600
 8000cc6:	f2c0 126e 	movt	r2, #366	; 0x16e
 8000cca:	601a      	str	r2, [r3, #0]
}


}
 8000ccc:	f107 0714 	add.w	r7, r7, #20
 8000cd0:	46bd      	mov	sp, r7
 8000cd2:	bc80      	pop	{r7}
 8000cd4:	4770      	bx	lr
 8000cd6:	bf00      	nop

08000cd8 <SystemClockSetup>:
  * @param  None
  * @retval None
  */
#if (SCU_CLOCK_SETUP == 1)
static int SystemClockSetup(void)
{
 8000cd8:	b580      	push	{r7, lr}
 8000cda:	b082      	sub	sp, #8
 8000cdc:	af00      	add	r7, sp, #0
int temp;
unsigned int long VCO;
int stepping_K2DIV;	

/* this weak function enables DAVE3 clock App usage */	
if(AllowPLLInitByStartup()){
 8000cde:	f003 fad1 	bl	8004284 <AllowPLLInitByStartup>
 8000ce2:	4603      	mov	r3, r0
 8000ce4:	2b00      	cmp	r3, #0
 8000ce6:	f000 8255 	beq.w	8001194 <SystemClockSetup+0x4bc>
	
/* check if PLL is switched on */
if ((SCU_PLL->PLLCON0 &(SCU_PLL_PLLCON0_VCOPWD_Msk | SCU_PLL_PLLCON0_PLLPWD_Msk)) != 0){
 8000cea:	f244 7310 	movw	r3, #18192	; 0x4710
 8000cee:	f2c5 0300 	movt	r3, #20480	; 0x5000
 8000cf2:	685a      	ldr	r2, [r3, #4]
 8000cf4:	f04f 0302 	mov.w	r3, #2
 8000cf8:	f2c0 0301 	movt	r3, #1
 8000cfc:	4013      	ands	r3, r2
 8000cfe:	2b00      	cmp	r3, #0
 8000d00:	d00d      	beq.n	8000d1e <SystemClockSetup+0x46>
/* enable PLL first */
  SCU_PLL->PLLCON0 &= ~(SCU_PLL_PLLCON0_VCOPWD_Msk | SCU_PLL_PLLCON0_PLLPWD_Msk);
 8000d02:	f244 7310 	movw	r3, #18192	; 0x4710
 8000d06:	f2c5 0300 	movt	r3, #20480	; 0x5000
 8000d0a:	f244 7210 	movw	r2, #18192	; 0x4710
 8000d0e:	f2c5 0200 	movt	r2, #20480	; 0x5000
 8000d12:	6852      	ldr	r2, [r2, #4]
 8000d14:	f422 3280 	bic.w	r2, r2, #65536	; 0x10000
 8000d18:	f022 0202 	bic.w	r2, r2, #2
 8000d1c:	605a      	str	r2, [r3, #4]
  {
	/********************************************************************************************************************/
	/*   Use external crystal for PLL clock input                                                                            */
	/********************************************************************************************************************/

   if (SCU_OSC->OSCHPCTRL & SCU_OSC_OSCHPCTRL_MODE_Msk){
 8000d1e:	f44f 438e 	mov.w	r3, #18176	; 0x4700
 8000d22:	f2c5 0300 	movt	r3, #20480	; 0x5000
 8000d26:	685b      	ldr	r3, [r3, #4]
 8000d28:	f003 0330 	and.w	r3, r3, #48	; 0x30
 8000d2c:	2b00      	cmp	r3, #0
 8000d2e:	d072      	beq.n	8000e16 <SystemClockSetup+0x13e>
	   SCU_OSC->OSCHPCTRL &= ~(SCU_OSC_HP_MODE);	 /*enable the OSC_HP*/
 8000d30:	f44f 438e 	mov.w	r3, #18176	; 0x4700
 8000d34:	f2c5 0300 	movt	r3, #20480	; 0x5000
 8000d38:	f44f 428e 	mov.w	r2, #18176	; 0x4700
 8000d3c:	f2c5 0200 	movt	r2, #20480	; 0x5000
 8000d40:	6852      	ldr	r2, [r2, #4]
 8000d42:	f022 02f0 	bic.w	r2, r2, #240	; 0xf0
 8000d46:	605a      	str	r2, [r3, #4]
	   /* setup OSC WDG devider */
	   SCU_OSC->OSCHPCTRL |= (SCU_OSCHPWDGDIV<<16);         
 8000d48:	f44f 438e 	mov.w	r3, #18176	; 0x4700
 8000d4c:	f2c5 0300 	movt	r3, #20480	; 0x5000
 8000d50:	f44f 428e 	mov.w	r2, #18176	; 0x4700
 8000d54:	f2c5 0200 	movt	r2, #20480	; 0x5000
 8000d58:	6852      	ldr	r2, [r2, #4]
 8000d5a:	f442 3200 	orr.w	r2, r2, #131072	; 0x20000
 8000d5e:	605a      	str	r2, [r3, #4]
	   /* select external OSC as PLL input */
	   SCU_PLL->PLLCON2 &= ~SCU_PLL_PLLCON2_PINSEL_Msk;
 8000d60:	f244 7310 	movw	r3, #18192	; 0x4710
 8000d64:	f2c5 0300 	movt	r3, #20480	; 0x5000
 8000d68:	f244 7210 	movw	r2, #18192	; 0x4710
 8000d6c:	f2c5 0200 	movt	r2, #20480	; 0x5000
 8000d70:	68d2      	ldr	r2, [r2, #12]
 8000d72:	f022 0201 	bic.w	r2, r2, #1
 8000d76:	60da      	str	r2, [r3, #12]
	   /* restart OSC Watchdog */
	   SCU_PLL->PLLCON0 &= ~SCU_PLL_PLLCON0_OSCRES_Msk;  
 8000d78:	f244 7310 	movw	r3, #18192	; 0x4710
 8000d7c:	f2c5 0300 	movt	r3, #20480	; 0x5000
 8000d80:	f244 7210 	movw	r2, #18192	; 0x4710
 8000d84:	f2c5 0200 	movt	r2, #20480	; 0x5000
 8000d88:	6852      	ldr	r2, [r2, #4]
 8000d8a:	f422 3200 	bic.w	r2, r2, #131072	; 0x20000
 8000d8e:	605a      	str	r2, [r3, #4]

       /* Timeout for wait loop ~150ms */
	   /********************************/
	   SysTick->LOAD  = ((5000000+100) & SysTick_LOAD_RELOAD_Msk) - 1;/* set reload register */
 8000d90:	f24e 0310 	movw	r3, #57360	; 0xe010
 8000d94:	f2ce 0300 	movt	r3, #57344	; 0xe000
 8000d98:	f644 32a3 	movw	r2, #19363	; 0x4ba3
 8000d9c:	f2c0 024c 	movt	r2, #76	; 0x4c
 8000da0:	605a      	str	r2, [r3, #4]
	   SysTick->VAL   = 0;                                         /* Load the SysTick Counter Value */
 8000da2:	f24e 0310 	movw	r3, #57360	; 0xe010
 8000da6:	f2ce 0300 	movt	r3, #57344	; 0xe000
 8000daa:	f04f 0200 	mov.w	r2, #0
 8000dae:	609a      	str	r2, [r3, #8]
	   SysTick->CTRL  = SysTick_CTRL_CLKSOURCE_Msk |
 8000db0:	f24e 0310 	movw	r3, #57360	; 0xe010
 8000db4:	f2ce 0300 	movt	r3, #57344	; 0xe000
 8000db8:	f04f 0205 	mov.w	r2, #5
 8000dbc:	601a      	str	r2, [r3, #0]
	                   SysTick_CTRL_ENABLE_Msk;                    /* Enable SysTick IRQ and SysTick Timer */		  
	   do 
	   {
       ;/* wait for ~150ms  */
	   }while((((SCU_PLL->PLLSTAT) & (SCU_PLL_PLLSTAT_PLLHV_Msk | SCU_PLL_PLLSTAT_PLLLV_Msk |SCU_PLL_PLLSTAT_PLLSP_Msk)) != 0x380)&&(SysTick->VAL >= 500)); 
 8000dbe:	f244 7310 	movw	r3, #18192	; 0x4710
 8000dc2:	f2c5 0300 	movt	r3, #20480	; 0x5000
 8000dc6:	681b      	ldr	r3, [r3, #0]
 8000dc8:	f403 7360 	and.w	r3, r3, #896	; 0x380
 8000dcc:	f5b3 7f60 	cmp.w	r3, #896	; 0x380
 8000dd0:	d008      	beq.n	8000de4 <SystemClockSetup+0x10c>
 8000dd2:	f24e 0310 	movw	r3, #57360	; 0xe010
 8000dd6:	f2ce 0300 	movt	r3, #57344	; 0xe000
 8000dda:	689a      	ldr	r2, [r3, #8]
 8000ddc:	f240 13f3 	movw	r3, #499	; 0x1f3
 8000de0:	429a      	cmp	r2, r3
 8000de2:	d8ec      	bhi.n	8000dbe <SystemClockSetup+0xe6>

	   SysTick->CTRL  &= ~SysTick_CTRL_ENABLE_Msk;                 /* Stop SysTick Timer */
 8000de4:	f24e 0310 	movw	r3, #57360	; 0xe010
 8000de8:	f2ce 0300 	movt	r3, #57344	; 0xe000
 8000dec:	f24e 0210 	movw	r2, #57360	; 0xe010
 8000df0:	f2ce 0200 	movt	r2, #57344	; 0xe000
 8000df4:	6812      	ldr	r2, [r2, #0]
 8000df6:	f022 0201 	bic.w	r2, r2, #1
 8000dfa:	601a      	str	r2, [r3, #0]
	   if (((SCU_PLL->PLLSTAT) & (SCU_PLL_PLLSTAT_PLLHV_Msk | SCU_PLL_PLLSTAT_PLLLV_Msk |SCU_PLL_PLLSTAT_PLLSP_Msk)) != 0x380)
 8000dfc:	f244 7310 	movw	r3, #18192	; 0x4710
 8000e00:	f2c5 0300 	movt	r3, #20480	; 0x5000
 8000e04:	681b      	ldr	r3, [r3, #0]
 8000e06:	f403 7360 	and.w	r3, r3, #896	; 0x380
 8000e0a:	f5b3 7f60 	cmp.w	r3, #896	; 0x380
 8000e0e:	d002      	beq.n	8000e16 <SystemClockSetup+0x13e>
	   return(0);/* Return Error */
 8000e10:	f04f 0300 	mov.w	r3, #0
 8000e14:	e1c0      	b.n	8001198 <SystemClockSetup+0x4c0>

	/********************************************************************************************************************/
	/*   Setup and look the main PLL                                                                                    */
	/********************************************************************************************************************/

if (!(SCU_PLL->PLLSTAT & SCU_PLL_PLLSTAT_VCOLOCK_Msk)){
 8000e16:	f244 7310 	movw	r3, #18192	; 0x4710
 8000e1a:	f2c5 0300 	movt	r3, #20480	; 0x5000
 8000e1e:	681b      	ldr	r3, [r3, #0]
 8000e20:	f003 0304 	and.w	r3, r3, #4
 8000e24:	2b00      	cmp	r3, #0
 8000e26:	f040 81b5 	bne.w	8001194 <SystemClockSetup+0x4bc>
	/* Systen is still running from internal clock */
		   /* select FOFI as system clock */
		   if((SCU_CLK->SYSCLKCR & SCU_CLK_SYSCLKCR_SYSSEL_Msk) != 0x0)SCU_CLK->SYSCLKCR &= ~SCU_CLK_SYSCLKCR_SYSSEL_Msk; /*Select FOFI*/
 8000e2a:	f44f 438c 	mov.w	r3, #17920	; 0x4600
 8000e2e:	f2c5 0300 	movt	r3, #20480	; 0x5000
 8000e32:	68db      	ldr	r3, [r3, #12]
 8000e34:	f403 3380 	and.w	r3, r3, #65536	; 0x10000
 8000e38:	2b00      	cmp	r3, #0
 8000e3a:	d00b      	beq.n	8000e54 <SystemClockSetup+0x17c>
 8000e3c:	f44f 438c 	mov.w	r3, #17920	; 0x4600
 8000e40:	f2c5 0300 	movt	r3, #20480	; 0x5000
 8000e44:	f44f 428c 	mov.w	r2, #17920	; 0x4600
 8000e48:	f2c5 0200 	movt	r2, #20480	; 0x5000
 8000e4c:	68d2      	ldr	r2, [r2, #12]
 8000e4e:	f422 3280 	bic.w	r2, r2, #65536	; 0x10000
 8000e52:	60da      	str	r2, [r3, #12]


			 /*calulation for stepping*/
			 if (SCU_PLL_CLOCK_INPUT == SCU_CLOCK_CRYSTAL)VCO = (CLOCK_CRYSTAL_FREQUENCY/(SCU_PLL_PDIV+1))*(SCU_PLL_NDIV+1);
 8000e54:	f44f 5360 	mov.w	r3, #14336	; 0x3800
 8000e58:	f6c1 439c 	movt	r3, #7324	; 0x1c9c
 8000e5c:	607b      	str	r3, [r7, #4]
			 if ((SCU_PLL_CLOCK_INPUT == SCU_CLOCK_BACK_UP_AUTOMATIC) ||(SCU_PLL_CLOCK_INPUT == SCU_CLOCK_BACK_UP_FACTORY))
					VCO = (CLOCK_BACK_UP/(SCU_PLL_PDIV+1))*(SCU_PLL_NDIV+1);
	 
			 stepping_K2DIV = (VCO/24000000)-1;	
 8000e5e:	687a      	ldr	r2, [r7, #4]
 8000e60:	f649 7381 	movw	r3, #40833	; 0x9f81
 8000e64:	f2c1 635e 	movt	r3, #5726	; 0x165e
 8000e68:	fba3 1302 	umull	r1, r3, r3, r2
 8000e6c:	ea4f 5353 	mov.w	r3, r3, lsr #21
 8000e70:	f103 33ff 	add.w	r3, r3, #4294967295
 8000e74:	603b      	str	r3, [r7, #0]
			 /* Go to bypass the Main PLL */
		   SCU_PLL->PLLCON0 |= SCU_PLL_PLLCON0_VCOBYP_Msk;
 8000e76:	f244 7310 	movw	r3, #18192	; 0x4710
 8000e7a:	f2c5 0300 	movt	r3, #20480	; 0x5000
 8000e7e:	f244 7210 	movw	r2, #18192	; 0x4710
 8000e82:	f2c5 0200 	movt	r2, #20480	; 0x5000
 8000e86:	6852      	ldr	r2, [r2, #4]
 8000e88:	f042 0201 	orr.w	r2, r2, #1
 8000e8c:	605a      	str	r2, [r3, #4]
		   /* disconnect OSC_HP to PLL */
		   SCU_PLL->PLLCON0 |= SCU_PLL_PLLCON0_FINDIS_Msk;
 8000e8e:	f244 7310 	movw	r3, #18192	; 0x4710
 8000e92:	f2c5 0300 	movt	r3, #20480	; 0x5000
 8000e96:	f244 7210 	movw	r2, #18192	; 0x4710
 8000e9a:	f2c5 0200 	movt	r2, #20480	; 0x5000
 8000e9e:	6852      	ldr	r2, [r2, #4]
 8000ea0:	f042 0210 	orr.w	r2, r2, #16
 8000ea4:	605a      	str	r2, [r3, #4]
		   /* Setup devider settings for main PLL */
		   SCU_PLL->PLLCON1 = ((SCU_PLL_K1DIV) | (SCU_PLL_NDIV<<8) | (stepping_K2DIV<<16) | (SCU_PLL_PDIV<<24));
 8000ea6:	f244 7210 	movw	r2, #18192	; 0x4710
 8000eaa:	f2c5 0200 	movt	r2, #20480	; 0x5000
 8000eae:	683b      	ldr	r3, [r7, #0]
 8000eb0:	ea4f 4103 	mov.w	r1, r3, lsl #16
 8000eb4:	f644 7301 	movw	r3, #20225	; 0x4f01
 8000eb8:	f2c0 1300 	movt	r3, #256	; 0x100
 8000ebc:	430b      	orrs	r3, r1
 8000ebe:	6093      	str	r3, [r2, #8]
		   /* we may have to set OSCDISCDIS */
		   SCU_PLL->PLLCON0 |= SCU_PLL_PLLCON0_OSCDISCDIS_Msk;
 8000ec0:	f244 7310 	movw	r3, #18192	; 0x4710
 8000ec4:	f2c5 0300 	movt	r3, #20480	; 0x5000
 8000ec8:	f244 7210 	movw	r2, #18192	; 0x4710
 8000ecc:	f2c5 0200 	movt	r2, #20480	; 0x5000
 8000ed0:	6852      	ldr	r2, [r2, #4]
 8000ed2:	f042 0240 	orr.w	r2, r2, #64	; 0x40
 8000ed6:	605a      	str	r2, [r3, #4]
		   /* connect OSC_HP to PLL */
		   SCU_PLL->PLLCON0 &= ~SCU_PLL_PLLCON0_FINDIS_Msk;
 8000ed8:	f244 7310 	movw	r3, #18192	; 0x4710
 8000edc:	f2c5 0300 	movt	r3, #20480	; 0x5000
 8000ee0:	f244 7210 	movw	r2, #18192	; 0x4710
 8000ee4:	f2c5 0200 	movt	r2, #20480	; 0x5000
 8000ee8:	6852      	ldr	r2, [r2, #4]
 8000eea:	f022 0210 	bic.w	r2, r2, #16
 8000eee:	605a      	str	r2, [r3, #4]
		   /* restart PLL Lock detection */
		   SCU_PLL->PLLCON0 |= SCU_PLL_PLLCON0_RESLD_Msk;
 8000ef0:	f244 7310 	movw	r3, #18192	; 0x4710
 8000ef4:	f2c5 0300 	movt	r3, #20480	; 0x5000
 8000ef8:	f244 7210 	movw	r2, #18192	; 0x4710
 8000efc:	f2c5 0200 	movt	r2, #20480	; 0x5000
 8000f00:	6852      	ldr	r2, [r2, #4]
 8000f02:	f442 2280 	orr.w	r2, r2, #262144	; 0x40000
 8000f06:	605a      	str	r2, [r3, #4]
		   /* wait for PLL Lock */
		   /* setup time out loop */
	       /* Timeout for wait loo ~150ms */
		   /********************************/
		   SysTick->LOAD  = ((5000000+100) & SysTick_LOAD_RELOAD_Msk) - 1;/* set reload register */
 8000f08:	f24e 0310 	movw	r3, #57360	; 0xe010
 8000f0c:	f2ce 0300 	movt	r3, #57344	; 0xe000
 8000f10:	f644 32a3 	movw	r2, #19363	; 0x4ba3
 8000f14:	f2c0 024c 	movt	r2, #76	; 0x4c
 8000f18:	605a      	str	r2, [r3, #4]
		   SysTick->VAL   = 0;                                         /* Load the SysTick Counter Value */
 8000f1a:	f24e 0310 	movw	r3, #57360	; 0xe010
 8000f1e:	f2ce 0300 	movt	r3, #57344	; 0xe000
 8000f22:	f04f 0200 	mov.w	r2, #0
 8000f26:	609a      	str	r2, [r3, #8]
		   SysTick->CTRL  = SysTick_CTRL_CLKSOURCE_Msk |
 8000f28:	f24e 0310 	movw	r3, #57360	; 0xe010
 8000f2c:	f2ce 0300 	movt	r3, #57344	; 0xe000
 8000f30:	f04f 0205 	mov.w	r2, #5
 8000f34:	601a      	str	r2, [r3, #0]
		                   SysTick_CTRL_ENABLE_Msk;                    /* Enable SysTick IRQ and SysTick Timer */		  
		   
		   while ((!(SCU_PLL->PLLSTAT & SCU_PLL_PLLSTAT_VCOLOCK_Msk))&&(SysTick->VAL >= 500));
 8000f36:	bf00      	nop
 8000f38:	f244 7310 	movw	r3, #18192	; 0x4710
 8000f3c:	f2c5 0300 	movt	r3, #20480	; 0x5000
 8000f40:	681b      	ldr	r3, [r3, #0]
 8000f42:	f003 0304 	and.w	r3, r3, #4
 8000f46:	2b00      	cmp	r3, #0
 8000f48:	d108      	bne.n	8000f5c <SystemClockSetup+0x284>
 8000f4a:	f24e 0310 	movw	r3, #57360	; 0xe010
 8000f4e:	f2ce 0300 	movt	r3, #57344	; 0xe000
 8000f52:	689a      	ldr	r2, [r3, #8]
 8000f54:	f240 13f3 	movw	r3, #499	; 0x1f3
 8000f58:	429a      	cmp	r2, r3
 8000f5a:	d8ed      	bhi.n	8000f38 <SystemClockSetup+0x260>
	       SysTick->CTRL  &= ~SysTick_CTRL_ENABLE_Msk;                 /* Stop SysTick Timer */
 8000f5c:	f24e 0310 	movw	r3, #57360	; 0xe010
 8000f60:	f2ce 0300 	movt	r3, #57344	; 0xe000
 8000f64:	f24e 0210 	movw	r2, #57360	; 0xe010
 8000f68:	f2ce 0200 	movt	r2, #57344	; 0xe000
 8000f6c:	6812      	ldr	r2, [r2, #0]
 8000f6e:	f022 0201 	bic.w	r2, r2, #1
 8000f72:	601a      	str	r2, [r3, #0]

		   if ((SCU_PLL->PLLSTAT & SCU_PLL_PLLSTAT_VCOLOCK_Msk)==SCU_PLL_PLLSTAT_VCOLOCK_Msk)
 8000f74:	f244 7310 	movw	r3, #18192	; 0x4710
 8000f78:	f2c5 0300 	movt	r3, #20480	; 0x5000
 8000f7c:	681b      	ldr	r3, [r3, #0]
 8000f7e:	f003 0304 	and.w	r3, r3, #4
 8000f82:	2b00      	cmp	r3, #0
 8000f84:	d04e      	beq.n	8001024 <SystemClockSetup+0x34c>
		   		{
				/* Go back to the Main PLL */
				SCU_PLL->PLLCON0 &= ~SCU_PLL_PLLCON0_VCOBYP_Msk;
 8000f86:	f244 7310 	movw	r3, #18192	; 0x4710
 8000f8a:	f2c5 0300 	movt	r3, #20480	; 0x5000
 8000f8e:	f244 7210 	movw	r2, #18192	; 0x4710
 8000f92:	f2c5 0200 	movt	r2, #20480	; 0x5000
 8000f96:	6852      	ldr	r2, [r2, #4]
 8000f98:	f022 0201 	bic.w	r2, r2, #1
 8000f9c:	605a      	str	r2, [r3, #4]
	
	   /*********************************************************
	   here we need to setup the system clock divider
	   *********************************************************/
	
		SCU_CLK->CPUCLKCR = SCU_CPUCLKCR_DIV;
 8000f9e:	f44f 438c 	mov.w	r3, #17920	; 0x4600
 8000fa2:	f2c5 0300 	movt	r3, #20480	; 0x5000
 8000fa6:	f04f 0200 	mov.w	r2, #0
 8000faa:	611a      	str	r2, [r3, #16]
		SCU_CLK->PBCLKCR = SCU_PBCLKCR_DIV;	
 8000fac:	f44f 438c 	mov.w	r3, #17920	; 0x4600
 8000fb0:	f2c5 0300 	movt	r3, #20480	; 0x5000
 8000fb4:	f04f 0200 	mov.w	r2, #0
 8000fb8:	615a      	str	r2, [r3, #20]
		SCU_CLK->CCUCLKCR = SCU_CCUCLKCR_DIV;
 8000fba:	f44f 438c 	mov.w	r3, #17920	; 0x4600
 8000fbe:	f2c5 0300 	movt	r3, #20480	; 0x5000
 8000fc2:	f04f 0200 	mov.w	r2, #0
 8000fc6:	621a      	str	r2, [r3, #32]
	

		 /* Switch system clock to PLL */
	   SCU_CLK->SYSCLKCR |=  0x00010000; 
 8000fc8:	f44f 438c 	mov.w	r3, #17920	; 0x4600
 8000fcc:	f2c5 0300 	movt	r3, #20480	; 0x5000
 8000fd0:	f44f 428c 	mov.w	r2, #17920	; 0x4600
 8000fd4:	f2c5 0200 	movt	r2, #20480	; 0x5000
 8000fd8:	68d2      	ldr	r2, [r2, #12]
 8000fda:	f442 3280 	orr.w	r2, r2, #65536	; 0x10000
 8000fde:	60da      	str	r2, [r3, #12]
				
	   /* we may have to reset OSCDISCDIS */
	   SCU_PLL->PLLCON0 &= ~SCU_PLL_PLLCON0_OSCDISCDIS_Msk;
 8000fe0:	f244 7310 	movw	r3, #18192	; 0x4710
 8000fe4:	f2c5 0300 	movt	r3, #20480	; 0x5000
 8000fe8:	f244 7210 	movw	r2, #18192	; 0x4710
 8000fec:	f2c5 0200 	movt	r2, #20480	; 0x5000
 8000ff0:	6852      	ldr	r2, [r2, #4]
 8000ff2:	f022 0240 	bic.w	r2, r2, #64	; 0x40
 8000ff6:	605a      	str	r2, [r3, #4]
				
																  
		 /*********************************************************/
		 /* Delay for next K2 step ~50s */
		 /*********************************************************/
		 SysTick->LOAD  = ((1250+100) & SysTick_LOAD_RELOAD_Msk) - 1;/* set reload register */
 8000ff8:	f24e 0310 	movw	r3, #57360	; 0xe010
 8000ffc:	f2ce 0300 	movt	r3, #57344	; 0xe000
 8001000:	f240 5245 	movw	r2, #1349	; 0x545
 8001004:	605a      	str	r2, [r3, #4]
		 SysTick->VAL   = 0;                                         /* Load the SysTick Counter Value */
 8001006:	f24e 0310 	movw	r3, #57360	; 0xe010
 800100a:	f2ce 0300 	movt	r3, #57344	; 0xe000
 800100e:	f04f 0200 	mov.w	r2, #0
 8001012:	609a      	str	r2, [r3, #8]
		 SysTick->CTRL  = SysTick_CTRL_CLKSOURCE_Msk |
 8001014:	f24e 0310 	movw	r3, #57360	; 0xe010
 8001018:	f2ce 0300 	movt	r3, #57344	; 0xe000
 800101c:	f04f 0205 	mov.w	r2, #5
 8001020:	601a      	str	r2, [r3, #0]
										 SysTick_CTRL_ENABLE_Msk;                    /* Enable SysTick IRQ and SysTick Timer */
	
		 while (SysTick->VAL >= 100);								   /* wait for ~50s  */
 8001022:	e002      	b.n	800102a <SystemClockSetup+0x352>
		   if ((SCU_PLL->PLLSTAT & SCU_PLL_PLLSTAT_VCOLOCK_Msk)==SCU_PLL_PLLSTAT_VCOLOCK_Msk)
		   		{
				/* Go back to the Main PLL */
				SCU_PLL->PLLCON0 &= ~SCU_PLL_PLLCON0_VCOBYP_Msk;
				}
				else return(0);
 8001024:	f04f 0300 	mov.w	r3, #0
 8001028:	e0b6      	b.n	8001198 <SystemClockSetup+0x4c0>
		 SysTick->LOAD  = ((1250+100) & SysTick_LOAD_RELOAD_Msk) - 1;/* set reload register */
		 SysTick->VAL   = 0;                                         /* Load the SysTick Counter Value */
		 SysTick->CTRL  = SysTick_CTRL_CLKSOURCE_Msk |
										 SysTick_CTRL_ENABLE_Msk;                    /* Enable SysTick IRQ and SysTick Timer */
	
		 while (SysTick->VAL >= 100);								   /* wait for ~50s  */
 800102a:	f24e 0310 	movw	r3, #57360	; 0xe010
 800102e:	f2ce 0300 	movt	r3, #57344	; 0xe000
 8001032:	689b      	ldr	r3, [r3, #8]
 8001034:	2b63      	cmp	r3, #99	; 0x63
 8001036:	d8f8      	bhi.n	800102a <SystemClockSetup+0x352>
		 SysTick->CTRL  &= ~SysTick_CTRL_ENABLE_Msk;                 /* Stop SysTick Timer */
 8001038:	f24e 0310 	movw	r3, #57360	; 0xe010
 800103c:	f2ce 0300 	movt	r3, #57344	; 0xe000
 8001040:	f24e 0210 	movw	r2, #57360	; 0xe010
 8001044:	f2ce 0200 	movt	r2, #57344	; 0xe000
 8001048:	6812      	ldr	r2, [r2, #0]
 800104a:	f022 0201 	bic.w	r2, r2, #1
 800104e:	601a      	str	r2, [r3, #0]
	   /*********************************************************
	   here the ramp up of the system clock starts FSys < 60MHz
	   *********************************************************/
		if (CLOCK_FSYS > 60000000){
			 /*calulation for stepping*/
			 if (SCU_PLL_CLOCK_INPUT == SCU_CLOCK_CRYSTAL)VCO = (CLOCK_CRYSTAL_FREQUENCY/(SCU_PLL_PDIV+1))*(SCU_PLL_NDIV+1);
 8001050:	f44f 5360 	mov.w	r3, #14336	; 0x3800
 8001054:	f6c1 439c 	movt	r3, #7324	; 0x1c9c
 8001058:	607b      	str	r3, [r7, #4]
			 if ((SCU_PLL_CLOCK_INPUT == SCU_CLOCK_BACK_UP_AUTOMATIC) ||(SCU_PLL_CLOCK_INPUT == SCU_CLOCK_BACK_UP_FACTORY))
					VCO = (CLOCK_BACK_UP/(SCU_PLL_PDIV+1))*(SCU_PLL_NDIV+1);
	 
			 stepping_K2DIV = (VCO/60000000)-1;	
 800105a:	687b      	ldr	r3, [r7, #4]
 800105c:	ea4f 2213 	mov.w	r2, r3, lsr #8
 8001060:	f245 43c7 	movw	r3, #21703	; 0x54c7
 8001064:	f2c0 131e 	movt	r3, #286	; 0x11e
 8001068:	fba3 1302 	umull	r1, r3, r3, r2
 800106c:	ea4f 2393 	mov.w	r3, r3, lsr #10
 8001070:	f103 33ff 	add.w	r3, r3, #4294967295
 8001074:	603b      	str	r3, [r7, #0]

			 /* Setup devider settings for main PLL */
				SCU_PLL->PLLCON1 = ((SCU_PLL_K1DIV) | (SCU_PLL_NDIV<<8) | (stepping_K2DIV<<16) | (SCU_PLL_PDIV<<24));
 8001076:	f244 7210 	movw	r2, #18192	; 0x4710
 800107a:	f2c5 0200 	movt	r2, #20480	; 0x5000
 800107e:	683b      	ldr	r3, [r7, #0]
 8001080:	ea4f 4103 	mov.w	r1, r3, lsl #16
 8001084:	f644 7301 	movw	r3, #20225	; 0x4f01
 8001088:	f2c0 1300 	movt	r3, #256	; 0x100
 800108c:	430b      	orrs	r3, r1
 800108e:	6093      	str	r3, [r2, #8]
		 }

		 /*********************************************************/
		 /* Delay for next K2 step ~50s */
		 /*********************************************************/
	   SysTick->LOAD  = ((3000+100) & SysTick_LOAD_RELOAD_Msk) - 1;
 8001090:	f24e 0310 	movw	r3, #57360	; 0xe010
 8001094:	f2ce 0300 	movt	r3, #57344	; 0xe000
 8001098:	f640 421b 	movw	r2, #3099	; 0xc1b
 800109c:	605a      	str	r2, [r3, #4]
	   SysTick->VAL   = 0;                                         /* Load the SysTick Counter Value */
 800109e:	f24e 0310 	movw	r3, #57360	; 0xe010
 80010a2:	f2ce 0300 	movt	r3, #57344	; 0xe000
 80010a6:	f04f 0200 	mov.w	r2, #0
 80010aa:	609a      	str	r2, [r3, #8]
	   SysTick->CTRL  = SysTick_CTRL_CLKSOURCE_Msk |
 80010ac:	f24e 0310 	movw	r3, #57360	; 0xe010
 80010b0:	f2ce 0300 	movt	r3, #57344	; 0xe000
 80010b4:	f04f 0205 	mov.w	r2, #5
 80010b8:	601a      	str	r2, [r3, #0]
	                   SysTick_CTRL_ENABLE_Msk;                    /* Enable SysTick IRQ and SysTick Timer */
	
	   while (SysTick->VAL >= 100);								   /* wait for ~50s  */
 80010ba:	bf00      	nop
 80010bc:	f24e 0310 	movw	r3, #57360	; 0xe010
 80010c0:	f2ce 0300 	movt	r3, #57344	; 0xe000
 80010c4:	689b      	ldr	r3, [r3, #8]
 80010c6:	2b63      	cmp	r3, #99	; 0x63
 80010c8:	d8f8      	bhi.n	80010bc <SystemClockSetup+0x3e4>
	   SysTick->CTRL  &= ~SysTick_CTRL_ENABLE_Msk;                 /* Stop SysTick Timer */
 80010ca:	f24e 0310 	movw	r3, #57360	; 0xe010
 80010ce:	f2ce 0300 	movt	r3, #57344	; 0xe000
 80010d2:	f24e 0210 	movw	r2, #57360	; 0xe010
 80010d6:	f2ce 0200 	movt	r2, #57344	; 0xe000
 80010da:	6812      	ldr	r2, [r2, #0]
 80010dc:	f022 0201 	bic.w	r2, r2, #1
 80010e0:	601a      	str	r2, [r3, #0]
   /*********************************************************
	   here the ramp up of the system clock starts FSys < 90MHz
	   *********************************************************/
		if (CLOCK_FSYS > 90000000){
			 /*calulation for stepping*/
			 if (SCU_PLL_CLOCK_INPUT == SCU_CLOCK_CRYSTAL)VCO = (CLOCK_CRYSTAL_FREQUENCY/(SCU_PLL_PDIV+1))*(SCU_PLL_NDIV+1);
 80010e2:	f44f 5360 	mov.w	r3, #14336	; 0x3800
 80010e6:	f6c1 439c 	movt	r3, #7324	; 0x1c9c
 80010ea:	607b      	str	r3, [r7, #4]
			 if ((SCU_PLL_CLOCK_INPUT == SCU_CLOCK_BACK_UP_AUTOMATIC) ||(SCU_PLL_CLOCK_INPUT == SCU_CLOCK_BACK_UP_FACTORY))
					VCO = (CLOCK_BACK_UP/(SCU_PLL_PDIV+1))*(SCU_PLL_NDIV+1);

			 stepping_K2DIV = (VCO/90000000)-1;			
 80010ec:	687b      	ldr	r3, [r7, #4]
 80010ee:	ea4f 12d3 	mov.w	r2, r3, lsr #7
 80010f2:	f24e 332f 	movw	r3, #58159	; 0xe32f
 80010f6:	f2c0 03be 	movt	r3, #190	; 0xbe
 80010fa:	fba3 1302 	umull	r1, r3, r3, r2
 80010fe:	ea4f 23d3 	mov.w	r3, r3, lsr #11
 8001102:	f103 33ff 	add.w	r3, r3, #4294967295
 8001106:	603b      	str	r3, [r7, #0]

			 /* Setup devider settings for main PLL */
				SCU_PLL->PLLCON1 = ((SCU_PLL_K1DIV) | (SCU_PLL_NDIV<<8) | (stepping_K2DIV<<16) | (SCU_PLL_PDIV<<24));
 8001108:	f244 7210 	movw	r2, #18192	; 0x4710
 800110c:	f2c5 0200 	movt	r2, #20480	; 0x5000
 8001110:	683b      	ldr	r3, [r7, #0]
 8001112:	ea4f 4103 	mov.w	r1, r3, lsl #16
 8001116:	f644 7301 	movw	r3, #20225	; 0x4f01
 800111a:	f2c0 1300 	movt	r3, #256	; 0x100
 800111e:	430b      	orrs	r3, r1
 8001120:	6093      	str	r3, [r2, #8]
		 }
	
		 /*********************************************************/
		 /* Delay for next K2 step ~50s */
		 /*********************************************************/
	   SysTick->LOAD  = ((4800+100) & SysTick_LOAD_RELOAD_Msk) - 1;
 8001122:	f24e 0310 	movw	r3, #57360	; 0xe010
 8001126:	f2ce 0300 	movt	r3, #57344	; 0xe000
 800112a:	f241 3223 	movw	r2, #4899	; 0x1323
 800112e:	605a      	str	r2, [r3, #4]
	   SysTick->VAL   = 0;                                         /* Load the SysTick Counter Value */
 8001130:	f24e 0310 	movw	r3, #57360	; 0xe010
 8001134:	f2ce 0300 	movt	r3, #57344	; 0xe000
 8001138:	f04f 0200 	mov.w	r2, #0
 800113c:	609a      	str	r2, [r3, #8]
	   SysTick->CTRL  = SysTick_CTRL_CLKSOURCE_Msk |
 800113e:	f24e 0310 	movw	r3, #57360	; 0xe010
 8001142:	f2ce 0300 	movt	r3, #57344	; 0xe000
 8001146:	f04f 0205 	mov.w	r2, #5
 800114a:	601a      	str	r2, [r3, #0]
	                   SysTick_CTRL_ENABLE_Msk;                    /* Enable SysTick IRQ and SysTick Timer */
	
	   while (SysTick->VAL >= 100);								   /* wait for ~50s  */
 800114c:	bf00      	nop
 800114e:	f24e 0310 	movw	r3, #57360	; 0xe010
 8001152:	f2ce 0300 	movt	r3, #57344	; 0xe000
 8001156:	689b      	ldr	r3, [r3, #8]
 8001158:	2b63      	cmp	r3, #99	; 0x63
 800115a:	d8f8      	bhi.n	800114e <SystemClockSetup+0x476>
	   SysTick->CTRL  &= ~SysTick_CTRL_ENABLE_Msk;                 /* Stop SysTick Timer */
 800115c:	f24e 0310 	movw	r3, #57360	; 0xe010
 8001160:	f2ce 0300 	movt	r3, #57344	; 0xe000
 8001164:	f24e 0210 	movw	r2, #57360	; 0xe010
 8001168:	f2ce 0200 	movt	r2, #57344	; 0xe000
 800116c:	6812      	ldr	r2, [r2, #0]
 800116e:	f022 0201 	bic.w	r2, r2, #1
 8001172:	601a      	str	r2, [r3, #0]
	   /********************************/
	
	   /* Setup devider settings for main PLL */
	   SCU_PLL->PLLCON1 = ((SCU_PLL_K1DIV) | (SCU_PLL_NDIV<<8) | (SCU_PLL_K2DIV<<16) | (SCU_PLL_PDIV<<24));
 8001174:	f244 7310 	movw	r3, #18192	; 0x4710
 8001178:	f2c5 0300 	movt	r3, #20480	; 0x5000
 800117c:	f644 7201 	movw	r2, #20225	; 0x4f01
 8001180:	f2c0 1203 	movt	r2, #259	; 0x103
 8001184:	609a      	str	r2, [r3, #8]
	
	   SCU_TRAP->TRAPCLR = SCU_TRAP_TRAPCLR_SOSCWDGT_Msk | SCU_TRAP_TRAPCLR_SVCOLCKT_Msk;  /* clear request for System OCS Watchdog Trap and System VCO Lock Trap  */
 8001186:	f244 1360 	movw	r3, #16736	; 0x4160
 800118a:	f2c5 0300 	movt	r3, #20480	; 0x5000
 800118e:	f04f 0205 	mov.w	r2, #5
 8001192:	60da      	str	r2, [r3, #12]
	}
 }/* end this weak function enables DAVE3 clock App usage */	
   return(1);
 8001194:	f04f 0301 	mov.w	r3, #1

}
 8001198:	4618      	mov	r0, r3
 800119a:	f107 0708 	add.w	r7, r7, #8
 800119e:	46bd      	mov	sp, r7
 80011a0:	bd80      	pop	{r7, pc}
 80011a2:	bf00      	nop

080011a4 <main>:
/***************************************************/
/***********************MAIN************************/
/***************************************************/

int main(void)
{
 80011a4:	b580      	push	{r7, lr}
 80011a6:	b084      	sub	sp, #16
 80011a8:	af00      	add	r7, sp, #0
//	status_t status;		// Declaration of return variable for DAVE3 APIs (toggle comment if required)
	DAVE_Init();			// Initialization of DAVE Apps
 80011aa:	f002 fcb9 	bl	8003b20 <DAVE_Init>
	/*Etapa de inicializacao*/
	configure_E(); //Configura transceptor como emissor
 80011ae:	f000 fbcb 	bl	8001948 <configure_E>
	IO004_SetPin(LED1); //Leds para debug
 80011b2:	f244 33ac 	movw	r3, #17324	; 0x43ac
 80011b6:	f6c0 0300 	movt	r3, #2048	; 0x800
 80011ba:	685a      	ldr	r2, [r3, #4]
 80011bc:	f244 33ac 	movw	r3, #17324	; 0x43ac
 80011c0:	f6c0 0300 	movt	r3, #2048	; 0x800
 80011c4:	785b      	ldrb	r3, [r3, #1]
 80011c6:	f04f 0101 	mov.w	r1, #1
 80011ca:	fa01 f303 	lsl.w	r3, r1, r3
 80011ce:	6053      	str	r3, [r2, #4]
	IO004_SetPin(LED2);
 80011d0:	f244 33b4 	movw	r3, #17332	; 0x43b4
 80011d4:	f6c0 0300 	movt	r3, #2048	; 0x800
 80011d8:	685a      	ldr	r2, [r3, #4]
 80011da:	f244 33b4 	movw	r3, #17332	; 0x43b4
 80011de:	f6c0 0300 	movt	r3, #2048	; 0x800
 80011e2:	785b      	ldrb	r3, [r3, #1]
 80011e4:	f04f 0101 	mov.w	r1, #1
 80011e8:	fa01 f303 	lsl.w	r3, r1, r3
 80011ec:	6053      	str	r3, [r2, #4]
	//VER COMOFAS pra ligar analog do controle aqui ja
	psxHandShake();
 80011ee:	f000 ff3b 	bl	8002068 <psxHandShake>
	psxConfiguraControle();
 80011f2:	f000 fd4d 	bl	8001c90 <psxConfiguraControle>
	/*Loop do controle*/
	while(1)
	{
		/*Inicializa o que sera mandado*/
		BOOLType blah2 = 1;
 80011f6:	f04f 0301 	mov.w	r3, #1
 80011fa:	73fb      	strb	r3, [r7, #15]
		BOOLType buzina = 1;
 80011fc:	f04f 0301 	mov.w	r3, #1
 8001200:	72fb      	strb	r3, [r7, #11]
		BOOLType enable = 0;
 8001202:	f04f 0300 	mov.w	r3, #0
 8001206:	72bb      	strb	r3, [r7, #10]
		BOOLType albh2 = 1;
 8001208:	f04f 0301 	mov.w	r3, #1
 800120c:	73bb      	strb	r3, [r7, #14]
		BOOLType blah1 = 1;
 800120e:	f04f 0301 	mov.w	r3, #1
 8001212:	737b      	strb	r3, [r7, #13]
		BOOLType albh1 = 1;
 8001214:	f04f 0301 	mov.w	r3, #1
 8001218:	733b      	strb	r3, [r7, #12]
		int16_t pow1, pow2;
		/*Le controle*/
		psxLeControle();
 800121a:	f000 feab 	bl	8001f74 <psxLeControle>
		if (psx_status != 140)//Nao ta analogico
 800121e:	f240 0373 	movw	r3, #115	; 0x73
 8001222:	f2c2 0300 	movt	r3, #8192	; 0x2000
 8001226:	781b      	ldrb	r3, [r3, #0]
 8001228:	2b8c      	cmp	r3, #140	; 0x8c
 800122a:	d002      	beq.n	8001232 <main+0x8e>
		{
			psxConfiguraControle();
 800122c:	f000 fd30 	bl	8001c90 <psxConfiguraControle>
			continue;
 8001230:	e301      	b.n	8001836 <main+0x692>
		}
		/*Com dados do controle atribui valores e chama callbacks*/
		if (START && start) start();
 8001232:	f240 0378 	movw	r3, #120	; 0x78
 8001236:	f2c2 0300 	movt	r3, #8192	; 0x2000
 800123a:	681b      	ldr	r3, [r3, #0]
 800123c:	f003 0308 	and.w	r3, r3, #8
 8001240:	2b00      	cmp	r3, #0
 8001242:	d00c      	beq.n	800125e <main+0xba>
 8001244:	f240 0344 	movw	r3, #68	; 0x44
 8001248:	f2c2 0300 	movt	r3, #8192	; 0x2000
 800124c:	681b      	ldr	r3, [r3, #0]
 800124e:	2b00      	cmp	r3, #0
 8001250:	d005      	beq.n	800125e <main+0xba>
 8001252:	f240 0344 	movw	r3, #68	; 0x44
 8001256:	f2c2 0300 	movt	r3, #8192	; 0x2000
 800125a:	681b      	ldr	r3, [r3, #0]
 800125c:	4798      	blx	r3
		if (SELECT && select) select();
 800125e:	f240 0378 	movw	r3, #120	; 0x78
 8001262:	f2c2 0300 	movt	r3, #8192	; 0x2000
 8001266:	681b      	ldr	r3, [r3, #0]
 8001268:	f003 0301 	and.w	r3, r3, #1
 800126c:	2b00      	cmp	r3, #0
 800126e:	d00c      	beq.n	800128a <main+0xe6>
 8001270:	f240 0348 	movw	r3, #72	; 0x48
 8001274:	f2c2 0300 	movt	r3, #8192	; 0x2000
 8001278:	681b      	ldr	r3, [r3, #0]
 800127a:	2b00      	cmp	r3, #0
 800127c:	d005      	beq.n	800128a <main+0xe6>
 800127e:	f240 0348 	movw	r3, #72	; 0x48
 8001282:	f2c2 0300 	movt	r3, #8192	; 0x2000
 8001286:	681b      	ldr	r3, [r3, #0]
 8001288:	4798      	blx	r3
		if (L_DOIS && l_dois) l_dois();
 800128a:	f240 0378 	movw	r3, #120	; 0x78
 800128e:	f2c2 0300 	movt	r3, #8192	; 0x2000
 8001292:	685b      	ldr	r3, [r3, #4]
 8001294:	f003 0301 	and.w	r3, r3, #1
 8001298:	2b00      	cmp	r3, #0
 800129a:	d00c      	beq.n	80012b6 <main+0x112>
 800129c:	f240 0310 	movw	r3, #16
 80012a0:	f2c2 0300 	movt	r3, #8192	; 0x2000
 80012a4:	681b      	ldr	r3, [r3, #0]
 80012a6:	2b00      	cmp	r3, #0
 80012a8:	d005      	beq.n	80012b6 <main+0x112>
 80012aa:	f240 0310 	movw	r3, #16
 80012ae:	f2c2 0300 	movt	r3, #8192	; 0x2000
 80012b2:	681b      	ldr	r3, [r3, #0]
 80012b4:	4798      	blx	r3
		if (L_UM && l_um) l_um();
 80012b6:	f240 0378 	movw	r3, #120	; 0x78
 80012ba:	f2c2 0300 	movt	r3, #8192	; 0x2000
 80012be:	685b      	ldr	r3, [r3, #4]
 80012c0:	f003 0304 	and.w	r3, r3, #4
 80012c4:	2b00      	cmp	r3, #0
 80012c6:	d00c      	beq.n	80012e2 <main+0x13e>
 80012c8:	f240 030c 	movw	r3, #12
 80012cc:	f2c2 0300 	movt	r3, #8192	; 0x2000
 80012d0:	681b      	ldr	r3, [r3, #0]
 80012d2:	2b00      	cmp	r3, #0
 80012d4:	d005      	beq.n	80012e2 <main+0x13e>
 80012d6:	f240 030c 	movw	r3, #12
 80012da:	f2c2 0300 	movt	r3, #8192	; 0x2000
 80012de:	681b      	ldr	r3, [r3, #0]
 80012e0:	4798      	blx	r3
		if (L_TRES && l_tres) l_tres();
 80012e2:	f240 0378 	movw	r3, #120	; 0x78
 80012e6:	f2c2 0300 	movt	r3, #8192	; 0x2000
 80012ea:	681b      	ldr	r3, [r3, #0]
 80012ec:	f003 0304 	and.w	r3, r3, #4
 80012f0:	2b00      	cmp	r3, #0
 80012f2:	d00c      	beq.n	800130e <main+0x16a>
 80012f4:	f240 0314 	movw	r3, #20
 80012f8:	f2c2 0300 	movt	r3, #8192	; 0x2000
 80012fc:	681b      	ldr	r3, [r3, #0]
 80012fe:	2b00      	cmp	r3, #0
 8001300:	d005      	beq.n	800130e <main+0x16a>
 8001302:	f240 0314 	movw	r3, #20
 8001306:	f2c2 0300 	movt	r3, #8192	; 0x2000
 800130a:	681b      	ldr	r3, [r3, #0]
 800130c:	4798      	blx	r3
		if (R_UM && r_um) r_um();
 800130e:	f240 0378 	movw	r3, #120	; 0x78
 8001312:	f2c2 0300 	movt	r3, #8192	; 0x2000
 8001316:	685b      	ldr	r3, [r3, #4]
 8001318:	f003 0308 	and.w	r3, r3, #8
 800131c:	2b00      	cmp	r3, #0
 800131e:	d00c      	beq.n	800133a <main+0x196>
 8001320:	f240 0318 	movw	r3, #24
 8001324:	f2c2 0300 	movt	r3, #8192	; 0x2000
 8001328:	681b      	ldr	r3, [r3, #0]
 800132a:	2b00      	cmp	r3, #0
 800132c:	d005      	beq.n	800133a <main+0x196>
 800132e:	f240 0318 	movw	r3, #24
 8001332:	f2c2 0300 	movt	r3, #8192	; 0x2000
 8001336:	681b      	ldr	r3, [r3, #0]
 8001338:	4798      	blx	r3
		if (R_DOIS && r_dois) r_dois();
 800133a:	f240 0378 	movw	r3, #120	; 0x78
 800133e:	f2c2 0300 	movt	r3, #8192	; 0x2000
 8001342:	685b      	ldr	r3, [r3, #4]
 8001344:	f003 0302 	and.w	r3, r3, #2
 8001348:	2b00      	cmp	r3, #0
 800134a:	d00c      	beq.n	8001366 <main+0x1c2>
 800134c:	f240 031c 	movw	r3, #28
 8001350:	f2c2 0300 	movt	r3, #8192	; 0x2000
 8001354:	681b      	ldr	r3, [r3, #0]
 8001356:	2b00      	cmp	r3, #0
 8001358:	d005      	beq.n	8001366 <main+0x1c2>
 800135a:	f240 031c 	movw	r3, #28
 800135e:	f2c2 0300 	movt	r3, #8192	; 0x2000
 8001362:	681b      	ldr	r3, [r3, #0]
 8001364:	4798      	blx	r3
		if (R_TRES && r_tres) r_tres();
 8001366:	f240 0378 	movw	r3, #120	; 0x78
 800136a:	f2c2 0300 	movt	r3, #8192	; 0x2000
 800136e:	681b      	ldr	r3, [r3, #0]
 8001370:	f003 0302 	and.w	r3, r3, #2
 8001374:	2b00      	cmp	r3, #0
 8001376:	d00c      	beq.n	8001392 <main+0x1ee>
 8001378:	f240 0320 	movw	r3, #32
 800137c:	f2c2 0300 	movt	r3, #8192	; 0x2000
 8001380:	681b      	ldr	r3, [r3, #0]
 8001382:	2b00      	cmp	r3, #0
 8001384:	d005      	beq.n	8001392 <main+0x1ee>
 8001386:	f240 0320 	movw	r3, #32
 800138a:	f2c2 0300 	movt	r3, #8192	; 0x2000
 800138e:	681b      	ldr	r3, [r3, #0]
 8001390:	4798      	blx	r3
		if (SQR && sqr) sqr();
 8001392:	f240 0378 	movw	r3, #120	; 0x78
 8001396:	f2c2 0300 	movt	r3, #8192	; 0x2000
 800139a:	685b      	ldr	r3, [r3, #4]
 800139c:	f003 0380 	and.w	r3, r3, #128	; 0x80
 80013a0:	2b00      	cmp	r3, #0
 80013a2:	d00c      	beq.n	80013be <main+0x21a>
 80013a4:	f240 0328 	movw	r3, #40	; 0x28
 80013a8:	f2c2 0300 	movt	r3, #8192	; 0x2000
 80013ac:	681b      	ldr	r3, [r3, #0]
 80013ae:	2b00      	cmp	r3, #0
 80013b0:	d005      	beq.n	80013be <main+0x21a>
 80013b2:	f240 0328 	movw	r3, #40	; 0x28
 80013b6:	f2c2 0300 	movt	r3, #8192	; 0x2000
 80013ba:	681b      	ldr	r3, [r3, #0]
 80013bc:	4798      	blx	r3
		if (TRIANGLE && triangle) triangle();
 80013be:	f240 0378 	movw	r3, #120	; 0x78
 80013c2:	f2c2 0300 	movt	r3, #8192	; 0x2000
 80013c6:	685b      	ldr	r3, [r3, #4]
 80013c8:	f003 0310 	and.w	r3, r3, #16
 80013cc:	2b00      	cmp	r3, #0
 80013ce:	d00c      	beq.n	80013ea <main+0x246>
 80013d0:	f240 032c 	movw	r3, #44	; 0x2c
 80013d4:	f2c2 0300 	movt	r3, #8192	; 0x2000
 80013d8:	681b      	ldr	r3, [r3, #0]
 80013da:	2b00      	cmp	r3, #0
 80013dc:	d005      	beq.n	80013ea <main+0x246>
 80013de:	f240 032c 	movw	r3, #44	; 0x2c
 80013e2:	f2c2 0300 	movt	r3, #8192	; 0x2000
 80013e6:	681b      	ldr	r3, [r3, #0]
 80013e8:	4798      	blx	r3
		if (CIRCLE && circle) circle();
 80013ea:	f240 0378 	movw	r3, #120	; 0x78
 80013ee:	f2c2 0300 	movt	r3, #8192	; 0x2000
 80013f2:	685b      	ldr	r3, [r3, #4]
 80013f4:	f003 0320 	and.w	r3, r3, #32
 80013f8:	2b00      	cmp	r3, #0
 80013fa:	d00c      	beq.n	8001416 <main+0x272>
 80013fc:	f240 0330 	movw	r3, #48	; 0x30
 8001400:	f2c2 0300 	movt	r3, #8192	; 0x2000
 8001404:	681b      	ldr	r3, [r3, #0]
 8001406:	2b00      	cmp	r3, #0
 8001408:	d005      	beq.n	8001416 <main+0x272>
 800140a:	f240 0330 	movw	r3, #48	; 0x30
 800140e:	f2c2 0300 	movt	r3, #8192	; 0x2000
 8001412:	681b      	ldr	r3, [r3, #0]
 8001414:	4798      	blx	r3
		if (CROSS && cross) cross();
 8001416:	f240 0378 	movw	r3, #120	; 0x78
 800141a:	f2c2 0300 	movt	r3, #8192	; 0x2000
 800141e:	685b      	ldr	r3, [r3, #4]
 8001420:	f003 0340 	and.w	r3, r3, #64	; 0x40
 8001424:	2b00      	cmp	r3, #0
 8001426:	d00c      	beq.n	8001442 <main+0x29e>
 8001428:	f240 0324 	movw	r3, #36	; 0x24
 800142c:	f2c2 0300 	movt	r3, #8192	; 0x2000
 8001430:	681b      	ldr	r3, [r3, #0]
 8001432:	2b00      	cmp	r3, #0
 8001434:	d005      	beq.n	8001442 <main+0x29e>
 8001436:	f240 0324 	movw	r3, #36	; 0x24
 800143a:	f2c2 0300 	movt	r3, #8192	; 0x2000
 800143e:	681b      	ldr	r3, [r3, #0]
 8001440:	4798      	blx	r3
		if (LEFT && left) left();
 8001442:	f240 0378 	movw	r3, #120	; 0x78
 8001446:	f2c2 0300 	movt	r3, #8192	; 0x2000
 800144a:	681b      	ldr	r3, [r3, #0]
 800144c:	f003 0380 	and.w	r3, r3, #128	; 0x80
 8001450:	2b00      	cmp	r3, #0
 8001452:	d00c      	beq.n	800146e <main+0x2ca>
 8001454:	f240 0334 	movw	r3, #52	; 0x34
 8001458:	f2c2 0300 	movt	r3, #8192	; 0x2000
 800145c:	681b      	ldr	r3, [r3, #0]
 800145e:	2b00      	cmp	r3, #0
 8001460:	d005      	beq.n	800146e <main+0x2ca>
 8001462:	f240 0334 	movw	r3, #52	; 0x34
 8001466:	f2c2 0300 	movt	r3, #8192	; 0x2000
 800146a:	681b      	ldr	r3, [r3, #0]
 800146c:	4798      	blx	r3
		if (RIGHT && right) right();
 800146e:	f240 0378 	movw	r3, #120	; 0x78
 8001472:	f2c2 0300 	movt	r3, #8192	; 0x2000
 8001476:	681b      	ldr	r3, [r3, #0]
 8001478:	f003 0320 	and.w	r3, r3, #32
 800147c:	2b00      	cmp	r3, #0
 800147e:	d00c      	beq.n	800149a <main+0x2f6>
 8001480:	f240 0338 	movw	r3, #56	; 0x38
 8001484:	f2c2 0300 	movt	r3, #8192	; 0x2000
 8001488:	681b      	ldr	r3, [r3, #0]
 800148a:	2b00      	cmp	r3, #0
 800148c:	d005      	beq.n	800149a <main+0x2f6>
 800148e:	f240 0338 	movw	r3, #56	; 0x38
 8001492:	f2c2 0300 	movt	r3, #8192	; 0x2000
 8001496:	681b      	ldr	r3, [r3, #0]
 8001498:	4798      	blx	r3
		if (UP && up) up();
 800149a:	f240 0378 	movw	r3, #120	; 0x78
 800149e:	f2c2 0300 	movt	r3, #8192	; 0x2000
 80014a2:	681b      	ldr	r3, [r3, #0]
 80014a4:	f003 0310 	and.w	r3, r3, #16
 80014a8:	2b00      	cmp	r3, #0
 80014aa:	d00c      	beq.n	80014c6 <main+0x322>
 80014ac:	f240 033c 	movw	r3, #60	; 0x3c
 80014b0:	f2c2 0300 	movt	r3, #8192	; 0x2000
 80014b4:	681b      	ldr	r3, [r3, #0]
 80014b6:	2b00      	cmp	r3, #0
 80014b8:	d005      	beq.n	80014c6 <main+0x322>
 80014ba:	f240 033c 	movw	r3, #60	; 0x3c
 80014be:	f2c2 0300 	movt	r3, #8192	; 0x2000
 80014c2:	681b      	ldr	r3, [r3, #0]
 80014c4:	4798      	blx	r3
		if (DOWN && down) down();
 80014c6:	f240 0378 	movw	r3, #120	; 0x78
 80014ca:	f2c2 0300 	movt	r3, #8192	; 0x2000
 80014ce:	681b      	ldr	r3, [r3, #0]
 80014d0:	f003 0340 	and.w	r3, r3, #64	; 0x40
 80014d4:	2b00      	cmp	r3, #0
 80014d6:	d00c      	beq.n	80014f2 <main+0x34e>
 80014d8:	f240 0340 	movw	r3, #64	; 0x40
 80014dc:	f2c2 0300 	movt	r3, #8192	; 0x2000
 80014e0:	681b      	ldr	r3, [r3, #0]
 80014e2:	2b00      	cmp	r3, #0
 80014e4:	d005      	beq.n	80014f2 <main+0x34e>
 80014e6:	f240 0340 	movw	r3, #64	; 0x40
 80014ea:	f2c2 0300 	movt	r3, #8192	; 0x2000
 80014ee:	681b      	ldr	r3, [r3, #0]
 80014f0:	4798      	blx	r3

		if (psxDado[1]&1<<3) isPressed = 1;
 80014f2:	f240 0378 	movw	r3, #120	; 0x78
 80014f6:	f2c2 0300 	movt	r3, #8192	; 0x2000
 80014fa:	685b      	ldr	r3, [r3, #4]
 80014fc:	f003 0308 	and.w	r3, r3, #8
 8001500:	2b00      	cmp	r3, #0
 8001502:	d007      	beq.n	8001514 <main+0x370>
 8001504:	f240 034d 	movw	r3, #77	; 0x4d
 8001508:	f2c2 0300 	movt	r3, #8192	; 0x2000
 800150c:	f04f 0201 	mov.w	r2, #1
 8001510:	701a      	strb	r2, [r3, #0]
 8001512:	e006      	b.n	8001522 <main+0x37e>
		else isPressed = 0;
 8001514:	f240 034d 	movw	r3, #77	; 0x4d
 8001518:	f2c2 0300 	movt	r3, #8192	; 0x2000
 800151c:	f04f 0200 	mov.w	r2, #0
 8001520:	701a      	strb	r2, [r3, #0]
		if (lastIsPressed == 0 && isPressed == 1) flipped = !flipped;
 8001522:	f240 034e 	movw	r3, #78	; 0x4e
 8001526:	f2c2 0300 	movt	r3, #8192	; 0x2000
 800152a:	781b      	ldrb	r3, [r3, #0]
 800152c:	2b00      	cmp	r3, #0
 800152e:	d116      	bne.n	800155e <main+0x3ba>
 8001530:	f240 034d 	movw	r3, #77	; 0x4d
 8001534:	f2c2 0300 	movt	r3, #8192	; 0x2000
 8001538:	781b      	ldrb	r3, [r3, #0]
 800153a:	2b01      	cmp	r3, #1
 800153c:	d10f      	bne.n	800155e <main+0x3ba>
 800153e:	f240 034c 	movw	r3, #76	; 0x4c
 8001542:	f2c2 0300 	movt	r3, #8192	; 0x2000
 8001546:	781b      	ldrb	r3, [r3, #0]
 8001548:	2b00      	cmp	r3, #0
 800154a:	bf14      	ite	ne
 800154c:	2300      	movne	r3, #0
 800154e:	2301      	moveq	r3, #1
 8001550:	b2db      	uxtb	r3, r3
 8001552:	461a      	mov	r2, r3
 8001554:	f240 034c 	movw	r3, #76	; 0x4c
 8001558:	f2c2 0300 	movt	r3, #8192	; 0x2000
 800155c:	701a      	strb	r2, [r3, #0]
		data_E[0] = 173;
 800155e:	f240 0374 	movw	r3, #116	; 0x74
 8001562:	f2c2 0300 	movt	r3, #8192	; 0x2000
 8001566:	f04f 02ad 	mov.w	r2, #173	; 0xad
 800156a:	701a      	strb	r2, [r3, #0]
		if (psxDado[5] == 0 && psxDado[3] == 0) continue; //Enquanto for zero nao faz nada -> tirar quando ligar o analogico
 800156c:	f240 0378 	movw	r3, #120	; 0x78
 8001570:	f2c2 0300 	movt	r3, #8192	; 0x2000
 8001574:	695b      	ldr	r3, [r3, #20]
 8001576:	2b00      	cmp	r3, #0
 8001578:	d107      	bne.n	800158a <main+0x3e6>
 800157a:	f240 0378 	movw	r3, #120	; 0x78
 800157e:	f2c2 0300 	movt	r3, #8192	; 0x2000
 8001582:	68db      	ldr	r3, [r3, #12]
 8001584:	2b00      	cmp	r3, #0
 8001586:	f000 8155 	beq.w	8001834 <main+0x690>
		pow1 = (psxDado[5]-127);//<<1; //Analog esq //Subtrai 127 para saber o sentido
 800158a:	f240 0378 	movw	r3, #120	; 0x78
 800158e:	f2c2 0300 	movt	r3, #8192	; 0x2000
 8001592:	695b      	ldr	r3, [r3, #20]
 8001594:	b29b      	uxth	r3, r3
 8001596:	f1a3 037f 	sub.w	r3, r3, #127	; 0x7f
 800159a:	b29b      	uxth	r3, r3
 800159c:	813b      	strh	r3, [r7, #8]
		pow2 = (psxDado[3]-127);//<<1;
 800159e:	f240 0378 	movw	r3, #120	; 0x78
 80015a2:	f2c2 0300 	movt	r3, #8192	; 0x2000
 80015a6:	68db      	ldr	r3, [r3, #12]
 80015a8:	b29b      	uxth	r3, r3
 80015aa:	f1a3 037f 	sub.w	r3, r3, #127	; 0x7f
 80015ae:	b29b      	uxth	r3, r3
 80015b0:	80fb      	strh	r3, [r7, #6]
		data_E[3] = 0;
 80015b2:	f240 0374 	movw	r3, #116	; 0x74
 80015b6:	f2c2 0300 	movt	r3, #8192	; 0x2000
 80015ba:	f04f 0200 	mov.w	r2, #0
 80015be:	70da      	strb	r2, [r3, #3]
		int16_t temp; //Variavel para armazenamento temporario dos calculos
		if (!flipped) //Robo virado, variavel atribuida pelo clique de um botao
 80015c0:	f240 034c 	movw	r3, #76	; 0x4c
 80015c4:	f2c2 0300 	movt	r3, #8192	; 0x2000
 80015c8:	781b      	ldrb	r3, [r3, #0]
 80015ca:	2b00      	cmp	r3, #0
 80015cc:	d17c      	bne.n	80016c8 <main+0x524>
		{
			if (pow1 < -30) albh2 = 0; //ok
 80015ce:	f9b7 3008 	ldrsh.w	r3, [r7, #8]
 80015d2:	f113 0f1e 	cmn.w	r3, #30
 80015d6:	da03      	bge.n	80015e0 <main+0x43c>
 80015d8:	f04f 0300 	mov.w	r3, #0
 80015dc:	73bb      	strb	r3, [r7, #14]
 80015de:	e006      	b.n	80015ee <main+0x44a>
			else if (pow1 > 30) blah2 = 0; //ok
 80015e0:	f9b7 3008 	ldrsh.w	r3, [r7, #8]
 80015e4:	2b1e      	cmp	r3, #30
 80015e6:	dd02      	ble.n	80015ee <main+0x44a>
 80015e8:	f04f 0300 	mov.w	r3, #0
 80015ec:	73fb      	strb	r3, [r7, #15]
			if (pow2 < -30) albh1 = 0;
 80015ee:	f9b7 3006 	ldrsh.w	r3, [r7, #6]
 80015f2:	f113 0f1e 	cmn.w	r3, #30
 80015f6:	da03      	bge.n	8001600 <main+0x45c>
 80015f8:	f04f 0300 	mov.w	r3, #0
 80015fc:	733b      	strb	r3, [r7, #12]
 80015fe:	e006      	b.n	800160e <main+0x46a>
			else if (pow2 > 30) blah1 = 0;
 8001600:	f9b7 3006 	ldrsh.w	r3, [r7, #6]
 8001604:	2b1e      	cmp	r3, #30
 8001606:	dd02      	ble.n	800160e <main+0x46a>
 8001608:	f04f 0300 	mov.w	r3, #0
 800160c:	737b      	strb	r3, [r7, #13]
			temp = pow1>0?pow1*2:(-pow1)*2;
 800160e:	f9b7 3008 	ldrsh.w	r3, [r7, #8]
 8001612:	2b00      	cmp	r3, #0
 8001614:	dd05      	ble.n	8001622 <main+0x47e>
 8001616:	893b      	ldrh	r3, [r7, #8]
 8001618:	ea4f 0343 	mov.w	r3, r3, lsl #1
 800161c:	b29b      	uxth	r3, r3
 800161e:	b29b      	uxth	r3, r3
 8001620:	e008      	b.n	8001634 <main+0x490>
 8001622:	893b      	ldrh	r3, [r7, #8]
 8001624:	461a      	mov	r2, r3
 8001626:	ea4f 32c2 	mov.w	r2, r2, lsl #15
 800162a:	1ad3      	subs	r3, r2, r3
 800162c:	ea4f 0343 	mov.w	r3, r3, lsl #1
 8001630:	b29b      	uxth	r3, r3
 8001632:	b29b      	uxth	r3, r3
 8001634:	80bb      	strh	r3, [r7, #4]
			data_E[1] = temp*PWM_LIM/100;
 8001636:	f9b7 2004 	ldrsh.w	r2, [r7, #4]
 800163a:	4613      	mov	r3, r2
 800163c:	ea4f 1303 	mov.w	r3, r3, lsl #4
 8001640:	1a9b      	subs	r3, r3, r2
 8001642:	ea4f 0383 	mov.w	r3, r3, lsl #2
 8001646:	461a      	mov	r2, r3
 8001648:	f248 531f 	movw	r3, #34079	; 0x851f
 800164c:	f2c5 13eb 	movt	r3, #20971	; 0x51eb
 8001650:	fb83 1302 	smull	r1, r3, r3, r2
 8001654:	ea4f 1163 	mov.w	r1, r3, asr #5
 8001658:	ea4f 73e2 	mov.w	r3, r2, asr #31
 800165c:	1acb      	subs	r3, r1, r3
 800165e:	b2da      	uxtb	r2, r3
 8001660:	f240 0374 	movw	r3, #116	; 0x74
 8001664:	f2c2 0300 	movt	r3, #8192	; 0x2000
 8001668:	705a      	strb	r2, [r3, #1]
			temp = pow2>0?pow2*2:(-pow2)*2;
 800166a:	f9b7 3006 	ldrsh.w	r3, [r7, #6]
 800166e:	2b00      	cmp	r3, #0
 8001670:	dd05      	ble.n	800167e <main+0x4da>
 8001672:	88fb      	ldrh	r3, [r7, #6]
 8001674:	ea4f 0343 	mov.w	r3, r3, lsl #1
 8001678:	b29b      	uxth	r3, r3
 800167a:	b29b      	uxth	r3, r3
 800167c:	e008      	b.n	8001690 <main+0x4ec>
 800167e:	88fb      	ldrh	r3, [r7, #6]
 8001680:	461a      	mov	r2, r3
 8001682:	ea4f 32c2 	mov.w	r2, r2, lsl #15
 8001686:	1ad3      	subs	r3, r2, r3
 8001688:	ea4f 0343 	mov.w	r3, r3, lsl #1
 800168c:	b29b      	uxth	r3, r3
 800168e:	b29b      	uxth	r3, r3
 8001690:	80bb      	strh	r3, [r7, #4]
			data_E[2] = temp*PWM_LIM/100;
 8001692:	f9b7 2004 	ldrsh.w	r2, [r7, #4]
 8001696:	4613      	mov	r3, r2
 8001698:	ea4f 1303 	mov.w	r3, r3, lsl #4
 800169c:	1a9b      	subs	r3, r3, r2
 800169e:	ea4f 0383 	mov.w	r3, r3, lsl #2
 80016a2:	461a      	mov	r2, r3
 80016a4:	f248 531f 	movw	r3, #34079	; 0x851f
 80016a8:	f2c5 13eb 	movt	r3, #20971	; 0x51eb
 80016ac:	fb83 1302 	smull	r1, r3, r3, r2
 80016b0:	ea4f 1163 	mov.w	r1, r3, asr #5
 80016b4:	ea4f 73e2 	mov.w	r3, r2, asr #31
 80016b8:	1acb      	subs	r3, r1, r3
 80016ba:	b2da      	uxtb	r2, r3
 80016bc:	f240 0374 	movw	r3, #116	; 0x74
 80016c0:	f2c2 0300 	movt	r3, #8192	; 0x2000
 80016c4:	709a      	strb	r2, [r3, #2]
 80016c6:	e07b      	b.n	80017c0 <main+0x61c>
		}
		else
		{
			if (pow2 > 30) albh2 = 0; //ok
 80016c8:	f9b7 3006 	ldrsh.w	r3, [r7, #6]
 80016cc:	2b1e      	cmp	r3, #30
 80016ce:	dd03      	ble.n	80016d8 <main+0x534>
 80016d0:	f04f 0300 	mov.w	r3, #0
 80016d4:	73bb      	strb	r3, [r7, #14]
 80016d6:	e007      	b.n	80016e8 <main+0x544>
			else if (pow2 < -30) blah2 = 0; //ok
 80016d8:	f9b7 3006 	ldrsh.w	r3, [r7, #6]
 80016dc:	f113 0f1e 	cmn.w	r3, #30
 80016e0:	da02      	bge.n	80016e8 <main+0x544>
 80016e2:	f04f 0300 	mov.w	r3, #0
 80016e6:	73fb      	strb	r3, [r7, #15]
			if (pow1 > 30) albh1 = 0;
 80016e8:	f9b7 3008 	ldrsh.w	r3, [r7, #8]
 80016ec:	2b1e      	cmp	r3, #30
 80016ee:	dd03      	ble.n	80016f8 <main+0x554>
 80016f0:	f04f 0300 	mov.w	r3, #0
 80016f4:	733b      	strb	r3, [r7, #12]
 80016f6:	e007      	b.n	8001708 <main+0x564>
			else if (pow1 < -30) blah1 = 0;
 80016f8:	f9b7 3008 	ldrsh.w	r3, [r7, #8]
 80016fc:	f113 0f1e 	cmn.w	r3, #30
 8001700:	da02      	bge.n	8001708 <main+0x564>
 8001702:	f04f 0300 	mov.w	r3, #0
 8001706:	737b      	strb	r3, [r7, #13]
			temp = pow1>0?pow1*2:(-pow1)*2;
 8001708:	f9b7 3008 	ldrsh.w	r3, [r7, #8]
 800170c:	2b00      	cmp	r3, #0
 800170e:	dd05      	ble.n	800171c <main+0x578>
 8001710:	893b      	ldrh	r3, [r7, #8]
 8001712:	ea4f 0343 	mov.w	r3, r3, lsl #1
 8001716:	b29b      	uxth	r3, r3
 8001718:	b29b      	uxth	r3, r3
 800171a:	e008      	b.n	800172e <main+0x58a>
 800171c:	893b      	ldrh	r3, [r7, #8]
 800171e:	461a      	mov	r2, r3
 8001720:	ea4f 32c2 	mov.w	r2, r2, lsl #15
 8001724:	1ad3      	subs	r3, r2, r3
 8001726:	ea4f 0343 	mov.w	r3, r3, lsl #1
 800172a:	b29b      	uxth	r3, r3
 800172c:	b29b      	uxth	r3, r3
 800172e:	80bb      	strh	r3, [r7, #4]
			data_E[2] = temp*PWM_LIM/100;
 8001730:	f9b7 2004 	ldrsh.w	r2, [r7, #4]
 8001734:	4613      	mov	r3, r2
 8001736:	ea4f 1303 	mov.w	r3, r3, lsl #4
 800173a:	1a9b      	subs	r3, r3, r2
 800173c:	ea4f 0383 	mov.w	r3, r3, lsl #2
 8001740:	461a      	mov	r2, r3
 8001742:	f248 531f 	movw	r3, #34079	; 0x851f
 8001746:	f2c5 13eb 	movt	r3, #20971	; 0x51eb
 800174a:	fb83 1302 	smull	r1, r3, r3, r2
 800174e:	ea4f 1163 	mov.w	r1, r3, asr #5
 8001752:	ea4f 73e2 	mov.w	r3, r2, asr #31
 8001756:	1acb      	subs	r3, r1, r3
 8001758:	b2da      	uxtb	r2, r3
 800175a:	f240 0374 	movw	r3, #116	; 0x74
 800175e:	f2c2 0300 	movt	r3, #8192	; 0x2000
 8001762:	709a      	strb	r2, [r3, #2]
			temp = pow2>0?pow2*2:(-pow2)*2;
 8001764:	f9b7 3006 	ldrsh.w	r3, [r7, #6]
 8001768:	2b00      	cmp	r3, #0
 800176a:	dd05      	ble.n	8001778 <main+0x5d4>
 800176c:	88fb      	ldrh	r3, [r7, #6]
 800176e:	ea4f 0343 	mov.w	r3, r3, lsl #1
 8001772:	b29b      	uxth	r3, r3
 8001774:	b29b      	uxth	r3, r3
 8001776:	e008      	b.n	800178a <main+0x5e6>
 8001778:	88fb      	ldrh	r3, [r7, #6]
 800177a:	461a      	mov	r2, r3
 800177c:	ea4f 32c2 	mov.w	r2, r2, lsl #15
 8001780:	1ad3      	subs	r3, r2, r3
 8001782:	ea4f 0343 	mov.w	r3, r3, lsl #1
 8001786:	b29b      	uxth	r3, r3
 8001788:	b29b      	uxth	r3, r3
 800178a:	80bb      	strh	r3, [r7, #4]
			data_E[1] = temp*PWM_LIM/100;
 800178c:	f9b7 2004 	ldrsh.w	r2, [r7, #4]
 8001790:	4613      	mov	r3, r2
 8001792:	ea4f 1303 	mov.w	r3, r3, lsl #4
 8001796:	1a9b      	subs	r3, r3, r2
 8001798:	ea4f 0383 	mov.w	r3, r3, lsl #2
 800179c:	461a      	mov	r2, r3
 800179e:	f248 531f 	movw	r3, #34079	; 0x851f
 80017a2:	f2c5 13eb 	movt	r3, #20971	; 0x51eb
 80017a6:	fb83 1302 	smull	r1, r3, r3, r2
 80017aa:	ea4f 1163 	mov.w	r1, r3, asr #5
 80017ae:	ea4f 73e2 	mov.w	r3, r2, asr #31
 80017b2:	1acb      	subs	r3, r1, r3
 80017b4:	b2da      	uxtb	r2, r3
 80017b6:	f240 0374 	movw	r3, #116	; 0x74
 80017ba:	f2c2 0300 	movt	r3, #8192	; 0x2000
 80017be:	705a      	strb	r2, [r3, #1]
		}
		//if (data_E[1] > 20 || data_E[2] > 20) enable = 1;
		data_E[3] = data_E[3] | (blah1 << BLAH1) | (blah2 << BLAH2) | (albh1 << ALBH1) | (albh2 << ALBH2) | (enable << ENABLE) | (buzina << BUZINA);
 80017c0:	f240 0374 	movw	r3, #116	; 0x74
 80017c4:	f2c2 0300 	movt	r3, #8192	; 0x2000
 80017c8:	78db      	ldrb	r3, [r3, #3]
 80017ca:	b2da      	uxtb	r2, r3
 80017cc:	7b7b      	ldrb	r3, [r7, #13]
 80017ce:	ea4f 1303 	mov.w	r3, r3, lsl #4
 80017d2:	b2db      	uxtb	r3, r3
 80017d4:	4313      	orrs	r3, r2
 80017d6:	b2da      	uxtb	r2, r3
 80017d8:	7bfb      	ldrb	r3, [r7, #15]
 80017da:	4313      	orrs	r3, r2
 80017dc:	b2da      	uxtb	r2, r3
 80017de:	7b3b      	ldrb	r3, [r7, #12]
 80017e0:	ea4f 1343 	mov.w	r3, r3, lsl #5
 80017e4:	b2db      	uxtb	r3, r3
 80017e6:	4313      	orrs	r3, r2
 80017e8:	b2da      	uxtb	r2, r3
 80017ea:	7bbb      	ldrb	r3, [r7, #14]
 80017ec:	ea4f 03c3 	mov.w	r3, r3, lsl #3
 80017f0:	b2db      	uxtb	r3, r3
 80017f2:	4313      	orrs	r3, r2
 80017f4:	b2da      	uxtb	r2, r3
 80017f6:	7abb      	ldrb	r3, [r7, #10]
 80017f8:	ea4f 0383 	mov.w	r3, r3, lsl #2
 80017fc:	b2db      	uxtb	r3, r3
 80017fe:	4313      	orrs	r3, r2
 8001800:	b2da      	uxtb	r2, r3
 8001802:	7afb      	ldrb	r3, [r7, #11]
 8001804:	ea4f 0343 	mov.w	r3, r3, lsl #1
 8001808:	b2db      	uxtb	r3, r3
 800180a:	4313      	orrs	r3, r2
 800180c:	b2db      	uxtb	r3, r3
 800180e:	b2da      	uxtb	r2, r3
 8001810:	f240 0374 	movw	r3, #116	; 0x74
 8001814:	f2c2 0300 	movt	r3, #8192	; 0x2000
 8001818:	70da      	strb	r2, [r3, #3]
		write_E();
 800181a:	f000 f97d 	bl	8001b18 <write_E>
		lastIsPressed = isPressed;
 800181e:	f240 034d 	movw	r3, #77	; 0x4d
 8001822:	f2c2 0300 	movt	r3, #8192	; 0x2000
 8001826:	781a      	ldrb	r2, [r3, #0]
 8001828:	f240 034e 	movw	r3, #78	; 0x4e
 800182c:	f2c2 0300 	movt	r3, #8192	; 0x2000
 8001830:	701a      	strb	r2, [r3, #0]
	}
 8001832:	e4e0      	b.n	80011f6 <main+0x52>

		if (psxDado[1]&1<<3) isPressed = 1;
		else isPressed = 0;
		if (lastIsPressed == 0 && isPressed == 1) flipped = !flipped;
		data_E[0] = 173;
		if (psxDado[5] == 0 && psxDado[3] == 0) continue; //Enquanto for zero nao faz nada -> tirar quando ligar o analogico
 8001834:	bf00      	nop
		}
		//if (data_E[1] > 20 || data_E[2] > 20) enable = 1;
		data_E[3] = data_E[3] | (blah1 << BLAH1) | (blah2 << BLAH2) | (albh1 << ALBH1) | (albh2 << ALBH2) | (enable << ENABLE) | (buzina << BUZINA);
		write_E();
		lastIsPressed = isPressed;
	}
 8001836:	e4de      	b.n	80011f6 <main+0x52>

08001838 <read_R>:
/***************************************************/
/***************FUNCOES DO TRANSCEPTOR**************/
/***************************************************/

void read_R()
{
 8001838:	b580      	push	{r7, lr}
 800183a:	b082      	sub	sp, #8
 800183c:	af00      	add	r7, sp, #0
	int i;
	IO004_ResetPin(CE);
 800183e:	f244 33a4 	movw	r3, #17316	; 0x43a4
 8001842:	f6c0 0300 	movt	r3, #2048	; 0x800
 8001846:	685a      	ldr	r2, [r3, #4]
 8001848:	f244 33a4 	movw	r3, #17316	; 0x43a4
 800184c:	f6c0 0300 	movt	r3, #2048	; 0x800
 8001850:	785b      	ldrb	r3, [r3, #1]
 8001852:	f44f 3180 	mov.w	r1, #65536	; 0x10000
 8001856:	fa01 f303 	lsl.w	r3, r1, r3
 800185a:	6053      	str	r3, [r2, #4]
	delay(50000);
 800185c:	f24c 3050 	movw	r0, #50000	; 0xc350
 8001860:	f000 fd04 	bl	800226c <delay>
	uint8_t temp = 0;
 8001864:	f04f 0300 	mov.w	r3, #0
 8001868:	70fb      	strb	r3, [r7, #3]

	for (i = 7; i > -1; i --)
 800186a:	f04f 0307 	mov.w	r3, #7
 800186e:	607b      	str	r3, [r7, #4]
 8001870:	e020      	b.n	80018b4 <read_R+0x7c>
	{
		if (IO004_ReadPin(DATA)) temp |= (1<<i);
 8001872:	f244 3394 	movw	r3, #17300	; 0x4394
 8001876:	f6c0 0300 	movt	r3, #2048	; 0x800
 800187a:	685b      	ldr	r3, [r3, #4]
 800187c:	6a5a      	ldr	r2, [r3, #36]	; 0x24
 800187e:	f244 3394 	movw	r3, #17300	; 0x4394
 8001882:	f6c0 0300 	movt	r3, #2048	; 0x800
 8001886:	785b      	ldrb	r3, [r3, #1]
 8001888:	fa22 f303 	lsr.w	r3, r2, r3
 800188c:	f003 0301 	and.w	r3, r3, #1
 8001890:	2b00      	cmp	r3, #0
 8001892:	d009      	beq.n	80018a8 <read_R+0x70>
 8001894:	f04f 0201 	mov.w	r2, #1
 8001898:	687b      	ldr	r3, [r7, #4]
 800189a:	fa02 f303 	lsl.w	r3, r2, r3
 800189e:	b2da      	uxtb	r2, r3
 80018a0:	78fb      	ldrb	r3, [r7, #3]
 80018a2:	4313      	orrs	r3, r2
 80018a4:	b2db      	uxtb	r3, r3
 80018a6:	70fb      	strb	r3, [r7, #3]
		pulse_R();
 80018a8:	f000 f824 	bl	80018f4 <pulse_R>
	int i;
	IO004_ResetPin(CE);
	delay(50000);
	uint8_t temp = 0;

	for (i = 7; i > -1; i --)
 80018ac:	687b      	ldr	r3, [r7, #4]
 80018ae:	f103 33ff 	add.w	r3, r3, #4294967295
 80018b2:	607b      	str	r3, [r7, #4]
 80018b4:	687b      	ldr	r3, [r7, #4]
 80018b6:	2b00      	cmp	r3, #0
 80018b8:	dadb      	bge.n	8001872 <read_R+0x3a>
	{
		if (IO004_ReadPin(DATA)) temp |= (1<<i);
		pulse_R();
	}
	data_R = temp;
 80018ba:	f240 0304 	movw	r3, #4
 80018be:	f2c2 0300 	movt	r3, #8192	; 0x2000
 80018c2:	78fa      	ldrb	r2, [r7, #3]
 80018c4:	701a      	strb	r2, [r3, #0]
	IO004_SetPin(CE);
 80018c6:	f244 33a4 	movw	r3, #17316	; 0x43a4
 80018ca:	f6c0 0300 	movt	r3, #2048	; 0x800
 80018ce:	685a      	ldr	r2, [r3, #4]
 80018d0:	f244 33a4 	movw	r3, #17316	; 0x43a4
 80018d4:	f6c0 0300 	movt	r3, #2048	; 0x800
 80018d8:	785b      	ldrb	r3, [r3, #1]
 80018da:	f04f 0101 	mov.w	r1, #1
 80018de:	fa01 f303 	lsl.w	r3, r1, r3
 80018e2:	6053      	str	r3, [r2, #4]
	delay(50000);
 80018e4:	f24c 3050 	movw	r0, #50000	; 0xc350
 80018e8:	f000 fcc0 	bl	800226c <delay>
}
 80018ec:	f107 0708 	add.w	r7, r7, #8
 80018f0:	46bd      	mov	sp, r7
 80018f2:	bd80      	pop	{r7, pc}

080018f4 <pulse_R>:

void pulse_R()
{
 80018f4:	b580      	push	{r7, lr}
 80018f6:	af00      	add	r7, sp, #0
	delay(300);
 80018f8:	f44f 7096 	mov.w	r0, #300	; 0x12c
 80018fc:	f000 fcb6 	bl	800226c <delay>
	IO004_SetPin(CLK1);
 8001900:	f244 338c 	movw	r3, #17292	; 0x438c
 8001904:	f6c0 0300 	movt	r3, #2048	; 0x800
 8001908:	685a      	ldr	r2, [r3, #4]
 800190a:	f244 338c 	movw	r3, #17292	; 0x438c
 800190e:	f6c0 0300 	movt	r3, #2048	; 0x800
 8001912:	785b      	ldrb	r3, [r3, #1]
 8001914:	f04f 0101 	mov.w	r1, #1
 8001918:	fa01 f303 	lsl.w	r3, r1, r3
 800191c:	6053      	str	r3, [r2, #4]
	delay(300);
 800191e:	f44f 7096 	mov.w	r0, #300	; 0x12c
 8001922:	f000 fca3 	bl	800226c <delay>
	IO004_ResetPin(CLK1);
 8001926:	f244 338c 	movw	r3, #17292	; 0x438c
 800192a:	f6c0 0300 	movt	r3, #2048	; 0x800
 800192e:	685a      	ldr	r2, [r3, #4]
 8001930:	f244 338c 	movw	r3, #17292	; 0x438c
 8001934:	f6c0 0300 	movt	r3, #2048	; 0x800
 8001938:	785b      	ldrb	r3, [r3, #1]
 800193a:	f44f 3180 	mov.w	r1, #65536	; 0x10000
 800193e:	fa01 f303 	lsl.w	r3, r1, r3
 8001942:	6053      	str	r3, [r2, #4]
}
 8001944:	bd80      	pop	{r7, pc}
 8001946:	bf00      	nop

08001948 <configure_E>:

void configure_E()
{
 8001948:	b580      	push	{r7, lr}
 800194a:	b082      	sub	sp, #8
 800194c:	af00      	add	r7, sp, #0
	/*Atribuicao de valores ao vetor de configuracao do transceptor*/
	configuration[0] = 0xC4;//RF_CH# e OP_MODE 0b11011110
 800194e:	f240 0364 	movw	r3, #100	; 0x64
 8001952:	f2c2 0300 	movt	r3, #8192	; 0x2000
 8001956:	f04f 02c4 	mov.w	r2, #196	; 0xc4
 800195a:	701a      	strb	r2, [r3, #0]
	configuration[1] = 0x4F;//RX2_EN, CM, RFDR_SB13, X0_F, RF_PWR 0b01101111
 800195c:	f240 0364 	movw	r3, #100	; 0x64
 8001960:	f2c2 0300 	movt	r3, #8192	; 0x2000
 8001964:	f04f 024f 	mov.w	r2, #79	; 0x4f
 8001968:	705a      	strb	r2, [r3, #1]
	configuration[2] = 0xA3;//addr_w
 800196a:	f240 0364 	movw	r3, #100	; 0x64
 800196e:	f2c2 0300 	movt	r3, #8192	; 0x2000
 8001972:	f04f 02a3 	mov.w	r2, #163	; 0xa3
 8001976:	709a      	strb	r2, [r3, #2]
	configuration[3] = 0xEE;//Comeco enderco CH1 00000001
 8001978:	f240 0364 	movw	r3, #100	; 0x64
 800197c:	f2c2 0300 	movt	r3, #8192	; 0x2000
 8001980:	f04f 02ee 	mov.w	r2, #238	; 0xee
 8001984:	70da      	strb	r2, [r3, #3]
	configuration[4] = 0xDD;//0b00000000
 8001986:	f240 0364 	movw	r3, #100	; 0x64
 800198a:	f2c2 0300 	movt	r3, #8192	; 0x2000
 800198e:	f04f 02dd 	mov.w	r2, #221	; 0xdd
 8001992:	711a      	strb	r2, [r3, #4]
	configuration[5] = 0xCC;//0b11010100
 8001994:	f240 0364 	movw	r3, #100	; 0x64
 8001998:	f2c2 0300 	movt	r3, #8192	; 0x2000
 800199c:	f04f 02cc 	mov.w	r2, #204	; 0xcc
 80019a0:	715a      	strb	r2, [r3, #5]
	configuration[6] = 0xBB;//0b11011111
 80019a2:	f240 0364 	movw	r3, #100	; 0x64
 80019a6:	f2c2 0300 	movt	r3, #8192	; 0x2000
 80019aa:	f04f 02bb 	mov.w	r2, #187	; 0xbb
 80019ae:	719a      	strb	r2, [r3, #6]
	configuration[7] = 0xAA;//Fim enderco CH1 0b11101010
 80019b0:	f240 0364 	movw	r3, #100	; 0x64
 80019b4:	f2c2 0300 	movt	r3, #8192	; 0x2000
 80019b8:	f04f 02aa 	mov.w	r2, #170	; 0xaa
 80019bc:	71da      	strb	r2, [r3, #7]
	configuration[8] = 0b00000000;//Comeco enderco CH2
 80019be:	f240 0364 	movw	r3, #100	; 0x64
 80019c2:	f2c2 0300 	movt	r3, #8192	; 0x2000
 80019c6:	f04f 0200 	mov.w	r2, #0
 80019ca:	721a      	strb	r2, [r3, #8]
	configuration[9] = 0b00000000;
 80019cc:	f240 0364 	movw	r3, #100	; 0x64
 80019d0:	f2c2 0300 	movt	r3, #8192	; 0x2000
 80019d4:	f04f 0200 	mov.w	r2, #0
 80019d8:	725a      	strb	r2, [r3, #9]
	configuration[10] = 0b00000000;
 80019da:	f240 0364 	movw	r3, #100	; 0x64
 80019de:	f2c2 0300 	movt	r3, #8192	; 0x2000
 80019e2:	f04f 0200 	mov.w	r2, #0
 80019e6:	729a      	strb	r2, [r3, #10]
	configuration[11] = 0b00000000;
 80019e8:	f240 0364 	movw	r3, #100	; 0x64
 80019ec:	f2c2 0300 	movt	r3, #8192	; 0x2000
 80019f0:	f04f 0200 	mov.w	r2, #0
 80019f4:	72da      	strb	r2, [r3, #11]
	configuration[12] = 0b00000000;//Fim enderco CH2
 80019f6:	f240 0364 	movw	r3, #100	; 0x64
 80019fa:	f2c2 0300 	movt	r3, #8192	; 0x2000
 80019fe:	f04f 0200 	mov.w	r2, #0
 8001a02:	731a      	strb	r2, [r3, #12]
	configuration[13] = 0x20;//num bits enviados (1 byte nesse ex)
 8001a04:	f240 0364 	movw	r3, #100	; 0x64
 8001a08:	f2c2 0300 	movt	r3, #8192	; 0x2000
 8001a0c:	f04f 0220 	mov.w	r2, #32
 8001a10:	735a      	strb	r2, [r3, #13]
	configuration[14] = 0b00000000;
 8001a12:	f240 0364 	movw	r3, #100	; 0x64
 8001a16:	f2c2 0300 	movt	r3, #8192	; 0x2000
 8001a1a:	f04f 0200 	mov.w	r2, #0
 8001a1e:	739a      	strb	r2, [r3, #14]

	IO004_ResetPin(CE);
 8001a20:	f244 33a4 	movw	r3, #17316	; 0x43a4
 8001a24:	f6c0 0300 	movt	r3, #2048	; 0x800
 8001a28:	685a      	ldr	r2, [r3, #4]
 8001a2a:	f244 33a4 	movw	r3, #17316	; 0x43a4
 8001a2e:	f6c0 0300 	movt	r3, #2048	; 0x800
 8001a32:	785b      	ldrb	r3, [r3, #1]
 8001a34:	f44f 3180 	mov.w	r1, #65536	; 0x10000
 8001a38:	fa01 f303 	lsl.w	r3, r1, r3
 8001a3c:	6053      	str	r3, [r2, #4]
	IO004_SetPin(CS);
 8001a3e:	f244 336c 	movw	r3, #17260	; 0x436c
 8001a42:	f6c0 0300 	movt	r3, #2048	; 0x800
 8001a46:	685a      	ldr	r2, [r3, #4]
 8001a48:	f244 336c 	movw	r3, #17260	; 0x436c
 8001a4c:	f6c0 0300 	movt	r3, #2048	; 0x800
 8001a50:	785b      	ldrb	r3, [r3, #1]
 8001a52:	f04f 0101 	mov.w	r1, #1
 8001a56:	fa01 f303 	lsl.w	r3, r1, r3
 8001a5a:	6053      	str	r3, [r2, #4]
	int i, j;
	for (i = 14; i > -1; i--)
 8001a5c:	f04f 030e 	mov.w	r3, #14
 8001a60:	607b      	str	r3, [r7, #4]
 8001a62:	e03f      	b.n	8001ae4 <configure_E+0x19c>
	{
		for (j = 7; j > -1; j--)
 8001a64:	f04f 0307 	mov.w	r3, #7
 8001a68:	603b      	str	r3, [r7, #0]
 8001a6a:	e034      	b.n	8001ad6 <configure_E+0x18e>
		{
			if ((configuration[i]&(1<<j))>0) IO004_SetPin(DATA);
 8001a6c:	f240 0364 	movw	r3, #100	; 0x64
 8001a70:	f2c2 0300 	movt	r3, #8192	; 0x2000
 8001a74:	687a      	ldr	r2, [r7, #4]
 8001a76:	189b      	adds	r3, r3, r2
 8001a78:	781b      	ldrb	r3, [r3, #0]
 8001a7a:	461a      	mov	r2, r3
 8001a7c:	f04f 0101 	mov.w	r1, #1
 8001a80:	683b      	ldr	r3, [r7, #0]
 8001a82:	fa01 f303 	lsl.w	r3, r1, r3
 8001a86:	4013      	ands	r3, r2
 8001a88:	2b00      	cmp	r3, #0
 8001a8a:	dd0f      	ble.n	8001aac <configure_E+0x164>
 8001a8c:	f244 3394 	movw	r3, #17300	; 0x4394
 8001a90:	f6c0 0300 	movt	r3, #2048	; 0x800
 8001a94:	685a      	ldr	r2, [r3, #4]
 8001a96:	f244 3394 	movw	r3, #17300	; 0x4394
 8001a9a:	f6c0 0300 	movt	r3, #2048	; 0x800
 8001a9e:	785b      	ldrb	r3, [r3, #1]
 8001aa0:	f04f 0101 	mov.w	r1, #1
 8001aa4:	fa01 f303 	lsl.w	r3, r1, r3
 8001aa8:	6053      	str	r3, [r2, #4]
 8001aaa:	e00e      	b.n	8001aca <configure_E+0x182>
			else IO004_ResetPin(DATA);;
 8001aac:	f244 3394 	movw	r3, #17300	; 0x4394
 8001ab0:	f6c0 0300 	movt	r3, #2048	; 0x800
 8001ab4:	685a      	ldr	r2, [r3, #4]
 8001ab6:	f244 3394 	movw	r3, #17300	; 0x4394
 8001aba:	f6c0 0300 	movt	r3, #2048	; 0x800
 8001abe:	785b      	ldrb	r3, [r3, #1]
 8001ac0:	f44f 3180 	mov.w	r1, #65536	; 0x10000
 8001ac4:	fa01 f303 	lsl.w	r3, r1, r3
 8001ac8:	6053      	str	r3, [r2, #4]
			pulse_R();
 8001aca:	f7ff ff13 	bl	80018f4 <pulse_R>
	IO004_ResetPin(CE);
	IO004_SetPin(CS);
	int i, j;
	for (i = 14; i > -1; i--)
	{
		for (j = 7; j > -1; j--)
 8001ace:	683b      	ldr	r3, [r7, #0]
 8001ad0:	f103 33ff 	add.w	r3, r3, #4294967295
 8001ad4:	603b      	str	r3, [r7, #0]
 8001ad6:	683b      	ldr	r3, [r7, #0]
 8001ad8:	2b00      	cmp	r3, #0
 8001ada:	dac7      	bge.n	8001a6c <configure_E+0x124>
	configuration[14] = 0b00000000;

	IO004_ResetPin(CE);
	IO004_SetPin(CS);
	int i, j;
	for (i = 14; i > -1; i--)
 8001adc:	687b      	ldr	r3, [r7, #4]
 8001ade:	f103 33ff 	add.w	r3, r3, #4294967295
 8001ae2:	607b      	str	r3, [r7, #4]
 8001ae4:	687b      	ldr	r3, [r7, #4]
 8001ae6:	2b00      	cmp	r3, #0
 8001ae8:	dabc      	bge.n	8001a64 <configure_E+0x11c>
			if ((configuration[i]&(1<<j))>0) IO004_SetPin(DATA);
			else IO004_ResetPin(DATA);;
			pulse_R();
		}
	}
	IO004_ResetPin(CS);
 8001aea:	f244 336c 	movw	r3, #17260	; 0x436c
 8001aee:	f6c0 0300 	movt	r3, #2048	; 0x800
 8001af2:	685a      	ldr	r2, [r3, #4]
 8001af4:	f244 336c 	movw	r3, #17260	; 0x436c
 8001af8:	f6c0 0300 	movt	r3, #2048	; 0x800
 8001afc:	785b      	ldrb	r3, [r3, #1]
 8001afe:	f44f 3180 	mov.w	r1, #65536	; 0x10000
 8001b02:	fa01 f303 	lsl.w	r3, r1, r3
 8001b06:	6053      	str	r3, [r2, #4]
	delay(50000);
 8001b08:	f24c 3050 	movw	r0, #50000	; 0xc350
 8001b0c:	f000 fbae 	bl	800226c <delay>
}
 8001b10:	f107 0708 	add.w	r7, r7, #8
 8001b14:	46bd      	mov	sp, r7
 8001b16:	bd80      	pop	{r7, pc}

08001b18 <write_E>:
void write_E()
{
 8001b18:	b580      	push	{r7, lr}
 8001b1a:	b082      	sub	sp, #8
 8001b1c:	af00      	add	r7, sp, #0
	int i, j;
	IO004_SetPin(CE);
 8001b1e:	f244 33a4 	movw	r3, #17316	; 0x43a4
 8001b22:	f6c0 0300 	movt	r3, #2048	; 0x800
 8001b26:	685a      	ldr	r2, [r3, #4]
 8001b28:	f244 33a4 	movw	r3, #17316	; 0x43a4
 8001b2c:	f6c0 0300 	movt	r3, #2048	; 0x800
 8001b30:	785b      	ldrb	r3, [r3, #1]
 8001b32:	f04f 0101 	mov.w	r1, #1
 8001b36:	fa01 f303 	lsl.w	r3, r1, r3
 8001b3a:	6053      	str	r3, [r2, #4]
	delay(1000);
 8001b3c:	f44f 707a 	mov.w	r0, #1000	; 0x3e8
 8001b40:	f000 fb94 	bl	800226c <delay>
	for (i = 7; i > 2 ; i --)
 8001b44:	f04f 0307 	mov.w	r3, #7
 8001b48:	607b      	str	r3, [r7, #4]
 8001b4a:	e03f      	b.n	8001bcc <write_E+0xb4>
	{
		for (j = 7; j > -1; j --)
 8001b4c:	f04f 0307 	mov.w	r3, #7
 8001b50:	603b      	str	r3, [r7, #0]
 8001b52:	e034      	b.n	8001bbe <write_E+0xa6>
		{
			if ((configuration[i]&(1<<j))>0) IO004_SetPin(DATA);
 8001b54:	f240 0364 	movw	r3, #100	; 0x64
 8001b58:	f2c2 0300 	movt	r3, #8192	; 0x2000
 8001b5c:	687a      	ldr	r2, [r7, #4]
 8001b5e:	189b      	adds	r3, r3, r2
 8001b60:	781b      	ldrb	r3, [r3, #0]
 8001b62:	461a      	mov	r2, r3
 8001b64:	f04f 0101 	mov.w	r1, #1
 8001b68:	683b      	ldr	r3, [r7, #0]
 8001b6a:	fa01 f303 	lsl.w	r3, r1, r3
 8001b6e:	4013      	ands	r3, r2
 8001b70:	2b00      	cmp	r3, #0
 8001b72:	dd0f      	ble.n	8001b94 <write_E+0x7c>
 8001b74:	f244 3394 	movw	r3, #17300	; 0x4394
 8001b78:	f6c0 0300 	movt	r3, #2048	; 0x800
 8001b7c:	685a      	ldr	r2, [r3, #4]
 8001b7e:	f244 3394 	movw	r3, #17300	; 0x4394
 8001b82:	f6c0 0300 	movt	r3, #2048	; 0x800
 8001b86:	785b      	ldrb	r3, [r3, #1]
 8001b88:	f04f 0101 	mov.w	r1, #1
 8001b8c:	fa01 f303 	lsl.w	r3, r1, r3
 8001b90:	6053      	str	r3, [r2, #4]
 8001b92:	e00e      	b.n	8001bb2 <write_E+0x9a>
			else IO004_ResetPin(DATA);
 8001b94:	f244 3394 	movw	r3, #17300	; 0x4394
 8001b98:	f6c0 0300 	movt	r3, #2048	; 0x800
 8001b9c:	685a      	ldr	r2, [r3, #4]
 8001b9e:	f244 3394 	movw	r3, #17300	; 0x4394
 8001ba2:	f6c0 0300 	movt	r3, #2048	; 0x800
 8001ba6:	785b      	ldrb	r3, [r3, #1]
 8001ba8:	f44f 3180 	mov.w	r1, #65536	; 0x10000
 8001bac:	fa01 f303 	lsl.w	r3, r1, r3
 8001bb0:	6053      	str	r3, [r2, #4]
			pulse_R();
 8001bb2:	f7ff fe9f 	bl	80018f4 <pulse_R>
	int i, j;
	IO004_SetPin(CE);
	delay(1000);
	for (i = 7; i > 2 ; i --)
	{
		for (j = 7; j > -1; j --)
 8001bb6:	683b      	ldr	r3, [r7, #0]
 8001bb8:	f103 33ff 	add.w	r3, r3, #4294967295
 8001bbc:	603b      	str	r3, [r7, #0]
 8001bbe:	683b      	ldr	r3, [r7, #0]
 8001bc0:	2b00      	cmp	r3, #0
 8001bc2:	dac7      	bge.n	8001b54 <write_E+0x3c>
void write_E()
{
	int i, j;
	IO004_SetPin(CE);
	delay(1000);
	for (i = 7; i > 2 ; i --)
 8001bc4:	687b      	ldr	r3, [r7, #4]
 8001bc6:	f103 33ff 	add.w	r3, r3, #4294967295
 8001bca:	607b      	str	r3, [r7, #4]
 8001bcc:	687b      	ldr	r3, [r7, #4]
 8001bce:	2b02      	cmp	r3, #2
 8001bd0:	dcbc      	bgt.n	8001b4c <write_E+0x34>
			if ((configuration[i]&(1<<j))>0) IO004_SetPin(DATA);
			else IO004_ResetPin(DATA);
			pulse_R();
		}
	}
	for (i = 0; i < BYTES_TO_SEND; i++)
 8001bd2:	f04f 0300 	mov.w	r3, #0
 8001bd6:	607b      	str	r3, [r7, #4]
 8001bd8:	e03f      	b.n	8001c5a <write_E+0x142>
	{
		for (j = 7; j > -1; j --)
 8001bda:	f04f 0307 	mov.w	r3, #7
 8001bde:	603b      	str	r3, [r7, #0]
 8001be0:	e034      	b.n	8001c4c <write_E+0x134>
		{
			if ((data_E[i] & (1<<j))>0) IO004_SetPin(DATA);
 8001be2:	f240 0374 	movw	r3, #116	; 0x74
 8001be6:	f2c2 0300 	movt	r3, #8192	; 0x2000
 8001bea:	687a      	ldr	r2, [r7, #4]
 8001bec:	189b      	adds	r3, r3, r2
 8001bee:	781b      	ldrb	r3, [r3, #0]
 8001bf0:	461a      	mov	r2, r3
 8001bf2:	f04f 0101 	mov.w	r1, #1
 8001bf6:	683b      	ldr	r3, [r7, #0]
 8001bf8:	fa01 f303 	lsl.w	r3, r1, r3
 8001bfc:	4013      	ands	r3, r2
 8001bfe:	2b00      	cmp	r3, #0
 8001c00:	dd0f      	ble.n	8001c22 <write_E+0x10a>
 8001c02:	f244 3394 	movw	r3, #17300	; 0x4394
 8001c06:	f6c0 0300 	movt	r3, #2048	; 0x800
 8001c0a:	685a      	ldr	r2, [r3, #4]
 8001c0c:	f244 3394 	movw	r3, #17300	; 0x4394
 8001c10:	f6c0 0300 	movt	r3, #2048	; 0x800
 8001c14:	785b      	ldrb	r3, [r3, #1]
 8001c16:	f04f 0101 	mov.w	r1, #1
 8001c1a:	fa01 f303 	lsl.w	r3, r1, r3
 8001c1e:	6053      	str	r3, [r2, #4]
 8001c20:	e00e      	b.n	8001c40 <write_E+0x128>
			else IO004_ResetPin(DATA);
 8001c22:	f244 3394 	movw	r3, #17300	; 0x4394
 8001c26:	f6c0 0300 	movt	r3, #2048	; 0x800
 8001c2a:	685a      	ldr	r2, [r3, #4]
 8001c2c:	f244 3394 	movw	r3, #17300	; 0x4394
 8001c30:	f6c0 0300 	movt	r3, #2048	; 0x800
 8001c34:	785b      	ldrb	r3, [r3, #1]
 8001c36:	f44f 3180 	mov.w	r1, #65536	; 0x10000
 8001c3a:	fa01 f303 	lsl.w	r3, r1, r3
 8001c3e:	6053      	str	r3, [r2, #4]
			pulse_R();
 8001c40:	f7ff fe58 	bl	80018f4 <pulse_R>
			pulse_R();
		}
	}
	for (i = 0; i < BYTES_TO_SEND; i++)
	{
		for (j = 7; j > -1; j --)
 8001c44:	683b      	ldr	r3, [r7, #0]
 8001c46:	f103 33ff 	add.w	r3, r3, #4294967295
 8001c4a:	603b      	str	r3, [r7, #0]
 8001c4c:	683b      	ldr	r3, [r7, #0]
 8001c4e:	2b00      	cmp	r3, #0
 8001c50:	dac7      	bge.n	8001be2 <write_E+0xca>
			if ((configuration[i]&(1<<j))>0) IO004_SetPin(DATA);
			else IO004_ResetPin(DATA);
			pulse_R();
		}
	}
	for (i = 0; i < BYTES_TO_SEND; i++)
 8001c52:	687b      	ldr	r3, [r7, #4]
 8001c54:	f103 0301 	add.w	r3, r3, #1
 8001c58:	607b      	str	r3, [r7, #4]
 8001c5a:	687b      	ldr	r3, [r7, #4]
 8001c5c:	2b03      	cmp	r3, #3
 8001c5e:	ddbc      	ble.n	8001bda <write_E+0xc2>
			if ((data_E[i] & (1<<j))>0) IO004_SetPin(DATA);
			else IO004_ResetPin(DATA);
			pulse_R();
		}
	}//termina de enviar dados
	IO004_ResetPin(CE);
 8001c60:	f244 33a4 	movw	r3, #17316	; 0x43a4
 8001c64:	f6c0 0300 	movt	r3, #2048	; 0x800
 8001c68:	685a      	ldr	r2, [r3, #4]
 8001c6a:	f244 33a4 	movw	r3, #17316	; 0x43a4
 8001c6e:	f6c0 0300 	movt	r3, #2048	; 0x800
 8001c72:	785b      	ldrb	r3, [r3, #1]
 8001c74:	f44f 3180 	mov.w	r1, #65536	; 0x10000
 8001c78:	fa01 f303 	lsl.w	r3, r1, r3
 8001c7c:	6053      	str	r3, [r2, #4]
	delay(5000);
 8001c7e:	f241 3088 	movw	r0, #5000	; 0x1388
 8001c82:	f000 faf3 	bl	800226c <delay>
}
 8001c86:	f107 0708 	add.w	r7, r7, #8
 8001c8a:	46bd      	mov	sp, r7
 8001c8c:	bd80      	pop	{r7, pc}
 8001c8e:	bf00      	nop

08001c90 <psxConfiguraControle>:
/***************************************************/
/****************FUNCOES DO CONTROLE****************/
/***************************************************/
void psxConfiguraControle()
{
 8001c90:	b580      	push	{r7, lr}
 8001c92:	af00      	add	r7, sp, #0
	psxEnterConfigMode();
 8001c94:	f000 f806 	bl	8001ca4 <psxEnterConfigMode>
	psxSetAnalogMode();
 8001c98:	f000 f86c 	bl	8001d74 <psxSetAnalogMode>
	psxExitConfigMode();
 8001c9c:	f000 f8ea 	bl	8001e74 <psxExitConfigMode>
}
 8001ca0:	bd80      	pop	{r7, pc}
 8001ca2:	bf00      	nop

08001ca4 <psxEnterConfigMode>:

void psxEnterConfigMode()
{
 8001ca4:	b580      	push	{r7, lr}
 8001ca6:	b082      	sub	sp, #8
 8001ca8:	af00      	add	r7, sp, #0
	int psxByte = 0;
 8001caa:	f04f 0300 	mov.w	r3, #0
 8001cae:	607b      	str	r3, [r7, #4]
	IO004_SetPin(CMD);
 8001cb0:	f244 3384 	movw	r3, #17284	; 0x4384
 8001cb4:	f6c0 0300 	movt	r3, #2048	; 0x800
 8001cb8:	685a      	ldr	r2, [r3, #4]
 8001cba:	f244 3384 	movw	r3, #17284	; 0x4384
 8001cbe:	f6c0 0300 	movt	r3, #2048	; 0x800
 8001cc2:	785b      	ldrb	r3, [r3, #1]
 8001cc4:	f04f 0101 	mov.w	r1, #1
 8001cc8:	fa01 f303 	lsl.w	r3, r1, r3
 8001ccc:	6053      	str	r3, [r2, #4]
	IO004_SetPin(CONT_CLK);
 8001cce:	f244 3374 	movw	r3, #17268	; 0x4374
 8001cd2:	f6c0 0300 	movt	r3, #2048	; 0x800
 8001cd6:	685a      	ldr	r2, [r3, #4]
 8001cd8:	f244 3374 	movw	r3, #17268	; 0x4374
 8001cdc:	f6c0 0300 	movt	r3, #2048	; 0x800
 8001ce0:	785b      	ldrb	r3, [r3, #1]
 8001ce2:	f04f 0101 	mov.w	r1, #1
 8001ce6:	fa01 f303 	lsl.w	r3, r1, r3
 8001cea:	6053      	str	r3, [r2, #4]
	IO004_ResetPin(ATT);
 8001cec:	f244 337c 	movw	r3, #17276	; 0x437c
 8001cf0:	f6c0 0300 	movt	r3, #2048	; 0x800
 8001cf4:	685a      	ldr	r2, [r3, #4]
 8001cf6:	f244 337c 	movw	r3, #17276	; 0x437c
 8001cfa:	f6c0 0300 	movt	r3, #2048	; 0x800
 8001cfe:	785b      	ldrb	r3, [r3, #1]
 8001d00:	f44f 3180 	mov.w	r1, #65536	; 0x10000
 8001d04:	fa01 f303 	lsl.w	r3, r1, r3
 8001d08:	6053      	str	r3, [r2, #4]
	delay(tempoInicio);
 8001d0a:	f44f 7096 	mov.w	r0, #300	; 0x12c
 8001d0e:	f000 faad 	bl	800226c <delay>

	psxByte = 1;
 8001d12:	f04f 0301 	mov.w	r3, #1
 8001d16:	607b      	str	r3, [r7, #4]
	psxTrocaByte(psxByte);
 8001d18:	6878      	ldr	r0, [r7, #4]
 8001d1a:	f000 fa15 	bl	8002148 <psxTrocaByte>

	psxByte = 0x43;
 8001d1e:	f04f 0343 	mov.w	r3, #67	; 0x43
 8001d22:	607b      	str	r3, [r7, #4]
	psxTrocaByte(psxByte);
 8001d24:	6878      	ldr	r0, [r7, #4]
 8001d26:	f000 fa0f 	bl	8002148 <psxTrocaByte>

	psxByte = 0;
 8001d2a:	f04f 0300 	mov.w	r3, #0
 8001d2e:	607b      	str	r3, [r7, #4]
	psxTrocaByte(psxByte);
 8001d30:	6878      	ldr	r0, [r7, #4]
 8001d32:	f000 fa09 	bl	8002148 <psxTrocaByte>

	psxByte = 0x1;
 8001d36:	f04f 0301 	mov.w	r3, #1
 8001d3a:	607b      	str	r3, [r7, #4]
	psxTrocaByte(psxByte);
 8001d3c:	6878      	ldr	r0, [r7, #4]
 8001d3e:	f000 fa03 	bl	8002148 <psxTrocaByte>

	psxByte = 0;
 8001d42:	f04f 0300 	mov.w	r3, #0
 8001d46:	607b      	str	r3, [r7, #4]
	psxTrocaByte(psxByte);
 8001d48:	6878      	ldr	r0, [r7, #4]
 8001d4a:	f000 f9fd 	bl	8002148 <psxTrocaByte>

	IO004_SetPin(ATT);
 8001d4e:	f244 337c 	movw	r3, #17276	; 0x437c
 8001d52:	f6c0 0300 	movt	r3, #2048	; 0x800
 8001d56:	685a      	ldr	r2, [r3, #4]
 8001d58:	f244 337c 	movw	r3, #17276	; 0x437c
 8001d5c:	f6c0 0300 	movt	r3, #2048	; 0x800
 8001d60:	785b      	ldrb	r3, [r3, #1]
 8001d62:	f04f 0101 	mov.w	r1, #1
 8001d66:	fa01 f303 	lsl.w	r3, r1, r3
 8001d6a:	6053      	str	r3, [r2, #4]
}
 8001d6c:	f107 0708 	add.w	r7, r7, #8
 8001d70:	46bd      	mov	sp, r7
 8001d72:	bd80      	pop	{r7, pc}

08001d74 <psxSetAnalogMode>:

void psxSetAnalogMode()
{
 8001d74:	b580      	push	{r7, lr}
 8001d76:	b082      	sub	sp, #8
 8001d78:	af00      	add	r7, sp, #0
	int psxByte = 0;
 8001d7a:	f04f 0300 	mov.w	r3, #0
 8001d7e:	607b      	str	r3, [r7, #4]
	IO004_SetPin(CMD);
 8001d80:	f244 3384 	movw	r3, #17284	; 0x4384
 8001d84:	f6c0 0300 	movt	r3, #2048	; 0x800
 8001d88:	685a      	ldr	r2, [r3, #4]
 8001d8a:	f244 3384 	movw	r3, #17284	; 0x4384
 8001d8e:	f6c0 0300 	movt	r3, #2048	; 0x800
 8001d92:	785b      	ldrb	r3, [r3, #1]
 8001d94:	f04f 0101 	mov.w	r1, #1
 8001d98:	fa01 f303 	lsl.w	r3, r1, r3
 8001d9c:	6053      	str	r3, [r2, #4]
	IO004_SetPin(CONT_CLK);
 8001d9e:	f244 3374 	movw	r3, #17268	; 0x4374
 8001da2:	f6c0 0300 	movt	r3, #2048	; 0x800
 8001da6:	685a      	ldr	r2, [r3, #4]
 8001da8:	f244 3374 	movw	r3, #17268	; 0x4374
 8001dac:	f6c0 0300 	movt	r3, #2048	; 0x800
 8001db0:	785b      	ldrb	r3, [r3, #1]
 8001db2:	f04f 0101 	mov.w	r1, #1
 8001db6:	fa01 f303 	lsl.w	r3, r1, r3
 8001dba:	6053      	str	r3, [r2, #4]
	IO004_ResetPin(ATT);
 8001dbc:	f244 337c 	movw	r3, #17276	; 0x437c
 8001dc0:	f6c0 0300 	movt	r3, #2048	; 0x800
 8001dc4:	685a      	ldr	r2, [r3, #4]
 8001dc6:	f244 337c 	movw	r3, #17276	; 0x437c
 8001dca:	f6c0 0300 	movt	r3, #2048	; 0x800
 8001dce:	785b      	ldrb	r3, [r3, #1]
 8001dd0:	f44f 3180 	mov.w	r1, #65536	; 0x10000
 8001dd4:	fa01 f303 	lsl.w	r3, r1, r3
 8001dd8:	6053      	str	r3, [r2, #4]
	delay(tempoInicio);
 8001dda:	f44f 7096 	mov.w	r0, #300	; 0x12c
 8001dde:	f000 fa45 	bl	800226c <delay>

	psxByte = 1;
 8001de2:	f04f 0301 	mov.w	r3, #1
 8001de6:	607b      	str	r3, [r7, #4]
	psxTrocaByte(psxByte);
 8001de8:	6878      	ldr	r0, [r7, #4]
 8001dea:	f000 f9ad 	bl	8002148 <psxTrocaByte>

	psxByte = 0x44;
 8001dee:	f04f 0344 	mov.w	r3, #68	; 0x44
 8001df2:	607b      	str	r3, [r7, #4]
	psxTrocaByte(psxByte);
 8001df4:	6878      	ldr	r0, [r7, #4]
 8001df6:	f000 f9a7 	bl	8002148 <psxTrocaByte>

	psxByte = 0;
 8001dfa:	f04f 0300 	mov.w	r3, #0
 8001dfe:	607b      	str	r3, [r7, #4]
	psxTrocaByte(psxByte);
 8001e00:	6878      	ldr	r0, [r7, #4]
 8001e02:	f000 f9a1 	bl	8002148 <psxTrocaByte>

	psxByte = 0x1;
 8001e06:	f04f 0301 	mov.w	r3, #1
 8001e0a:	607b      	str	r3, [r7, #4]
	psxTrocaByte(psxByte);
 8001e0c:	6878      	ldr	r0, [r7, #4]
 8001e0e:	f000 f99b 	bl	8002148 <psxTrocaByte>

	psxByte = 0x3;
 8001e12:	f04f 0303 	mov.w	r3, #3
 8001e16:	607b      	str	r3, [r7, #4]
	psxTrocaByte(psxByte);
 8001e18:	6878      	ldr	r0, [r7, #4]
 8001e1a:	f000 f995 	bl	8002148 <psxTrocaByte>

	psxByte = 0;
 8001e1e:	f04f 0300 	mov.w	r3, #0
 8001e22:	607b      	str	r3, [r7, #4]
	psxTrocaByte(psxByte);
 8001e24:	6878      	ldr	r0, [r7, #4]
 8001e26:	f000 f98f 	bl	8002148 <psxTrocaByte>

	psxByte = 0;
 8001e2a:	f04f 0300 	mov.w	r3, #0
 8001e2e:	607b      	str	r3, [r7, #4]
	psxTrocaByte(psxByte);
 8001e30:	6878      	ldr	r0, [r7, #4]
 8001e32:	f000 f989 	bl	8002148 <psxTrocaByte>

	psxByte = 0;
 8001e36:	f04f 0300 	mov.w	r3, #0
 8001e3a:	607b      	str	r3, [r7, #4]
	psxTrocaByte(psxByte);
 8001e3c:	6878      	ldr	r0, [r7, #4]
 8001e3e:	f000 f983 	bl	8002148 <psxTrocaByte>

	psxByte = 0;
 8001e42:	f04f 0300 	mov.w	r3, #0
 8001e46:	607b      	str	r3, [r7, #4]
	psxTrocaByte(psxByte);
 8001e48:	6878      	ldr	r0, [r7, #4]
 8001e4a:	f000 f97d 	bl	8002148 <psxTrocaByte>

	IO004_SetPin(ATT);
 8001e4e:	f244 337c 	movw	r3, #17276	; 0x437c
 8001e52:	f6c0 0300 	movt	r3, #2048	; 0x800
 8001e56:	685a      	ldr	r2, [r3, #4]
 8001e58:	f244 337c 	movw	r3, #17276	; 0x437c
 8001e5c:	f6c0 0300 	movt	r3, #2048	; 0x800
 8001e60:	785b      	ldrb	r3, [r3, #1]
 8001e62:	f04f 0101 	mov.w	r1, #1
 8001e66:	fa01 f303 	lsl.w	r3, r1, r3
 8001e6a:	6053      	str	r3, [r2, #4]
}
 8001e6c:	f107 0708 	add.w	r7, r7, #8
 8001e70:	46bd      	mov	sp, r7
 8001e72:	bd80      	pop	{r7, pc}

08001e74 <psxExitConfigMode>:

void psxExitConfigMode()
{
 8001e74:	b580      	push	{r7, lr}
 8001e76:	b082      	sub	sp, #8
 8001e78:	af00      	add	r7, sp, #0
	int psxByte = 0;
 8001e7a:	f04f 0300 	mov.w	r3, #0
 8001e7e:	607b      	str	r3, [r7, #4]
	IO004_SetPin(CMD);
 8001e80:	f244 3384 	movw	r3, #17284	; 0x4384
 8001e84:	f6c0 0300 	movt	r3, #2048	; 0x800
 8001e88:	685a      	ldr	r2, [r3, #4]
 8001e8a:	f244 3384 	movw	r3, #17284	; 0x4384
 8001e8e:	f6c0 0300 	movt	r3, #2048	; 0x800
 8001e92:	785b      	ldrb	r3, [r3, #1]
 8001e94:	f04f 0101 	mov.w	r1, #1
 8001e98:	fa01 f303 	lsl.w	r3, r1, r3
 8001e9c:	6053      	str	r3, [r2, #4]
	IO004_SetPin(CONT_CLK);
 8001e9e:	f244 3374 	movw	r3, #17268	; 0x4374
 8001ea2:	f6c0 0300 	movt	r3, #2048	; 0x800
 8001ea6:	685a      	ldr	r2, [r3, #4]
 8001ea8:	f244 3374 	movw	r3, #17268	; 0x4374
 8001eac:	f6c0 0300 	movt	r3, #2048	; 0x800
 8001eb0:	785b      	ldrb	r3, [r3, #1]
 8001eb2:	f04f 0101 	mov.w	r1, #1
 8001eb6:	fa01 f303 	lsl.w	r3, r1, r3
 8001eba:	6053      	str	r3, [r2, #4]
	IO004_ResetPin(ATT);
 8001ebc:	f244 337c 	movw	r3, #17276	; 0x437c
 8001ec0:	f6c0 0300 	movt	r3, #2048	; 0x800
 8001ec4:	685a      	ldr	r2, [r3, #4]
 8001ec6:	f244 337c 	movw	r3, #17276	; 0x437c
 8001eca:	f6c0 0300 	movt	r3, #2048	; 0x800
 8001ece:	785b      	ldrb	r3, [r3, #1]
 8001ed0:	f44f 3180 	mov.w	r1, #65536	; 0x10000
 8001ed4:	fa01 f303 	lsl.w	r3, r1, r3
 8001ed8:	6053      	str	r3, [r2, #4]
	delay(tempoInicio);
 8001eda:	f44f 7096 	mov.w	r0, #300	; 0x12c
 8001ede:	f000 f9c5 	bl	800226c <delay>

	psxByte = 1;
 8001ee2:	f04f 0301 	mov.w	r3, #1
 8001ee6:	607b      	str	r3, [r7, #4]
	psxTrocaByte(psxByte);
 8001ee8:	6878      	ldr	r0, [r7, #4]
 8001eea:	f000 f92d 	bl	8002148 <psxTrocaByte>

	psxByte = 0x43;
 8001eee:	f04f 0343 	mov.w	r3, #67	; 0x43
 8001ef2:	607b      	str	r3, [r7, #4]
	psxTrocaByte(psxByte);
 8001ef4:	6878      	ldr	r0, [r7, #4]
 8001ef6:	f000 f927 	bl	8002148 <psxTrocaByte>

	psxByte = 0;
 8001efa:	f04f 0300 	mov.w	r3, #0
 8001efe:	607b      	str	r3, [r7, #4]
	psxTrocaByte(psxByte);
 8001f00:	6878      	ldr	r0, [r7, #4]
 8001f02:	f000 f921 	bl	8002148 <psxTrocaByte>

	psxByte = 0;
 8001f06:	f04f 0300 	mov.w	r3, #0
 8001f0a:	607b      	str	r3, [r7, #4]
	psxTrocaByte(psxByte);
 8001f0c:	6878      	ldr	r0, [r7, #4]
 8001f0e:	f000 f91b 	bl	8002148 <psxTrocaByte>

	psxByte = 0x5A;
 8001f12:	f04f 035a 	mov.w	r3, #90	; 0x5a
 8001f16:	607b      	str	r3, [r7, #4]
	psxTrocaByte(psxByte);
 8001f18:	6878      	ldr	r0, [r7, #4]
 8001f1a:	f000 f915 	bl	8002148 <psxTrocaByte>

	psxByte = 0x5A;
 8001f1e:	f04f 035a 	mov.w	r3, #90	; 0x5a
 8001f22:	607b      	str	r3, [r7, #4]
	psxTrocaByte(psxByte);
 8001f24:	6878      	ldr	r0, [r7, #4]
 8001f26:	f000 f90f 	bl	8002148 <psxTrocaByte>

	psxByte = 0x5A;
 8001f2a:	f04f 035a 	mov.w	r3, #90	; 0x5a
 8001f2e:	607b      	str	r3, [r7, #4]
	psxTrocaByte(psxByte);
 8001f30:	6878      	ldr	r0, [r7, #4]
 8001f32:	f000 f909 	bl	8002148 <psxTrocaByte>

	psxByte = 0x5A;
 8001f36:	f04f 035a 	mov.w	r3, #90	; 0x5a
 8001f3a:	607b      	str	r3, [r7, #4]
	psxTrocaByte(psxByte);
 8001f3c:	6878      	ldr	r0, [r7, #4]
 8001f3e:	f000 f903 	bl	8002148 <psxTrocaByte>

	psxByte = 0x5A;
 8001f42:	f04f 035a 	mov.w	r3, #90	; 0x5a
 8001f46:	607b      	str	r3, [r7, #4]
	psxTrocaByte(psxByte);
 8001f48:	6878      	ldr	r0, [r7, #4]
 8001f4a:	f000 f8fd 	bl	8002148 <psxTrocaByte>

	IO004_SetPin(ATT);
 8001f4e:	f244 337c 	movw	r3, #17276	; 0x437c
 8001f52:	f6c0 0300 	movt	r3, #2048	; 0x800
 8001f56:	685a      	ldr	r2, [r3, #4]
 8001f58:	f244 337c 	movw	r3, #17276	; 0x437c
 8001f5c:	f6c0 0300 	movt	r3, #2048	; 0x800
 8001f60:	785b      	ldrb	r3, [r3, #1]
 8001f62:	f04f 0101 	mov.w	r1, #1
 8001f66:	fa01 f303 	lsl.w	r3, r1, r3
 8001f6a:	6053      	str	r3, [r2, #4]
}
 8001f6c:	f107 0708 	add.w	r7, r7, #8
 8001f70:	46bd      	mov	sp, r7
 8001f72:	bd80      	pop	{r7, pc}

08001f74 <psxLeControle>:

void psxLeControle()
{
 8001f74:	b580      	push	{r7, lr}
 8001f76:	b082      	sub	sp, #8
 8001f78:	af00      	add	r7, sp, #0
	int psxByte = 0;
 8001f7a:	f04f 0300 	mov.w	r3, #0
 8001f7e:	603b      	str	r3, [r7, #0]
	int psxCont;

	IO004_SetPin(CMD);
 8001f80:	f244 3384 	movw	r3, #17284	; 0x4384
 8001f84:	f6c0 0300 	movt	r3, #2048	; 0x800
 8001f88:	685a      	ldr	r2, [r3, #4]
 8001f8a:	f244 3384 	movw	r3, #17284	; 0x4384
 8001f8e:	f6c0 0300 	movt	r3, #2048	; 0x800
 8001f92:	785b      	ldrb	r3, [r3, #1]
 8001f94:	f04f 0101 	mov.w	r1, #1
 8001f98:	fa01 f303 	lsl.w	r3, r1, r3
 8001f9c:	6053      	str	r3, [r2, #4]
	IO004_SetPin(CONT_CLK);
 8001f9e:	f244 3374 	movw	r3, #17268	; 0x4374
 8001fa2:	f6c0 0300 	movt	r3, #2048	; 0x800
 8001fa6:	685a      	ldr	r2, [r3, #4]
 8001fa8:	f244 3374 	movw	r3, #17268	; 0x4374
 8001fac:	f6c0 0300 	movt	r3, #2048	; 0x800
 8001fb0:	785b      	ldrb	r3, [r3, #1]
 8001fb2:	f04f 0101 	mov.w	r1, #1
 8001fb6:	fa01 f303 	lsl.w	r3, r1, r3
 8001fba:	6053      	str	r3, [r2, #4]
	IO004_ResetPin(ATT);
 8001fbc:	f244 337c 	movw	r3, #17276	; 0x437c
 8001fc0:	f6c0 0300 	movt	r3, #2048	; 0x800
 8001fc4:	685a      	ldr	r2, [r3, #4]
 8001fc6:	f244 337c 	movw	r3, #17276	; 0x437c
 8001fca:	f6c0 0300 	movt	r3, #2048	; 0x800
 8001fce:	785b      	ldrb	r3, [r3, #1]
 8001fd0:	f44f 3180 	mov.w	r1, #65536	; 0x10000
 8001fd4:	fa01 f303 	lsl.w	r3, r1, r3
 8001fd8:	6053      	str	r3, [r2, #4]
	delay(tempoInicio);
 8001fda:	f44f 7096 	mov.w	r0, #300	; 0x12c
 8001fde:	f000 f945 	bl	800226c <delay>

	psxByte = 1;
 8001fe2:	f04f 0301 	mov.w	r3, #1
 8001fe6:	603b      	str	r3, [r7, #0]
	psxTrocaByte(psxByte);
 8001fe8:	6838      	ldr	r0, [r7, #0]
 8001fea:	f000 f8ad 	bl	8002148 <psxTrocaByte>

	psxByte = 0x42;
 8001fee:	f04f 0342 	mov.w	r3, #66	; 0x42
 8001ff2:	603b      	str	r3, [r7, #0]
	psx_status = psxTrocaByte(psxByte);
 8001ff4:	6838      	ldr	r0, [r7, #0]
 8001ff6:	f000 f8a7 	bl	8002148 <psxTrocaByte>
 8001ffa:	4603      	mov	r3, r0
 8001ffc:	b2da      	uxtb	r2, r3
 8001ffe:	f240 0373 	movw	r3, #115	; 0x73
 8002002:	f2c2 0300 	movt	r3, #8192	; 0x2000
 8002006:	701a      	strb	r2, [r3, #0]

	psxByte = 0;
 8002008:	f04f 0300 	mov.w	r3, #0
 800200c:	603b      	str	r3, [r7, #0]
	psxTrocaByte(psxByte);
 800200e:	6838      	ldr	r0, [r7, #0]
 8002010:	f000 f89a 	bl	8002148 <psxTrocaByte>

	for (psxCont = 0; psxCont<6; psxCont++)
 8002014:	f04f 0300 	mov.w	r3, #0
 8002018:	607b      	str	r3, [r7, #4]
 800201a:	e00f      	b.n	800203c <psxLeControle+0xc8>
		psxDado[psxCont] = psxTrocaByte(0);
 800201c:	f04f 0000 	mov.w	r0, #0
 8002020:	f000 f892 	bl	8002148 <psxTrocaByte>
 8002024:	4601      	mov	r1, r0
 8002026:	f240 0378 	movw	r3, #120	; 0x78
 800202a:	f2c2 0300 	movt	r3, #8192	; 0x2000
 800202e:	687a      	ldr	r2, [r7, #4]
 8002030:	f843 1022 	str.w	r1, [r3, r2, lsl #2]
	psx_status = psxTrocaByte(psxByte);

	psxByte = 0;
	psxTrocaByte(psxByte);

	for (psxCont = 0; psxCont<6; psxCont++)
 8002034:	687b      	ldr	r3, [r7, #4]
 8002036:	f103 0301 	add.w	r3, r3, #1
 800203a:	607b      	str	r3, [r7, #4]
 800203c:	687b      	ldr	r3, [r7, #4]
 800203e:	2b05      	cmp	r3, #5
 8002040:	ddec      	ble.n	800201c <psxLeControle+0xa8>
		psxDado[psxCont] = psxTrocaByte(0);

	IO004_SetPin(ATT);
 8002042:	f244 337c 	movw	r3, #17276	; 0x437c
 8002046:	f6c0 0300 	movt	r3, #2048	; 0x800
 800204a:	685a      	ldr	r2, [r3, #4]
 800204c:	f244 337c 	movw	r3, #17276	; 0x437c
 8002050:	f6c0 0300 	movt	r3, #2048	; 0x800
 8002054:	785b      	ldrb	r3, [r3, #1]
 8002056:	f04f 0101 	mov.w	r1, #1
 800205a:	fa01 f303 	lsl.w	r3, r1, r3
 800205e:	6053      	str	r3, [r2, #4]
}
 8002060:	f107 0708 	add.w	r7, r7, #8
 8002064:	46bd      	mov	sp, r7
 8002066:	bd80      	pop	{r7, pc}

08002068 <psxHandShake>:

void psxHandShake()
{
 8002068:	b580      	push	{r7, lr}
 800206a:	b082      	sub	sp, #8
 800206c:	af00      	add	r7, sp, #0
	int psxByte = 0;
 800206e:	f04f 0300 	mov.w	r3, #0
 8002072:	607b      	str	r3, [r7, #4]

	IO004_SetPin(CMD);
 8002074:	f244 3384 	movw	r3, #17284	; 0x4384
 8002078:	f6c0 0300 	movt	r3, #2048	; 0x800
 800207c:	685a      	ldr	r2, [r3, #4]
 800207e:	f244 3384 	movw	r3, #17284	; 0x4384
 8002082:	f6c0 0300 	movt	r3, #2048	; 0x800
 8002086:	785b      	ldrb	r3, [r3, #1]
 8002088:	f04f 0101 	mov.w	r1, #1
 800208c:	fa01 f303 	lsl.w	r3, r1, r3
 8002090:	6053      	str	r3, [r2, #4]
	IO004_SetPin(CONT_CLK);
 8002092:	f244 3374 	movw	r3, #17268	; 0x4374
 8002096:	f6c0 0300 	movt	r3, #2048	; 0x800
 800209a:	685a      	ldr	r2, [r3, #4]
 800209c:	f244 3374 	movw	r3, #17268	; 0x4374
 80020a0:	f6c0 0300 	movt	r3, #2048	; 0x800
 80020a4:	785b      	ldrb	r3, [r3, #1]
 80020a6:	f04f 0101 	mov.w	r1, #1
 80020aa:	fa01 f303 	lsl.w	r3, r1, r3
 80020ae:	6053      	str	r3, [r2, #4]
	IO004_ResetPin(ATT);
 80020b0:	f244 337c 	movw	r3, #17276	; 0x437c
 80020b4:	f6c0 0300 	movt	r3, #2048	; 0x800
 80020b8:	685a      	ldr	r2, [r3, #4]
 80020ba:	f244 337c 	movw	r3, #17276	; 0x437c
 80020be:	f6c0 0300 	movt	r3, #2048	; 0x800
 80020c2:	785b      	ldrb	r3, [r3, #1]
 80020c4:	f44f 3180 	mov.w	r1, #65536	; 0x10000
 80020c8:	fa01 f303 	lsl.w	r3, r1, r3
 80020cc:	6053      	str	r3, [r2, #4]
	delay(tempoInicio);
 80020ce:	f44f 7096 	mov.w	r0, #300	; 0x12c
 80020d2:	f000 f8cb 	bl	800226c <delay>

	psxByte = 1;
 80020d6:	f04f 0301 	mov.w	r3, #1
 80020da:	607b      	str	r3, [r7, #4]
	psxTrocaByte(psxByte);
 80020dc:	6878      	ldr	r0, [r7, #4]
 80020de:	f000 f833 	bl	8002148 <psxTrocaByte>

	psxByte = 0x42;
 80020e2:	f04f 0342 	mov.w	r3, #66	; 0x42
 80020e6:	607b      	str	r3, [r7, #4]
	psx_status = psxTrocaByte(psxByte);
 80020e8:	6878      	ldr	r0, [r7, #4]
 80020ea:	f000 f82d 	bl	8002148 <psxTrocaByte>
 80020ee:	4603      	mov	r3, r0
 80020f0:	b2da      	uxtb	r2, r3
 80020f2:	f240 0373 	movw	r3, #115	; 0x73
 80020f6:	f2c2 0300 	movt	r3, #8192	; 0x2000
 80020fa:	701a      	strb	r2, [r3, #0]

	psxByte = 0;
 80020fc:	f04f 0300 	mov.w	r3, #0
 8002100:	607b      	str	r3, [r7, #4]
	psxTrocaByte(psxByte);
 8002102:	6878      	ldr	r0, [r7, #4]
 8002104:	f000 f820 	bl	8002148 <psxTrocaByte>

	psxByte = 0;
 8002108:	f04f 0300 	mov.w	r3, #0
 800210c:	607b      	str	r3, [r7, #4]
	psxTrocaByte(psxByte);
 800210e:	6878      	ldr	r0, [r7, #4]
 8002110:	f000 f81a 	bl	8002148 <psxTrocaByte>

	psxByte = 0;
 8002114:	f04f 0300 	mov.w	r3, #0
 8002118:	607b      	str	r3, [r7, #4]
	psxTrocaByte(psxByte);
 800211a:	6878      	ldr	r0, [r7, #4]
 800211c:	f000 f814 	bl	8002148 <psxTrocaByte>

	IO004_SetPin(ATT);
 8002120:	f244 337c 	movw	r3, #17276	; 0x437c
 8002124:	f6c0 0300 	movt	r3, #2048	; 0x800
 8002128:	685a      	ldr	r2, [r3, #4]
 800212a:	f244 337c 	movw	r3, #17276	; 0x437c
 800212e:	f6c0 0300 	movt	r3, #2048	; 0x800
 8002132:	785b      	ldrb	r3, [r3, #1]
 8002134:	f04f 0101 	mov.w	r1, #1
 8002138:	fa01 f303 	lsl.w	r3, r1, r3
 800213c:	6053      	str	r3, [r2, #4]
}
 800213e:	f107 0708 	add.w	r7, r7, #8
 8002142:	46bd      	mov	sp, r7
 8002144:	bd80      	pop	{r7, pc}
 8002146:	bf00      	nop

08002148 <psxTrocaByte>:

int psxTrocaByte(int byteDado)
{
 8002148:	b580      	push	{r7, lr}
 800214a:	b084      	sub	sp, #16
 800214c:	af00      	add	r7, sp, #0
 800214e:	6078      	str	r0, [r7, #4]
	int c;
	int aux = 0;
 8002150:	f04f 0300 	mov.w	r3, #0
 8002154:	60bb      	str	r3, [r7, #8]
	for (c=0;c<=7;c++)
 8002156:	f04f 0300 	mov.w	r3, #0
 800215a:	60fb      	str	r3, [r7, #12]
 800215c:	e069      	b.n	8002232 <psxTrocaByte+0xea>
	{

		if(byteDado & (0x01<<c))
 800215e:	687a      	ldr	r2, [r7, #4]
 8002160:	68fb      	ldr	r3, [r7, #12]
 8002162:	fa42 f303 	asr.w	r3, r2, r3
 8002166:	f003 0301 	and.w	r3, r3, #1
 800216a:	2b00      	cmp	r3, #0
 800216c:	d00f      	beq.n	800218e <psxTrocaByte+0x46>
			IO004_SetPin(CMD);
 800216e:	f244 3384 	movw	r3, #17284	; 0x4384
 8002172:	f6c0 0300 	movt	r3, #2048	; 0x800
 8002176:	685a      	ldr	r2, [r3, #4]
 8002178:	f244 3384 	movw	r3, #17284	; 0x4384
 800217c:	f6c0 0300 	movt	r3, #2048	; 0x800
 8002180:	785b      	ldrb	r3, [r3, #1]
 8002182:	f04f 0101 	mov.w	r1, #1
 8002186:	fa01 f303 	lsl.w	r3, r1, r3
 800218a:	6053      	str	r3, [r2, #4]
 800218c:	e00e      	b.n	80021ac <psxTrocaByte+0x64>
		else
			IO004_ResetPin(CMD);
 800218e:	f244 3384 	movw	r3, #17284	; 0x4384
 8002192:	f6c0 0300 	movt	r3, #2048	; 0x800
 8002196:	685a      	ldr	r2, [r3, #4]
 8002198:	f244 3384 	movw	r3, #17284	; 0x4384
 800219c:	f6c0 0300 	movt	r3, #2048	; 0x800
 80021a0:	785b      	ldrb	r3, [r3, #1]
 80021a2:	f44f 3180 	mov.w	r1, #65536	; 0x10000
 80021a6:	fa01 f303 	lsl.w	r3, r1, r3
 80021aa:	6053      	str	r3, [r2, #4]
		IO004_ResetPin(CONT_CLK);
 80021ac:	f244 3374 	movw	r3, #17268	; 0x4374
 80021b0:	f6c0 0300 	movt	r3, #2048	; 0x800
 80021b4:	685a      	ldr	r2, [r3, #4]
 80021b6:	f244 3374 	movw	r3, #17268	; 0x4374
 80021ba:	f6c0 0300 	movt	r3, #2048	; 0x800
 80021be:	785b      	ldrb	r3, [r3, #1]
 80021c0:	f44f 3180 	mov.w	r1, #65536	; 0x10000
 80021c4:	fa01 f303 	lsl.w	r3, r1, r3
 80021c8:	6053      	str	r3, [r2, #4]
		delay(tempoClk);
 80021ca:	f44f 7096 	mov.w	r0, #300	; 0x12c
 80021ce:	f000 f84d 	bl	800226c <delay>
		if (!IO004_ReadPin(CONT_DADO))
 80021d2:	f244 33bc 	movw	r3, #17340	; 0x43bc
 80021d6:	f6c0 0300 	movt	r3, #2048	; 0x800
 80021da:	685b      	ldr	r3, [r3, #4]
 80021dc:	6a5a      	ldr	r2, [r3, #36]	; 0x24
 80021de:	f244 33bc 	movw	r3, #17340	; 0x43bc
 80021e2:	f6c0 0300 	movt	r3, #2048	; 0x800
 80021e6:	785b      	ldrb	r3, [r3, #1]
 80021e8:	fa22 f303 	lsr.w	r3, r2, r3
 80021ec:	f003 0301 	and.w	r3, r3, #1
 80021f0:	2b00      	cmp	r3, #0
 80021f2:	d107      	bne.n	8002204 <psxTrocaByte+0xbc>
			aux = aux | (1 << c);
 80021f4:	f04f 0201 	mov.w	r2, #1
 80021f8:	68fb      	ldr	r3, [r7, #12]
 80021fa:	fa02 f303 	lsl.w	r3, r2, r3
 80021fe:	68ba      	ldr	r2, [r7, #8]
 8002200:	4313      	orrs	r3, r2
 8002202:	60bb      	str	r3, [r7, #8]
		IO004_SetPin(CONT_CLK);
 8002204:	f244 3374 	movw	r3, #17268	; 0x4374
 8002208:	f6c0 0300 	movt	r3, #2048	; 0x800
 800220c:	685a      	ldr	r2, [r3, #4]
 800220e:	f244 3374 	movw	r3, #17268	; 0x4374
 8002212:	f6c0 0300 	movt	r3, #2048	; 0x800
 8002216:	785b      	ldrb	r3, [r3, #1]
 8002218:	f04f 0101 	mov.w	r1, #1
 800221c:	fa01 f303 	lsl.w	r3, r1, r3
 8002220:	6053      	str	r3, [r2, #4]
		delay(tempoClk);
 8002222:	f44f 7096 	mov.w	r0, #300	; 0x12c
 8002226:	f000 f821 	bl	800226c <delay>

int psxTrocaByte(int byteDado)
{
	int c;
	int aux = 0;
	for (c=0;c<=7;c++)
 800222a:	68fb      	ldr	r3, [r7, #12]
 800222c:	f103 0301 	add.w	r3, r3, #1
 8002230:	60fb      	str	r3, [r7, #12]
 8002232:	68fb      	ldr	r3, [r7, #12]
 8002234:	2b07      	cmp	r3, #7
 8002236:	dd92      	ble.n	800215e <psxTrocaByte+0x16>
		if (!IO004_ReadPin(CONT_DADO))
			aux = aux | (1 << c);
		IO004_SetPin(CONT_CLK);
		delay(tempoClk);
	}
	IO004_SetPin(CMD);
 8002238:	f244 3384 	movw	r3, #17284	; 0x4384
 800223c:	f6c0 0300 	movt	r3, #2048	; 0x800
 8002240:	685a      	ldr	r2, [r3, #4]
 8002242:	f244 3384 	movw	r3, #17284	; 0x4384
 8002246:	f6c0 0300 	movt	r3, #2048	; 0x800
 800224a:	785b      	ldrb	r3, [r3, #1]
 800224c:	f04f 0101 	mov.w	r1, #1
 8002250:	fa01 f303 	lsl.w	r3, r1, r3
 8002254:	6053      	str	r3, [r2, #4]
	delay(tempoEntreByte);
 8002256:	f04f 0064 	mov.w	r0, #100	; 0x64
 800225a:	f000 f807 	bl	800226c <delay>
	return aux;
 800225e:	68bb      	ldr	r3, [r7, #8]
}
 8002260:	4618      	mov	r0, r3
 8002262:	f107 0710 	add.w	r7, r7, #16
 8002266:	46bd      	mov	sp, r7
 8002268:	bd80      	pop	{r7, pc}
 800226a:	bf00      	nop

0800226c <delay>:
/***************************************************/
/*****************FUNCOES GERAIS********************/
/***************************************************/

void delay(long unsigned int i)
{
 800226c:	b480      	push	{r7}
 800226e:	b083      	sub	sp, #12
 8002270:	af00      	add	r7, sp, #0
 8002272:	6078      	str	r0, [r7, #4]
	while(i--)
 8002274:	e000      	b.n	8002278 <delay+0xc>

    No Operation does nothing. This instruction can be used for code alignment purposes.
 */
__attribute__( ( always_inline ) ) __STATIC_INLINE void __NOP(void)
{
  __ASM volatile ("nop");
 8002276:	bf00      	nop
 8002278:	687b      	ldr	r3, [r7, #4]
 800227a:	2b00      	cmp	r3, #0
 800227c:	bf0c      	ite	eq
 800227e:	2300      	moveq	r3, #0
 8002280:	2301      	movne	r3, #1
 8002282:	b2db      	uxtb	r3, r3
 8002284:	687a      	ldr	r2, [r7, #4]
 8002286:	f102 32ff 	add.w	r2, r2, #4294967295
 800228a:	607a      	str	r2, [r7, #4]
 800228c:	2b00      	cmp	r3, #0
 800228e:	d1f2      	bne.n	8002276 <delay+0xa>
	{
		__NOP();
	}
}
 8002290:	f107 070c 	add.w	r7, r7, #12
 8002294:	46bd      	mov	sp, r7
 8002296:	bc80      	pop	{r7}
 8002298:	4770      	bx	lr
 800229a:	bf00      	nop

0800229c <printByteToInt>:
void printByteToInt(char a)
{
 800229c:	b480      	push	{r7}
 800229e:	b085      	sub	sp, #20
 80022a0:	af00      	add	r7, sp, #0
 80022a2:	4603      	mov	r3, r0
 80022a4:	71fb      	strb	r3, [r7, #7]
	char c = a%10 + '0';
 80022a6:	79fa      	ldrb	r2, [r7, #7]
 80022a8:	f64c 43cd 	movw	r3, #52429	; 0xcccd
 80022ac:	f6cc 43cc 	movt	r3, #52428	; 0xcccc
 80022b0:	fba3 1302 	umull	r1, r3, r3, r2
 80022b4:	ea4f 01d3 	mov.w	r1, r3, lsr #3
 80022b8:	460b      	mov	r3, r1
 80022ba:	ea4f 0383 	mov.w	r3, r3, lsl #2
 80022be:	185b      	adds	r3, r3, r1
 80022c0:	ea4f 0343 	mov.w	r3, r3, lsl #1
 80022c4:	1ad3      	subs	r3, r2, r3
 80022c6:	b2db      	uxtb	r3, r3
 80022c8:	f103 0330 	add.w	r3, r3, #48	; 0x30
 80022cc:	73fb      	strb	r3, [r7, #15]
	a /=10;
 80022ce:	79fa      	ldrb	r2, [r7, #7]
 80022d0:	f64c 43cd 	movw	r3, #52429	; 0xcccd
 80022d4:	f6cc 43cc 	movt	r3, #52428	; 0xcccc
 80022d8:	fba3 1302 	umull	r1, r3, r3, r2
 80022dc:	ea4f 03d3 	mov.w	r3, r3, lsr #3
 80022e0:	71fb      	strb	r3, [r7, #7]
	char d = a%10 + '0';
 80022e2:	79fa      	ldrb	r2, [r7, #7]
 80022e4:	f64c 43cd 	movw	r3, #52429	; 0xcccd
 80022e8:	f6cc 43cc 	movt	r3, #52428	; 0xcccc
 80022ec:	fba3 1302 	umull	r1, r3, r3, r2
 80022f0:	ea4f 01d3 	mov.w	r1, r3, lsr #3
 80022f4:	460b      	mov	r3, r1
 80022f6:	ea4f 0383 	mov.w	r3, r3, lsl #2
 80022fa:	185b      	adds	r3, r3, r1
 80022fc:	ea4f 0343 	mov.w	r3, r3, lsl #1
 8002300:	1ad3      	subs	r3, r2, r3
 8002302:	b2db      	uxtb	r3, r3
 8002304:	f103 0330 	add.w	r3, r3, #48	; 0x30
 8002308:	73bb      	strb	r3, [r7, #14]
	a /=10;
 800230a:	79fa      	ldrb	r2, [r7, #7]
 800230c:	f64c 43cd 	movw	r3, #52429	; 0xcccd
 8002310:	f6cc 43cc 	movt	r3, #52428	; 0xcccc
 8002314:	fba3 1302 	umull	r1, r3, r3, r2
 8002318:	ea4f 03d3 	mov.w	r3, r3, lsr #3
 800231c:	71fb      	strb	r3, [r7, #7]
	char e = a%10 + '0';
 800231e:	79fa      	ldrb	r2, [r7, #7]
 8002320:	f64c 43cd 	movw	r3, #52429	; 0xcccd
 8002324:	f6cc 43cc 	movt	r3, #52428	; 0xcccc
 8002328:	fba3 1302 	umull	r1, r3, r3, r2
 800232c:	ea4f 01d3 	mov.w	r1, r3, lsr #3
 8002330:	460b      	mov	r3, r1
 8002332:	ea4f 0383 	mov.w	r3, r3, lsl #2
 8002336:	185b      	adds	r3, r3, r1
 8002338:	ea4f 0343 	mov.w	r3, r3, lsl #1
 800233c:	1ad3      	subs	r3, r2, r3
 800233e:	b2db      	uxtb	r3, r3
 8002340:	f103 0330 	add.w	r3, r3, #48	; 0x30
 8002344:	737b      	strb	r3, [r7, #13]
	UART001_WriteData(UART001_Handle0, e);
 8002346:	f244 3338 	movw	r3, #17208	; 0x4338
 800234a:	f6c0 0300 	movt	r3, #2048	; 0x800
 800234e:	681b      	ldr	r3, [r3, #0]
 8002350:	7b7a      	ldrb	r2, [r7, #13]
 8002352:	f8c3 2180 	str.w	r2, [r3, #384]	; 0x180
	UART001_WriteData(UART001_Handle0, d);
 8002356:	f244 3338 	movw	r3, #17208	; 0x4338
 800235a:	f6c0 0300 	movt	r3, #2048	; 0x800
 800235e:	681b      	ldr	r3, [r3, #0]
 8002360:	7bba      	ldrb	r2, [r7, #14]
 8002362:	f8c3 2180 	str.w	r2, [r3, #384]	; 0x180
	UART001_WriteData(UART001_Handle0, c);
 8002366:	f244 3338 	movw	r3, #17208	; 0x4338
 800236a:	f6c0 0300 	movt	r3, #2048	; 0x800
 800236e:	681b      	ldr	r3, [r3, #0]
 8002370:	7bfa      	ldrb	r2, [r7, #15]
 8002372:	f8c3 2180 	str.w	r2, [r3, #384]	; 0x180

}
 8002376:	f107 0714 	add.w	r7, r7, #20
 800237a:	46bd      	mov	sp, r7
 800237c:	bc80      	pop	{r7}
 800237e:	4770      	bx	lr

08002380 <_open>:
/* ========================================================================= */
/*
 * File open
 */
__attribute__((weak)) int _open(const char *name, int flags, int mode)
{
 8002380:	b480      	push	{r7}
 8002382:	b085      	sub	sp, #20
 8002384:	af00      	add	r7, sp, #0
 8002386:	60f8      	str	r0, [r7, #12]
 8002388:	60b9      	str	r1, [r7, #8]
 800238a:	607a      	str	r2, [r7, #4]
 flags = flags;
 mode = mode;
 return -1;
 800238c:	f04f 33ff 	mov.w	r3, #4294967295
}
 8002390:	4618      	mov	r0, r3
 8002392:	f107 0714 	add.w	r7, r7, #20
 8002396:	46bd      	mov	sp, r7
 8002398:	bc80      	pop	{r7}
 800239a:	4770      	bx	lr

0800239c <_lseek>:

/*
 * File position seek
 */
__attribute__((weak)) int _lseek(int file, int offset, int whence)
{
 800239c:	b480      	push	{r7}
 800239e:	b085      	sub	sp, #20
 80023a0:	af00      	add	r7, sp, #0
 80023a2:	60f8      	str	r0, [r7, #12]
 80023a4:	60b9      	str	r1, [r7, #8]
 80023a6:	607a      	str	r2, [r7, #4]
 file = file;
 offset = offset;
 whence = whence;
 return -1;
 80023a8:	f04f 33ff 	mov.w	r3, #4294967295
}
 80023ac:	4618      	mov	r0, r3
 80023ae:	f107 0714 	add.w	r7, r7, #20
 80023b2:	46bd      	mov	sp, r7
 80023b4:	bc80      	pop	{r7}
 80023b6:	4770      	bx	lr

080023b8 <_read>:

/*
 * File read
 */
__attribute__((weak)) int _read(int file, char *ptr, int len)
{
 80023b8:	b480      	push	{r7}
 80023ba:	b085      	sub	sp, #20
 80023bc:	af00      	add	r7, sp, #0
 80023be:	60f8      	str	r0, [r7, #12]
 80023c0:	60b9      	str	r1, [r7, #8]
 80023c2:	607a      	str	r2, [r7, #4]
 file = file;
 len  = len;
 return 0;
 80023c4:	f04f 0300 	mov.w	r3, #0
}
 80023c8:	4618      	mov	r0, r3
 80023ca:	f107 0714 	add.w	r7, r7, #20
 80023ce:	46bd      	mov	sp, r7
 80023d0:	bc80      	pop	{r7}
 80023d2:	4770      	bx	lr

080023d4 <_write>:

/*
 * File write
 */
__attribute__((weak)) int _write(int file, char *buf, int nbytes)
{
 80023d4:	b480      	push	{r7}
 80023d6:	b085      	sub	sp, #20
 80023d8:	af00      	add	r7, sp, #0
 80023da:	60f8      	str	r0, [r7, #12]
 80023dc:	60b9      	str	r1, [r7, #8]
 80023de:	607a      	str	r2, [r7, #4]
 return -1;
 80023e0:	f04f 33ff 	mov.w	r3, #4294967295
}
 80023e4:	4618      	mov	r0, r3
 80023e6:	f107 0714 	add.w	r7, r7, #20
 80023ea:	46bd      	mov	sp, r7
 80023ec:	bc80      	pop	{r7}
 80023ee:	4770      	bx	lr

080023f0 <_close>:

/*
 * File close
 */
__attribute__((weak)) int _close(void)
{
 80023f0:	b480      	push	{r7}
 80023f2:	af00      	add	r7, sp, #0
 return -1;
 80023f4:	f04f 33ff 	mov.w	r3, #4294967295
}
 80023f8:	4618      	mov	r0, r3
 80023fa:	46bd      	mov	sp, r7
 80023fc:	bc80      	pop	{r7}
 80023fe:	4770      	bx	lr

08002400 <_fstat>:

/*
 * File status
 */
__attribute__((weak)) int _fstat(int file, struct stat *st)
{
 8002400:	b480      	push	{r7}
 8002402:	b083      	sub	sp, #12
 8002404:	af00      	add	r7, sp, #0
 8002406:	6078      	str	r0, [r7, #4]
 8002408:	6039      	str	r1, [r7, #0]
 file = file;
 if(st)
 800240a:	683b      	ldr	r3, [r7, #0]
 800240c:	2b00      	cmp	r3, #0
 800240e:	d002      	beq.n	8002416 <_fstat+0x16>
  return -1;
 8002410:	f04f 33ff 	mov.w	r3, #4294967295
 8002414:	e001      	b.n	800241a <_fstat+0x1a>
 else
  return -2;
 8002416:	f06f 0301 	mvn.w	r3, #1
}
 800241a:	4618      	mov	r0, r3
 800241c:	f107 070c 	add.w	r7, r7, #12
 8002420:	46bd      	mov	sp, r7
 8002422:	bc80      	pop	{r7}
 8002424:	4770      	bx	lr
 8002426:	bf00      	nop

08002428 <_link>:
/*
 * File linking
 */
__attribute__((weak)) int _link (char *old, char *new)
{
 8002428:	b480      	push	{r7}
 800242a:	b083      	sub	sp, #12
 800242c:	af00      	add	r7, sp, #0
 800242e:	6078      	str	r0, [r7, #4]
 8002430:	6039      	str	r1, [r7, #0]
 if (old == new)
 8002432:	687a      	ldr	r2, [r7, #4]
 8002434:	683b      	ldr	r3, [r7, #0]
 8002436:	429a      	cmp	r2, r3
 8002438:	d102      	bne.n	8002440 <_link+0x18>
  return -1;
 800243a:	f04f 33ff 	mov.w	r3, #4294967295
 800243e:	e001      	b.n	8002444 <_link+0x1c>
 else
  return -2;
 8002440:	f06f 0301 	mvn.w	r3, #1
}
 8002444:	4618      	mov	r0, r3
 8002446:	f107 070c 	add.w	r7, r7, #12
 800244a:	46bd      	mov	sp, r7
 800244c:	bc80      	pop	{r7}
 800244e:	4770      	bx	lr

08002450 <_unlink>:

/*
 * Unlinking directory entry
 */
__attribute__((weak)) int _unlink(char *name)
{
 8002450:	b480      	push	{r7}
 8002452:	b083      	sub	sp, #12
 8002454:	af00      	add	r7, sp, #0
 8002456:	6078      	str	r0, [r7, #4]
 return -1;
 8002458:	f04f 33ff 	mov.w	r3, #4294967295
}
 800245c:	4618      	mov	r0, r3
 800245e:	f107 070c 	add.w	r7, r7, #12
 8002462:	46bd      	mov	sp, r7
 8002464:	bc80      	pop	{r7}
 8002466:	4770      	bx	lr

08002468 <_sbrk>:
/* ========================================================================= */
/*
 * Heap break (position)
 */
__attribute__((weak)) void *_sbrk(int RequestedSize)
{
 8002468:	b480      	push	{r7}
 800246a:	b087      	sub	sp, #28
 800246c:	af00      	add	r7, sp, #0
 800246e:	6078      	str	r0, [r7, #4]
 unsigned int  HeapSize;
 static unsigned char *HeapBound;
 static unsigned char * heap= (unsigned char *)NULL;


 HeapSize   = (unsigned int)(&Heap_Bank1_Size);
 8002470:	f64f 7370 	movw	r3, #65392	; 0xff70
 8002474:	f2c0 0300 	movt	r3, #0
 8002478:	617b      	str	r3, [r7, #20]

 /*
  * If this is the first time malloc() was invoked, we start with the
  * begining of the heap.
  */
 if(heap == (unsigned char *)NULL)
 800247a:	f240 0354 	movw	r3, #84	; 0x54
 800247e:	f2c2 0300 	movt	r3, #8192	; 0x2000
 8002482:	681b      	ldr	r3, [r3, #0]
 8002484:	2b00      	cmp	r3, #0
 8002486:	d114      	bne.n	80024b2 <_sbrk+0x4a>
  {
   heap = (unsigned char *)&Heap_Bank1_Start;
 8002488:	f240 0354 	movw	r3, #84	; 0x54
 800248c:	f2c2 0300 	movt	r3, #8192	; 0x2000
 8002490:	f240 0290 	movw	r2, #144	; 0x90
 8002494:	f2c2 0200 	movt	r2, #8192	; 0x2000
 8002498:	601a      	str	r2, [r3, #0]
   HeapBound  = (unsigned char *) (heap + HeapSize);
 800249a:	f240 0354 	movw	r3, #84	; 0x54
 800249e:	f2c2 0300 	movt	r3, #8192	; 0x2000
 80024a2:	681a      	ldr	r2, [r3, #0]
 80024a4:	697b      	ldr	r3, [r7, #20]
 80024a6:	18d2      	adds	r2, r2, r3
 80024a8:	f240 0358 	movw	r3, #88	; 0x58
 80024ac:	f2c2 0300 	movt	r3, #8192	; 0x2000
 80024b0:	601a      	str	r2, [r3, #0]
  }

 /* Super duper algo to find out if we have memory for the latest request */
 /* Given conditions are: */
 /* 1. Latest break */
 CurrBreak = heap;
 80024b2:	f240 0354 	movw	r3, #84	; 0x54
 80024b6:	f2c2 0300 	movt	r3, #8192	; 0x2000
 80024ba:	681b      	ldr	r3, [r3, #0]
 80024bc:	613b      	str	r3, [r7, #16]

 /* And 2. Potential break based on requested size */
 NextBreak = (unsigned char *)( (((unsigned int)(heap)) + RequestedSize + 7)
 80024be:	f240 0354 	movw	r3, #84	; 0x54
 80024c2:	f2c2 0300 	movt	r3, #8192	; 0x2000
 80024c6:	681b      	ldr	r3, [r3, #0]
 80024c8:	461a      	mov	r2, r3
 80024ca:	687b      	ldr	r3, [r7, #4]
 80024cc:	18d3      	adds	r3, r2, r3
 80024ce:	f103 0307 	add.w	r3, r3, #7
                                          & 0xFFFFFFF8);
 80024d2:	f023 0307 	bic.w	r3, r3, #7
 /* Given conditions are: */
 /* 1. Latest break */
 CurrBreak = heap;

 /* And 2. Potential break based on requested size */
 NextBreak = (unsigned char *)( (((unsigned int)(heap)) + RequestedSize + 7)
 80024d6:	60fb      	str	r3, [r7, #12]
                                          & 0xFFFFFFF8);

 /* Return no memory condition if we sense we are crossing the limit */
 if (NextBreak >=  HeapBound )
 80024d8:	f240 0358 	movw	r3, #88	; 0x58
 80024dc:	f2c2 0300 	movt	r3, #8192	; 0x2000
 80024e0:	681b      	ldr	r3, [r3, #0]
 80024e2:	68fa      	ldr	r2, [r7, #12]
 80024e4:	429a      	cmp	r2, r3
 80024e6:	d302      	bcc.n	80024ee <_sbrk+0x86>
  return ((unsigned char *)NULL);
 80024e8:	f04f 0300 	mov.w	r3, #0
 80024ec:	e006      	b.n	80024fc <_sbrk+0x94>
 else
 {
  heap = NextBreak;
 80024ee:	f240 0354 	movw	r3, #84	; 0x54
 80024f2:	f2c2 0300 	movt	r3, #8192	; 0x2000
 80024f6:	68fa      	ldr	r2, [r7, #12]
 80024f8:	601a      	str	r2, [r3, #0]
  return CurrBreak;
 80024fa:	693b      	ldr	r3, [r7, #16]
 }
}
 80024fc:	4618      	mov	r0, r3
 80024fe:	f107 071c 	add.w	r7, r7, #28
 8002502:	46bd      	mov	sp, r7
 8002504:	bc80      	pop	{r7}
 8002506:	4770      	bx	lr

08002508 <_times>:
/* ========================================================================= */
/*
 * Process timing information
 */
__attribute__((weak)) int _times(struct tms *buf)
{
 8002508:	b480      	push	{r7}
 800250a:	b083      	sub	sp, #12
 800250c:	af00      	add	r7, sp, #0
 800250e:	6078      	str	r0, [r7, #4]
 return -1;
 8002510:	f04f 33ff 	mov.w	r3, #4294967295
}
 8002514:	4618      	mov	r0, r3
 8002516:	f107 070c 	add.w	r7, r7, #12
 800251a:	46bd      	mov	sp, r7
 800251c:	bc80      	pop	{r7}
 800251e:	4770      	bx	lr

08002520 <_wait>:
/*
 * Waiting for a child process to complete
 */
__attribute__((weak)) int _wait(int *status)
{
 8002520:	b480      	push	{r7}
 8002522:	b083      	sub	sp, #12
 8002524:	af00      	add	r7, sp, #0
 8002526:	6078      	str	r0, [r7, #4]
 return -1;
 8002528:	f04f 33ff 	mov.w	r3, #4294967295
}
 800252c:	4618      	mov	r0, r3
 800252e:	f107 070c 	add.w	r7, r7, #12
 8002532:	46bd      	mov	sp, r7
 8002534:	bc80      	pop	{r7}
 8002536:	4770      	bx	lr

08002538 <_kill>:

/*
 * Kill a process
 */
__attribute__((weak)) int _kill(int pid,int sig)
{
 8002538:	b480      	push	{r7}
 800253a:	b083      	sub	sp, #12
 800253c:	af00      	add	r7, sp, #0
 800253e:	6078      	str	r0, [r7, #4]
 8002540:	6039      	str	r1, [r7, #0]
 pid = pid;
 sig = sig;
 return -1;
 8002542:	f04f 33ff 	mov.w	r3, #4294967295
}
 8002546:	4618      	mov	r0, r3
 8002548:	f107 070c 	add.w	r7, r7, #12
 800254c:	46bd      	mov	sp, r7
 800254e:	bc80      	pop	{r7}
 8002550:	4770      	bx	lr
 8002552:	bf00      	nop

08002554 <_fork>:

/*
 * Forking a child process
 */
__attribute__((weak)) int _fork(void)
{
 8002554:	b480      	push	{r7}
 8002556:	af00      	add	r7, sp, #0
 return -1;
 8002558:	f04f 33ff 	mov.w	r3, #4294967295
}
 800255c:	4618      	mov	r0, r3
 800255e:	46bd      	mov	sp, r7
 8002560:	bc80      	pop	{r7}
 8002562:	4770      	bx	lr

08002564 <_getpid>:

/*
 * Process ID
 */
__attribute__((weak)) int _getpid(void)
{
 8002564:	b480      	push	{r7}
 8002566:	af00      	add	r7, sp, #0
 return -1;
 8002568:	f04f 33ff 	mov.w	r3, #4294967295
}
 800256c:	4618      	mov	r0, r3
 800256e:	46bd      	mov	sp, r7
 8002570:	bc80      	pop	{r7}
 8002572:	4770      	bx	lr

08002574 <_exit>:

/*
 * Program/process exit
 */
__attribute__((weak)) void _exit(int rc)
{
 8002574:	b480      	push	{r7}
 8002576:	b083      	sub	sp, #12
 8002578:	af00      	add	r7, sp, #0
 800257a:	6078      	str	r0, [r7, #4]
 rc = rc;
 while(1){}
 800257c:	e7fe      	b.n	800257c <_exit+0x8>
 800257e:	bf00      	nop

08002580 <_init>:
}

/* Init */
__attribute__((weak)) void _init(void)
{}
 8002580:	b480      	push	{r7}
 8002582:	af00      	add	r7, sp, #0
 8002584:	46bd      	mov	sp, r7
 8002586:	bc80      	pop	{r7}
 8002588:	4770      	bx	lr
 800258a:	bf00      	nop

0800258c <_isatty>:

/*
 * Terminal type evaluation
 */
__attribute__((weak)) int _isatty(int file)
{
 800258c:	b480      	push	{r7}
 800258e:	b083      	sub	sp, #12
 8002590:	af00      	add	r7, sp, #0
 8002592:	6078      	str	r0, [r7, #4]
 file = file;
 return -1;
 8002594:	f04f 33ff 	mov.w	r3, #4294967295
}
 8002598:	4618      	mov	r0, r3
 800259a:	f107 070c 	add.w	r7, r7, #12
 800259e:	46bd      	mov	sp, r7
 80025a0:	bc80      	pop	{r7}
 80025a2:	4770      	bx	lr

080025a4 <UART001_lInit>:
 * @return  None <BR>
 *
 * <b>Reentrant: No </b><BR>
 ******************************************************************************/ 
void UART001_lInit (const UART001_HandleType* Handle)
{
 80025a4:	b480      	push	{r7}
 80025a6:	b085      	sub	sp, #20
 80025a8:	af00      	add	r7, sp, #0
 80025aa:	6078      	str	r0, [r7, #4]
  USIC_CH_TypeDef* UartRegs = Handle->UartRegs;
 80025ac:	687b      	ldr	r3, [r7, #4]
 80025ae:	681b      	ldr	r3, [r3, #0]
 80025b0:	60fb      	str	r3, [r7, #12]
 
  /** UART initialisation  */

  /* Disable UART mode before configuring all USIC registers to avoid 
   * unintended edges */ 
  UartRegs->CCR &= ~( ((uint32_t)(UART_MODE  & USIC_CH_CCR_MODE_Msk))); 
 80025b2:	68fb      	ldr	r3, [r7, #12]
 80025b4:	6c1b      	ldr	r3, [r3, #64]	; 0x40
 80025b6:	f023 0202 	bic.w	r2, r3, #2
 80025ba:	68fb      	ldr	r3, [r7, #12]
 80025bc:	641a      	str	r2, [r3, #64]	; 0x40

  /* Enable the USIC Channel */
  UartRegs->KSCFG |= ((((uint32_t)MASK_ONE  & USIC_CH_KSCFG_MODEN_Msk)) | \
 80025be:	68fb      	ldr	r3, [r7, #12]
 80025c0:	68db      	ldr	r3, [r3, #12]
 80025c2:	f043 0203 	orr.w	r2, r3, #3
 80025c6:	68fb      	ldr	r3, [r7, #12]
 80025c8:	60da      	str	r2, [r3, #12]
                         USIC_CH_KSCFG_BPMODEN_Msk)); 
   
  /* Configuration of USIC Channel Fractional Divider */

  /* Fractional divider mode selected */
  UartRegs->FDR |= (((uint32_t)SHIFT_TWO << USIC_CH_FDR_DM_Pos) \
 80025ca:	68fb      	ldr	r3, [r7, #12]
 80025cc:	691b      	ldr	r3, [r3, #16]
 80025ce:	f443 4200 	orr.w	r2, r3, #32768	; 0x8000
 80025d2:	68fb      	ldr	r3, [r7, #12]
 80025d4:	611a      	str	r2, [r3, #16]
                                                     & USIC_CH_FDR_DM_Msk);
  
  /* Step value */
  UartRegs->FDR |= ((Handle->BGR_STEP) & USIC_CH_FDR_STEP_Msk);
 80025d6:	68fb      	ldr	r3, [r7, #12]
 80025d8:	691a      	ldr	r2, [r3, #16]
 80025da:	687b      	ldr	r3, [r7, #4]
 80025dc:	8d1b      	ldrh	r3, [r3, #40]	; 0x28
 80025de:	ea4f 5383 	mov.w	r3, r3, lsl #22
 80025e2:	ea4f 5393 	mov.w	r3, r3, lsr #22
 80025e6:	431a      	orrs	r2, r3
 80025e8:	68fb      	ldr	r3, [r7, #12]
 80025ea:	611a      	str	r2, [r3, #16]
          
  /* The PreDivider for CTQ, PCTQ = 0  */
  /* The Denominator for CTQ, DCTQ = 16 */
    
  UartRegs->BRG |= \
 80025ec:	68fb      	ldr	r3, [r7, #12]
 80025ee:	695a      	ldr	r2, [r3, #20]
	  ((((uint32_t)(Handle->BGR_PCTQ) << USIC_CH_BRG_PCTQ_Pos) & \
 80025f0:	687b      	ldr	r3, [r7, #4]
 80025f2:	f893 3030 	ldrb.w	r3, [r3, #48]	; 0x30
 80025f6:	ea4f 2303 	mov.w	r3, r3, lsl #8
 80025fa:	f403 7140 	and.w	r1, r3, #768	; 0x300
		  	     USIC_CH_BRG_PCTQ_Msk) | \
      (((uint32_t)(Handle->BGR_DCTQ) << USIC_CH_BRG_DCTQ_Pos) & \
 80025fe:	687b      	ldr	r3, [r7, #4]
 8002600:	8d9b      	ldrh	r3, [r3, #44]	; 0x2c
 8002602:	ea4f 2383 	mov.w	r3, r3, lsl #10
 8002606:	f403 43f8 	and.w	r3, r3, #31744	; 0x7c00
  /* The PreDivider for CTQ, PCTQ = 0  */
  /* The Denominator for CTQ, DCTQ = 16 */
    
  UartRegs->BRG |= \
	  ((((uint32_t)(Handle->BGR_PCTQ) << USIC_CH_BRG_PCTQ_Pos) & \
		  	     USIC_CH_BRG_PCTQ_Msk) | \
 800260a:	4319      	orrs	r1, r3
      (((uint32_t)(Handle->BGR_DCTQ) << USIC_CH_BRG_DCTQ_Pos) & \
	     USIC_CH_BRG_DCTQ_Msk) | \
      (((uint32_t)(Handle->BGR_PDIV) << USIC_CH_BRG_PDIV_Pos) &  \
 800260c:	687b      	ldr	r3, [r7, #4]
 800260e:	8d5b      	ldrh	r3, [r3, #42]	; 0x2a
 8002610:	ea4f 4003 	mov.w	r0, r3, lsl #16
 8002614:	f04f 0300 	mov.w	r3, #0
 8002618:	f2c0 33ff 	movt	r3, #1023	; 0x3ff
 800261c:	4003      	ands	r3, r0
    
  UartRegs->BRG |= \
	  ((((uint32_t)(Handle->BGR_PCTQ) << USIC_CH_BRG_PCTQ_Pos) & \
		  	     USIC_CH_BRG_PCTQ_Msk) | \
      (((uint32_t)(Handle->BGR_DCTQ) << USIC_CH_BRG_DCTQ_Pos) & \
	     USIC_CH_BRG_DCTQ_Msk) | \
 800261e:	430b      	orrs	r3, r1
  UartRegs->FDR |= ((Handle->BGR_STEP) & USIC_CH_FDR_STEP_Msk);
          
  /* The PreDivider for CTQ, PCTQ = 0  */
  /* The Denominator for CTQ, DCTQ = 16 */
    
  UartRegs->BRG |= \
 8002620:	431a      	orrs	r2, r3
 8002622:	68fb      	ldr	r3, [r7, #12]
 8002624:	615a      	str	r2, [r3, #20]
  /* Configuration of USIC Shift Control */
  
  /* Transmit/Receive LSB first is selected  */
  /* Transmission Mode (TRM) = 1  */
  /* Passive Data Level (PDL) = 1 */
  UartRegs->SCTR |= ((((uint32_t)SHIFT_ONE  << USIC_CH_SCTR_PDL_Pos) & \
 8002626:	68fb      	ldr	r3, [r7, #12]
 8002628:	6b5b      	ldr	r3, [r3, #52]	; 0x34
 800262a:	f443 7281 	orr.w	r2, r3, #258	; 0x102
 800262e:	68fb      	ldr	r3, [r7, #12]
 8002630:	635a      	str	r2, [r3, #52]	; 0x34
    USIC_CH_SCTR_PDL_Msk ) | \
    (((uint32_t)SHIFT_ONE  <<  USIC_CH_SCTR_TRM_Pos ) & USIC_CH_SCTR_TRM_Msk ));
  /* Set Word Length (WLE) & Frame Length (FLE) */
  UartRegs->SCTR |= ((((uint32_t)Handle->DataBits  << USIC_CH_SCTR_FLE_Pos) & \
 8002632:	68fb      	ldr	r3, [r7, #12]
 8002634:	6b5a      	ldr	r2, [r3, #52]	; 0x34
 8002636:	687b      	ldr	r3, [r7, #4]
 8002638:	8b9b      	ldrh	r3, [r3, #28]
 800263a:	ea4f 4303 	mov.w	r3, r3, lsl #16
 800263e:	f403 117c 	and.w	r1, r3, #4128768	; 0x3f0000
                      USIC_CH_SCTR_FLE_Msk ) | \
                     (((uint32_t)Handle->DataBits  << USIC_CH_SCTR_WLE_Pos) & \
 8002642:	687b      	ldr	r3, [r7, #4]
 8002644:	8b9b      	ldrh	r3, [r3, #28]
 8002646:	ea4f 6303 	mov.w	r3, r3, lsl #24
 800264a:	f003 6370 	and.w	r3, r3, #251658240	; 0xf000000
  UartRegs->SCTR |= ((((uint32_t)SHIFT_ONE  << USIC_CH_SCTR_PDL_Pos) & \
    USIC_CH_SCTR_PDL_Msk ) | \
    (((uint32_t)SHIFT_ONE  <<  USIC_CH_SCTR_TRM_Pos ) & USIC_CH_SCTR_TRM_Msk ));
  /* Set Word Length (WLE) & Frame Length (FLE) */
  UartRegs->SCTR |= ((((uint32_t)Handle->DataBits  << USIC_CH_SCTR_FLE_Pos) & \
                      USIC_CH_SCTR_FLE_Msk ) | \
 800264e:	430b      	orrs	r3, r1
  /* Passive Data Level (PDL) = 1 */
  UartRegs->SCTR |= ((((uint32_t)SHIFT_ONE  << USIC_CH_SCTR_PDL_Pos) & \
    USIC_CH_SCTR_PDL_Msk ) | \
    (((uint32_t)SHIFT_ONE  <<  USIC_CH_SCTR_TRM_Pos ) & USIC_CH_SCTR_TRM_Msk ));
  /* Set Word Length (WLE) & Frame Length (FLE) */
  UartRegs->SCTR |= ((((uint32_t)Handle->DataBits  << USIC_CH_SCTR_FLE_Pos) & \
 8002650:	431a      	orrs	r2, r3
 8002652:	68fb      	ldr	r3, [r7, #12]
 8002654:	635a      	str	r2, [r3, #52]	; 0x34
       
  /* Configuration of USIC Transmit Control/Status Register */ 
  /* TBUF Data Enable (TDEN) = 1 */
  /* TBUF Data Single Shot Mode (TDSSM) = 1 */
	
  UartRegs->TCSR |= ((((uint32_t)SHIFT_ONE  << USIC_CH_TCSR_TDEN_Pos) & \
 8002656:	68fb      	ldr	r3, [r7, #12]
 8002658:	6b9b      	ldr	r3, [r3, #56]	; 0x38
 800265a:	f443 62a0 	orr.w	r2, r3, #1280	; 0x500
 800265e:	68fb      	ldr	r3, [r7, #12]
 8002660:	639a      	str	r2, [r3, #56]	; 0x38
  /* Sample Mode (SMD) = 1 */
  /* 1 Stop bit is selected */   
  /* Sample Point (SP) as configured */
  /* Pulse Length (PL) = 0 */
  
  UartRegs->PCR_ASCMode |= ((((uint32_t)MASK_ONE & USIC_CH_PCR_ASCMode_SMD_Msk)) |\
 8002662:	68fb      	ldr	r3, [r7, #12]
 8002664:	6bda      	ldr	r2, [r3, #60]	; 0x3c
    (((uint32_t)Handle->StopBit  << USIC_CH_PCR_ASCMode_STPB_Pos) & \
 8002666:	687b      	ldr	r3, [r7, #4]
 8002668:	7d5b      	ldrb	r3, [r3, #21]
 800266a:	ea4f 0343 	mov.w	r3, r3, lsl #1
 800266e:	f003 0102 	and.w	r1, r3, #2
    USIC_CH_PCR_ASCMode_STPB_Msk) | \
    (((uint32_t)(Handle->BGR_SP) << USIC_CH_PCR_ASCMode_SP_Pos) & \
 8002672:	687b      	ldr	r3, [r7, #4]
 8002674:	8ddb      	ldrh	r3, [r3, #46]	; 0x2e
 8002676:	ea4f 2303 	mov.w	r3, r3, lsl #8
 800267a:	f403 53f8 	and.w	r3, r3, #7936	; 0x1f00
  /* Sample Point (SP) as configured */
  /* Pulse Length (PL) = 0 */
  
  UartRegs->PCR_ASCMode |= ((((uint32_t)MASK_ONE & USIC_CH_PCR_ASCMode_SMD_Msk)) |\
    (((uint32_t)Handle->StopBit  << USIC_CH_PCR_ASCMode_STPB_Pos) & \
    USIC_CH_PCR_ASCMode_STPB_Msk) | \
 800267e:	430b      	orrs	r3, r1
  /* Sample Mode (SMD) = 1 */
  /* 1 Stop bit is selected */   
  /* Sample Point (SP) as configured */
  /* Pulse Length (PL) = 0 */
  
  UartRegs->PCR_ASCMode |= ((((uint32_t)MASK_ONE & USIC_CH_PCR_ASCMode_SMD_Msk)) |\
 8002680:	4313      	orrs	r3, r2
 8002682:	f043 0201 	orr.w	r2, r3, #1
 8002686:	68fb      	ldr	r3, [r7, #12]
 8002688:	63da      	str	r2, [r3, #60]	; 0x3c
    (((uint32_t)Handle->StopBit  << USIC_CH_PCR_ASCMode_STPB_Pos) & \
    USIC_CH_PCR_ASCMode_STPB_Msk) | \
    (((uint32_t)(Handle->BGR_SP) << USIC_CH_PCR_ASCMode_SP_Pos) & \
    USIC_CH_PCR_ASCMode_SP_Msk));
      
  if(Handle->RecvNoiseEn)
 800268a:	687b      	ldr	r3, [r7, #4]
 800268c:	f893 3024 	ldrb.w	r3, [r3, #36]	; 0x24
 8002690:	2b00      	cmp	r3, #0
 8002692:	d005      	beq.n	80026a0 <UART001_lInit+0xfc>
  {
   	/* Enable Receiver Noise Interrupt*/  
    UartRegs->PCR_ASCMode |=(((uint32_t)SHIFT_ONE  << USIC_CH_PCR_CTR5_Pos) & \
 8002694:	68fb      	ldr	r3, [r7, #12]
 8002696:	6bdb      	ldr	r3, [r3, #60]	; 0x3c
 8002698:	f043 0220 	orr.w	r2, r3, #32
 800269c:	68fb      	ldr	r3, [r7, #12]
 800269e:	63da      	str	r2, [r3, #60]	; 0x3c
		  	  	  	  	  USIC_CH_PCR_CTR5_Msk); 
  }
  
  if(Handle->FormatErrEn)
 80026a0:	687b      	ldr	r3, [r7, #4]
 80026a2:	f893 3025 	ldrb.w	r3, [r3, #37]	; 0x25
 80026a6:	2b00      	cmp	r3, #0
 80026a8:	d005      	beq.n	80026b6 <UART001_lInit+0x112>
  {
   	/* Enable Format Error Interrupt*/  
    UartRegs->PCR_ASCMode |=(((uint32_t)SHIFT_ONE  << USIC_CH_PCR_CTR6_Pos) & \
 80026aa:	68fb      	ldr	r3, [r7, #12]
 80026ac:	6bdb      	ldr	r3, [r3, #60]	; 0x3c
 80026ae:	f043 0240 	orr.w	r2, r3, #64	; 0x40
 80026b2:	68fb      	ldr	r3, [r7, #12]
 80026b4:	63da      	str	r2, [r3, #60]	; 0x3c
		  	  	  	  	                             USIC_CH_PCR_CTR6_Msk); 
  }
  
  if(Handle->FrameFinEn)
 80026b6:	687b      	ldr	r3, [r7, #4]
 80026b8:	f893 3026 	ldrb.w	r3, [r3, #38]	; 0x26
 80026bc:	2b00      	cmp	r3, #0
 80026be:	d005      	beq.n	80026cc <UART001_lInit+0x128>
  {
   	/* Enable Frame Finished Interrupt*/  
    UartRegs->PCR_ASCMode |=(((uint32_t)SHIFT_ONE  << USIC_CH_PCR_CTR7_Pos) & \
 80026c0:	68fb      	ldr	r3, [r7, #12]
 80026c2:	6bdb      	ldr	r3, [r3, #60]	; 0x3c
 80026c4:	f043 0280 	orr.w	r2, r3, #128	; 0x80
 80026c8:	68fb      	ldr	r3, [r7, #12]
 80026ca:	63da      	str	r2, [r3, #60]	; 0x3c
		  	                                   	  	 USIC_CH_PCR_CTR7_Msk); 
  } 
  
  if (Handle->TxFifoEn)
 80026cc:	687b      	ldr	r3, [r7, #4]
 80026ce:	7f9b      	ldrb	r3, [r3, #30]
 80026d0:	2b00      	cmp	r3, #0
 80026d2:	d00e      	beq.n	80026f2 <UART001_lInit+0x14e>
  {	
	  /* Configuration of Transmitter Buffer Control Register */ 
	  UartRegs->TBCTR |= ((((uint32_t)Handle->TxLimit  << \
 80026d4:	68fb      	ldr	r3, [r7, #12]
 80026d6:	f8d3 2108 	ldr.w	r2, [r3, #264]	; 0x108
 80026da:	687b      	ldr	r3, [r7, #4]
 80026dc:	f893 3020 	ldrb.w	r3, [r3, #32]
 80026e0:	ea4f 2303 	mov.w	r3, r3, lsl #8
						USIC_CH_TBCTR_LIMIT_Pos ) & USIC_CH_TBCTR_LIMIT_Msk));
 80026e4:	f403 537c 	and.w	r3, r3, #16128	; 0x3f00
  } 
  
  if (Handle->TxFifoEn)
  {	
	  /* Configuration of Transmitter Buffer Control Register */ 
	  UartRegs->TBCTR |= ((((uint32_t)Handle->TxLimit  << \
 80026e8:	431a      	orrs	r2, r3
 80026ea:	68fb      	ldr	r3, [r7, #12]
 80026ec:	f8c3 2108 	str.w	r2, [r3, #264]	; 0x108
 80026f0:	e005      	b.n	80026fe <UART001_lInit+0x15a>
						USIC_CH_TBCTR_LIMIT_Pos ) & USIC_CH_TBCTR_LIMIT_Msk));
  }
  else
  {
	  /* TBIF is set to simplify polling*/
	  UartRegs->PSR_ASCMode |= (((uint32_t)SHIFT_ONE  << USIC_CH_PSR_TBIF_Pos) & \
 80026f2:	68fb      	ldr	r3, [r7, #12]
 80026f4:	6c9b      	ldr	r3, [r3, #72]	; 0x48
 80026f6:	f443 5200 	orr.w	r2, r3, #8192	; 0x2000
 80026fa:	68fb      	ldr	r3, [r7, #12]
 80026fc:	649a      	str	r2, [r3, #72]	; 0x48
	 		  (uint32_t)USIC_CH_PSR_TBIF_Msk);
  }
  
  if (Handle->RxFifoEn)
 80026fe:	687b      	ldr	r3, [r7, #4]
 8002700:	7fdb      	ldrb	r3, [r3, #31]
 8002702:	2b00      	cmp	r3, #0
 8002704:	d00f      	beq.n	8002726 <UART001_lInit+0x182>
  {
	  /* Configuration of Receiver Buffer Control Register */ 
	  UartRegs->RBCTR |= ((((uint32_t)Handle->RxLimit  << \
 8002706:	68fb      	ldr	r3, [r7, #12]
 8002708:	f8d3 210c 	ldr.w	r2, [r3, #268]	; 0x10c
 800270c:	687b      	ldr	r3, [r7, #4]
 800270e:	f893 3021 	ldrb.w	r3, [r3, #33]	; 0x21
 8002712:	ea4f 2303 	mov.w	r3, r3, lsl #8
						   USIC_CH_RBCTR_LIMIT_Pos) & USIC_CH_RBCTR_LIMIT_Msk) | \
 8002716:	f403 537c 	and.w	r3, r3, #16128	; 0x3f00
  }
  
  if (Handle->RxFifoEn)
  {
	  /* Configuration of Receiver Buffer Control Register */ 
	  UartRegs->RBCTR |= ((((uint32_t)Handle->RxLimit  << \
 800271a:	4313      	orrs	r3, r2
 800271c:	f043 5280 	orr.w	r2, r3, #268435456	; 0x10000000
 8002720:	68fb      	ldr	r3, [r7, #12]
 8002722:	f8c3 210c 	str.w	r2, [r3, #268]	; 0x10c
							(((uint32_t)SHIFT_ONE << USIC_CH_RBCTR_LOF_Pos) & \
						   USIC_CH_RBCTR_LOF_Msk));
  }else{}
  
  /* Configuration of Channel Control Register */ 
  UartRegs->CCR |= (((uint32_t)(UART_MODE  & USIC_CH_CCR_MODE_Msk)) | \
 8002726:	68fb      	ldr	r3, [r7, #12]
 8002728:	6c1a      	ldr	r2, [r3, #64]	; 0x40
                    (((uint32_t)Handle->Parity  << USIC_CH_CCR_PM_Pos) & \
 800272a:	687b      	ldr	r3, [r7, #4]
 800272c:	7d9b      	ldrb	r3, [r3, #22]
 800272e:	ea4f 2303 	mov.w	r3, r3, lsl #8
 8002732:	f403 7340 	and.w	r3, r3, #768	; 0x300
							(((uint32_t)SHIFT_ONE << USIC_CH_RBCTR_LOF_Pos) & \
						   USIC_CH_RBCTR_LOF_Msk));
  }else{}
  
  /* Configuration of Channel Control Register */ 
  UartRegs->CCR |= (((uint32_t)(UART_MODE  & USIC_CH_CCR_MODE_Msk)) | \
 8002736:	4313      	orrs	r3, r2
 8002738:	f043 0202 	orr.w	r2, r3, #2
 800273c:	68fb      	ldr	r3, [r7, #12]
 800273e:	641a      	str	r2, [r3, #64]	; 0x40
                    (((uint32_t)Handle->Parity  << USIC_CH_CCR_PM_Pos) & \
                     USIC_CH_CCR_PM_Msk));

}
 8002740:	f107 0714 	add.w	r7, r7, #20
 8002744:	46bd      	mov	sp, r7
 8002746:	bc80      	pop	{r7}
 8002748:	4770      	bx	lr
 800274a:	bf00      	nop

0800274c <UART001_lConfigTXPin>:
 * @return  None <BR>
 *
 * <b>Reentrant: No </b><BR>
 ******************************************************************************/ 
void UART001_lConfigTXPin(const UART001_HandleType* Handle)
{
 800274c:	b480      	push	{r7}
 800274e:	b085      	sub	sp, #20
 8002750:	af00      	add	r7, sp, #0
 8002752:	6078      	str	r0, [r7, #4]
	uint32_t TempPortPin;

    /* set the TX portpin to '1' */
    Handle->PinHandle.TX_PortBase->OMR |= (uint32_t)SHIFT_ONE << \
 8002754:	687b      	ldr	r3, [r7, #4]
 8002756:	685b      	ldr	r3, [r3, #4]
 8002758:	687a      	ldr	r2, [r7, #4]
 800275a:	6852      	ldr	r2, [r2, #4]
 800275c:	6851      	ldr	r1, [r2, #4]
   		                                (uint32_t)Handle->PinHandle.TX_Pin;
 800275e:	687a      	ldr	r2, [r7, #4]
 8002760:	7a12      	ldrb	r2, [r2, #8]
void UART001_lConfigTXPin(const UART001_HandleType* Handle)
{
	uint32_t TempPortPin;

    /* set the TX portpin to '1' */
    Handle->PinHandle.TX_PortBase->OMR |= (uint32_t)SHIFT_ONE << \
 8002762:	f04f 0001 	mov.w	r0, #1
 8002766:	fa00 f202 	lsl.w	r2, r0, r2
 800276a:	430a      	orrs	r2, r1
 800276c:	605a      	str	r2, [r3, #4]
   		                                (uint32_t)Handle->PinHandle.TX_Pin;
     
	/* Configure TX portpin as Open-drain General-purpose output */
    TempPortPin = (uint32_t)Handle->PinHandle.TX_Pin;
 800276e:	687b      	ldr	r3, [r7, #4]
 8002770:	7a1b      	ldrb	r3, [r3, #8]
 8002772:	60fb      	str	r3, [r7, #12]

    if (FIRST_NIBBLE > TempPortPin)
 8002774:	68fb      	ldr	r3, [r7, #12]
 8002776:	2b03      	cmp	r3, #3
 8002778:	d810      	bhi.n	800279c <UART001_lConfigTXPin+0x50>
    {
   	  Handle->PinHandle.TX_PortBase->IOCR0 |= \
 800277a:	687b      	ldr	r3, [r7, #4]
 800277c:	685b      	ldr	r3, [r3, #4]
 800277e:	687a      	ldr	r2, [r7, #4]
 8002780:	6852      	ldr	r2, [r2, #4]
 8002782:	6911      	ldr	r1, [r2, #16]
   			                ((uint32_t)UART001_OPENDRAIN_OUT << (3U + \
							(TempPortPin * 8U)));
 8002784:	68fa      	ldr	r2, [r7, #12]
 8002786:	ea4f 02c2 	mov.w	r2, r2, lsl #3
    TempPortPin = (uint32_t)Handle->PinHandle.TX_Pin;

    if (FIRST_NIBBLE > TempPortPin)
    {
   	  Handle->PinHandle.TX_PortBase->IOCR0 |= \
   			                ((uint32_t)UART001_OPENDRAIN_OUT << (3U + \
 800278a:	f102 0203 	add.w	r2, r2, #3
 800278e:	f04f 0018 	mov.w	r0, #24
 8002792:	fa00 f202 	lsl.w	r2, r0, r2
	/* Configure TX portpin as Open-drain General-purpose output */
    TempPortPin = (uint32_t)Handle->PinHandle.TX_Pin;

    if (FIRST_NIBBLE > TempPortPin)
    {
   	  Handle->PinHandle.TX_PortBase->IOCR0 |= \
 8002796:	430a      	orrs	r2, r1
 8002798:	611a      	str	r2, [r3, #16]
 800279a:	e04f      	b.n	800283c <UART001_lConfigTXPin+0xf0>
   			                ((uint32_t)UART001_OPENDRAIN_OUT << (3U + \
							(TempPortPin * 8U)));
    }
    else if ((FIRST_NIBBLE <= TempPortPin) && (SECOND_NIBBLE > TempPortPin))
 800279c:	68fb      	ldr	r3, [r7, #12]
 800279e:	2b03      	cmp	r3, #3
 80027a0:	d917      	bls.n	80027d2 <UART001_lConfigTXPin+0x86>
 80027a2:	68fb      	ldr	r3, [r7, #12]
 80027a4:	2b07      	cmp	r3, #7
 80027a6:	d814      	bhi.n	80027d2 <UART001_lConfigTXPin+0x86>
    {
	  TempPortPin = TempPortPin - FIRST_NIBBLE;
 80027a8:	68fb      	ldr	r3, [r7, #12]
 80027aa:	f1a3 0304 	sub.w	r3, r3, #4
 80027ae:	60fb      	str	r3, [r7, #12]
	  Handle->PinHandle.TX_PortBase->IOCR4 |= \
 80027b0:	687b      	ldr	r3, [r7, #4]
 80027b2:	685b      	ldr	r3, [r3, #4]
 80027b4:	687a      	ldr	r2, [r7, #4]
 80027b6:	6852      	ldr	r2, [r2, #4]
 80027b8:	6951      	ldr	r1, [r2, #20]
			                ((uint32_t)UART001_OPENDRAIN_OUT << (3U + \
							(TempPortPin * 8U)));
 80027ba:	68fa      	ldr	r2, [r7, #12]
 80027bc:	ea4f 02c2 	mov.w	r2, r2, lsl #3
    }
    else if ((FIRST_NIBBLE <= TempPortPin) && (SECOND_NIBBLE > TempPortPin))
    {
	  TempPortPin = TempPortPin - FIRST_NIBBLE;
	  Handle->PinHandle.TX_PortBase->IOCR4 |= \
			                ((uint32_t)UART001_OPENDRAIN_OUT << (3U + \
 80027c0:	f102 0203 	add.w	r2, r2, #3
 80027c4:	f04f 0018 	mov.w	r0, #24
 80027c8:	fa00 f202 	lsl.w	r2, r0, r2
							(TempPortPin * 8U)));
    }
    else if ((FIRST_NIBBLE <= TempPortPin) && (SECOND_NIBBLE > TempPortPin))
    {
	  TempPortPin = TempPortPin - FIRST_NIBBLE;
	  Handle->PinHandle.TX_PortBase->IOCR4 |= \
 80027cc:	430a      	orrs	r2, r1
 80027ce:	615a      	str	r2, [r3, #20]
 80027d0:	e034      	b.n	800283c <UART001_lConfigTXPin+0xf0>
			                ((uint32_t)UART001_OPENDRAIN_OUT << (3U + \
							(TempPortPin * 8U)));
    }
    else if ((SECOND_NIBBLE <= TempPortPin) && (THIRD_NIBBLE > TempPortPin))
 80027d2:	68fb      	ldr	r3, [r7, #12]
 80027d4:	2b07      	cmp	r3, #7
 80027d6:	d917      	bls.n	8002808 <UART001_lConfigTXPin+0xbc>
 80027d8:	68fb      	ldr	r3, [r7, #12]
 80027da:	2b0b      	cmp	r3, #11
 80027dc:	d814      	bhi.n	8002808 <UART001_lConfigTXPin+0xbc>
    {
 	  TempPortPin = TempPortPin - SECOND_NIBBLE;
 80027de:	68fb      	ldr	r3, [r7, #12]
 80027e0:	f1a3 0308 	sub.w	r3, r3, #8
 80027e4:	60fb      	str	r3, [r7, #12]
 	  Handle->PinHandle.TX_PortBase->IOCR8 |= \
 80027e6:	687b      	ldr	r3, [r7, #4]
 80027e8:	685b      	ldr	r3, [r3, #4]
 80027ea:	687a      	ldr	r2, [r7, #4]
 80027ec:	6852      	ldr	r2, [r2, #4]
 80027ee:	6991      	ldr	r1, [r2, #24]
 			                ((uint32_t)UART001_OPENDRAIN_OUT << (3U + \
							(TempPortPin * 8U)));
 80027f0:	68fa      	ldr	r2, [r7, #12]
 80027f2:	ea4f 02c2 	mov.w	r2, r2, lsl #3
    }
    else if ((SECOND_NIBBLE <= TempPortPin) && (THIRD_NIBBLE > TempPortPin))
    {
 	  TempPortPin = TempPortPin - SECOND_NIBBLE;
 	  Handle->PinHandle.TX_PortBase->IOCR8 |= \
 			                ((uint32_t)UART001_OPENDRAIN_OUT << (3U + \
 80027f6:	f102 0203 	add.w	r2, r2, #3
 80027fa:	f04f 0018 	mov.w	r0, #24
 80027fe:	fa00 f202 	lsl.w	r2, r0, r2
							(TempPortPin * 8U)));
    }
    else if ((SECOND_NIBBLE <= TempPortPin) && (THIRD_NIBBLE > TempPortPin))
    {
 	  TempPortPin = TempPortPin - SECOND_NIBBLE;
 	  Handle->PinHandle.TX_PortBase->IOCR8 |= \
 8002802:	430a      	orrs	r2, r1
 8002804:	619a      	str	r2, [r3, #24]
 8002806:	e019      	b.n	800283c <UART001_lConfigTXPin+0xf0>
 			                ((uint32_t)UART001_OPENDRAIN_OUT << (3U + \
							(TempPortPin * 8U)));
    }
    else if ((THIRD_NIBBLE <= TempPortPin) && (FOURTH_NIBBLE > TempPortPin))
 8002808:	68fb      	ldr	r3, [r7, #12]
 800280a:	2b0b      	cmp	r3, #11
 800280c:	d916      	bls.n	800283c <UART001_lConfigTXPin+0xf0>
 800280e:	68fb      	ldr	r3, [r7, #12]
 8002810:	2b0f      	cmp	r3, #15
 8002812:	d813      	bhi.n	800283c <UART001_lConfigTXPin+0xf0>
    {
	  TempPortPin = TempPortPin - THIRD_NIBBLE;
 8002814:	68fb      	ldr	r3, [r7, #12]
 8002816:	f1a3 030c 	sub.w	r3, r3, #12
 800281a:	60fb      	str	r3, [r7, #12]
	  Handle->PinHandle.TX_PortBase->IOCR12 |= \
 800281c:	687b      	ldr	r3, [r7, #4]
 800281e:	685b      	ldr	r3, [r3, #4]
 8002820:	687a      	ldr	r2, [r7, #4]
 8002822:	6852      	ldr	r2, [r2, #4]
 8002824:	69d1      	ldr	r1, [r2, #28]
			                ((uint32_t)UART001_OPENDRAIN_OUT << (3U + \
							(TempPortPin * 8U)));
 8002826:	68fa      	ldr	r2, [r7, #12]
 8002828:	ea4f 02c2 	mov.w	r2, r2, lsl #3
    }
    else if ((THIRD_NIBBLE <= TempPortPin) && (FOURTH_NIBBLE > TempPortPin))
    {
	  TempPortPin = TempPortPin - THIRD_NIBBLE;
	  Handle->PinHandle.TX_PortBase->IOCR12 |= \
			                ((uint32_t)UART001_OPENDRAIN_OUT << (3U + \
 800282c:	f102 0203 	add.w	r2, r2, #3
 8002830:	f04f 0018 	mov.w	r0, #24
 8002834:	fa00 f202 	lsl.w	r2, r0, r2
							(TempPortPin * 8U)));
    }
    else if ((THIRD_NIBBLE <= TempPortPin) && (FOURTH_NIBBLE > TempPortPin))
    {
	  TempPortPin = TempPortPin - THIRD_NIBBLE;
	  Handle->PinHandle.TX_PortBase->IOCR12 |= \
 8002838:	430a      	orrs	r2, r1
 800283a:	61da      	str	r2, [r3, #28]
							(TempPortPin * 8U)));
    }
	else
	{}

}
 800283c:	f107 0714 	add.w	r7, r7, #20
 8002840:	46bd      	mov	sp, r7
 8002842:	bc80      	pop	{r7}
 8002844:	4770      	bx	lr
 8002846:	bf00      	nop

08002848 <UART001_labsRealType>:
 * 				 -ve float value if Number is >= 0.0 <BR>
 *
 * <b>Reentrant: No </b><BR>
 ******************************************************************************/
float UART001_labsRealType(float Number)
{
 8002848:	b480      	push	{r7}
 800284a:	b085      	sub	sp, #20
 800284c:	af00      	add	r7, sp, #0
 800284e:	6078      	str	r0, [r7, #4]
   float return_value;
	if (Number < 0.0F){
 8002850:	edd7 7a01 	vldr	s15, [r7, #4]
 8002854:	eef5 7ac0 	vcmpe.f32	s15, #0.0
 8002858:	eef1 fa10 	vmrs	APSR_nzcv, fpscr
 800285c:	d506      	bpl.n	800286c <UART001_labsRealType+0x24>
		return_value = -Number;
 800285e:	edd7 7a01 	vldr	s15, [r7, #4]
 8002862:	eef1 7a67 	vneg.f32	s15, s15
 8002866:	edc7 7a03 	vstr	s15, [r7, #12]
 800286a:	e001      	b.n	8002870 <UART001_labsRealType+0x28>
	}
	else{
		return_value = Number;
 800286c:	687b      	ldr	r3, [r7, #4]
 800286e:	60fb      	str	r3, [r7, #12]
	}
	return return_value;
 8002870:	68fb      	ldr	r3, [r7, #12]
}
 8002872:	4618      	mov	r0, r3
 8002874:	f107 0714 	add.w	r7, r7, #20
 8002878:	46bd      	mov	sp, r7
 800287a:	bc80      	pop	{r7}
 800287c:	4770      	bx	lr
 800287e:	bf00      	nop

08002880 <UART001_lConfigureBaudRate>:
 *
 * <b>Reentrant: No </b><BR>
 ******************************************************************************/
void UART001_lConfigureBaudRate\
                              (uint32_t BaudRate,uint32_t* Pdiv,uint32_t* Step)
{
 8002880:	b580      	push	{r7, lr}
 8002882:	ed2d 8b02 	vpush	{d8}
 8002886:	b0ae      	sub	sp, #184	; 0xb8
 8002888:	af00      	add	r7, sp, #0
 800288a:	60f8      	str	r0, [r7, #12]
 800288c:	60b9      	str	r1, [r7, #8]
 800288e:	607a      	str	r2, [r7, #4]
	uint32_t fdr_step = 0x00U;
 8002890:	f04f 0300 	mov.w	r3, #0
 8002894:	f8c7 30b4 	str.w	r3, [r7, #180]	; 0xb4
	uint32_t brg_pdiv = 0x00U;
 8002898:	f04f 0300 	mov.w	r3, #0
 800289c:	f8c7 30b0 	str.w	r3, [r7, #176]	; 0xb0
	uint32_t divisor_in = BaudRate ;
 80028a0:	68fb      	ldr	r3, [r7, #12]
 80028a2:	f8c7 30ac 	str.w	r3, [r7, #172]	; 0xac
	/* fPB / 1024 * (Brg_dctq + 1) */
	uint32_t dividend_in = 0U;
 80028a6:	f04f 0300 	mov.w	r3, #0
 80028aa:	f8c7 30a8 	str.w	r3, [r7, #168]	; 0xa8
	uint32_t divisor_array[4];
	uint32_t dividend_array[4];
	uint32_t div_array[4];
	uint32_t max, frac,divisor1,divisor2,dividend1,dividend2;
	uint32_t array_count,array_count_1,array_count_2;
	uint32_t do_while_break = 0U;
 80028ae:	f04f 0300 	mov.w	r3, #0
 80028b2:	f8c7 3088 	str.w	r3, [r7, #136]	; 0x88
	uint32_t temp = 0U;
 80028b6:	f04f 0300 	mov.w	r3, #0
 80028ba:	67fb      	str	r3, [r7, #124]	; 0x7c
	float div_factor;
	uint32_t loop_cnt;
	bool swapped;
	dividend_in = (uint32_t)((uint32_t)(UART001_CLOCK * 1000000)/ \
 80028bc:	f642 53c6 	movw	r3, #11718	; 0x2dc6
 80028c0:	f8c7 30a8 	str.w	r3, [r7, #168]	; 0xa8
                    	(UART001_MAX_VALUE * UART001_DCTQ_VALUE)); 
	/* swap if divisor_in/dividend_in > max_divisor/max_dividend */
	div_factor = (float) divisor_in/(float) dividend_in;
 80028c4:	edd7 7a2b 	vldr	s15, [r7, #172]	; 0xac
 80028c8:	eeb8 7a67 	vcvt.f32.u32	s14, s15
 80028cc:	edd7 7a2a 	vldr	s15, [r7, #168]	; 0xa8
 80028d0:	eef8 7a67 	vcvt.f32.u32	s15, s15
 80028d4:	eec7 7a27 	vdiv.f32	s15, s14, s15
 80028d8:	edc7 7a1e 	vstr	s15, [r7, #120]	; 0x78
	if ( div_factor > 1.0F)
 80028dc:	ed97 7a1e 	vldr	s14, [r7, #120]	; 0x78
 80028e0:	eef7 7a00 	vmov.f32	s15, #112	; 0x70
 80028e4:	eeb4 7ae7 	vcmpe.f32	s14, s15
 80028e8:	eef1 fa10 	vmrs	APSR_nzcv, fpscr
 80028ec:	dd12      	ble.n	8002914 <UART001_lConfigureBaudRate+0x94>
	{
		max = UART001_MAX_VALUE;
 80028ee:	f44f 6380 	mov.w	r3, #1024	; 0x400
 80028f2:	f8c7 30a4 	str.w	r3, [r7, #164]	; 0xa4
		swapped = 1U;
 80028f6:	f04f 0301 	mov.w	r3, #1
 80028fa:	f887 3083 	strb.w	r3, [r7, #131]	; 0x83
		temp = divisor_in;
 80028fe:	f8d7 30ac 	ldr.w	r3, [r7, #172]	; 0xac
 8002902:	67fb      	str	r3, [r7, #124]	; 0x7c
		divisor_in = dividend_in;
 8002904:	f8d7 30a8 	ldr.w	r3, [r7, #168]	; 0xa8
 8002908:	f8c7 30ac 	str.w	r3, [r7, #172]	; 0xac
		dividend_in = temp;
 800290c:	6ffb      	ldr	r3, [r7, #124]	; 0x7c
 800290e:	f8c7 30a8 	str.w	r3, [r7, #168]	; 0xa8
 8002912:	e007      	b.n	8002924 <UART001_lConfigureBaudRate+0xa4>
	}
	else
	{
		swapped = 0U;
 8002914:	f04f 0300 	mov.w	r3, #0
 8002918:	f887 3083 	strb.w	r3, [r7, #131]	; 0x83
		max = UART001_MAX_VALUE;
 800291c:	f44f 6380 	mov.w	r3, #1024	; 0x400
 8002920:	f8c7 30a4 	str.w	r3, [r7, #164]	; 0xa4
	}
	/*Init parameters*/
	loop_cnt = 0U;
 8002924:	f04f 0300 	mov.w	r3, #0
 8002928:	f8c7 3084 	str.w	r3, [r7, #132]	; 0x84
	array_count = 0U;
 800292c:	f04f 0300 	mov.w	r3, #0
 8002930:	f8c7 3090 	str.w	r3, [r7, #144]	; 0x90
	array_count_1 = 0U;
 8002934:	f04f 0300 	mov.w	r3, #0
 8002938:	f8c7 308c 	str.w	r3, [r7, #140]	; 0x8c
	divisor[0] = divisor_in;
 800293c:	f8d7 30ac 	ldr.w	r3, [r7, #172]	; 0xac
 8002940:	663b      	str	r3, [r7, #96]	; 0x60
	remainder[0] = dividend_in;
 8002942:	f8d7 30a8 	ldr.w	r3, [r7, #168]	; 0xa8
 8002946:	643b      	str	r3, [r7, #64]	; 0x40
	divisor_array[0] = 1U;
 8002948:	f04f 0301 	mov.w	r3, #1
 800294c:	633b      	str	r3, [r7, #48]	; 0x30
	dividend_array[0] = 0U;
 800294e:	f04f 0300 	mov.w	r3, #0
 8002952:	623b      	str	r3, [r7, #32]
	do {
			++loop_cnt;
 8002954:	f8d7 3084 	ldr.w	r3, [r7, #132]	; 0x84
 8002958:	f103 0301 	add.w	r3, r3, #1
 800295c:	f8c7 3084 	str.w	r3, [r7, #132]	; 0x84
			array_count_2 = array_count_1; /* on first loop is not used */
 8002960:	f8d7 308c 	ldr.w	r3, [r7, #140]	; 0x8c
 8002964:	677b      	str	r3, [r7, #116]	; 0x74
			array_count_1 = array_count;
 8002966:	f8d7 3090 	ldr.w	r3, [r7, #144]	; 0x90
 800296a:	f8c7 308c 	str.w	r3, [r7, #140]	; 0x8c
			array_count = loop_cnt % 4U;
 800296e:	f8d7 3084 	ldr.w	r3, [r7, #132]	; 0x84
 8002972:	f003 0303 	and.w	r3, r3, #3
 8002976:	f8c7 3090 	str.w	r3, [r7, #144]	; 0x90
			dividend[array_count] = divisor[array_count_1];
 800297a:	f8d7 308c 	ldr.w	r3, [r7, #140]	; 0x8c
 800297e:	ea4f 0383 	mov.w	r3, r3, lsl #2
 8002982:	f107 01b8 	add.w	r1, r7, #184	; 0xb8
 8002986:	18cb      	adds	r3, r1, r3
 8002988:	f853 2c58 	ldr.w	r2, [r3, #-88]
 800298c:	f8d7 3090 	ldr.w	r3, [r7, #144]	; 0x90
 8002990:	ea4f 0383 	mov.w	r3, r3, lsl #2
 8002994:	f107 01b8 	add.w	r1, r7, #184	; 0xb8
 8002998:	18cb      	adds	r3, r1, r3
 800299a:	f843 2c68 	str.w	r2, [r3, #-104]
			
			divisor[array_count] = remainder[array_count_1];
 800299e:	f8d7 308c 	ldr.w	r3, [r7, #140]	; 0x8c
 80029a2:	ea4f 0383 	mov.w	r3, r3, lsl #2
 80029a6:	f107 02b8 	add.w	r2, r7, #184	; 0xb8
 80029aa:	18d3      	adds	r3, r2, r3
 80029ac:	f853 2c78 	ldr.w	r2, [r3, #-120]
 80029b0:	f8d7 3090 	ldr.w	r3, [r7, #144]	; 0x90
 80029b4:	ea4f 0383 	mov.w	r3, r3, lsl #2
 80029b8:	f107 01b8 	add.w	r1, r7, #184	; 0xb8
 80029bc:	18cb      	adds	r3, r1, r3
 80029be:	f843 2c58 	str.w	r2, [r3, #-88]
			
			div_array[array_count] = \
			                       dividend[array_count] / divisor[array_count];
 80029c2:	f8d7 3090 	ldr.w	r3, [r7, #144]	; 0x90
 80029c6:	ea4f 0383 	mov.w	r3, r3, lsl #2
 80029ca:	f107 02b8 	add.w	r2, r7, #184	; 0xb8
 80029ce:	18d3      	adds	r3, r2, r3
 80029d0:	f853 2c68 	ldr.w	r2, [r3, #-104]
 80029d4:	f8d7 3090 	ldr.w	r3, [r7, #144]	; 0x90
 80029d8:	ea4f 0383 	mov.w	r3, r3, lsl #2
 80029dc:	f107 01b8 	add.w	r1, r7, #184	; 0xb8
 80029e0:	18cb      	adds	r3, r1, r3
 80029e2:	f853 3c58 	ldr.w	r3, [r3, #-88]
 80029e6:	fbb2 f2f3 	udiv	r2, r2, r3
			array_count = loop_cnt % 4U;
			dividend[array_count] = divisor[array_count_1];
			
			divisor[array_count] = remainder[array_count_1];
			
			div_array[array_count] = \
 80029ea:	f8d7 3090 	ldr.w	r3, [r7, #144]	; 0x90
 80029ee:	ea4f 0383 	mov.w	r3, r3, lsl #2
 80029f2:	f107 01b8 	add.w	r1, r7, #184	; 0xb8
 80029f6:	18cb      	adds	r3, r1, r3
 80029f8:	f843 2ca8 	str.w	r2, [r3, #-168]
			                       dividend[array_count] / divisor[array_count];
			
			remainder[array_count] = \
			                       dividend[array_count] % divisor[array_count];
 80029fc:	f8d7 3090 	ldr.w	r3, [r7, #144]	; 0x90
 8002a00:	ea4f 0383 	mov.w	r3, r3, lsl #2
 8002a04:	f107 02b8 	add.w	r2, r7, #184	; 0xb8
 8002a08:	18d3      	adds	r3, r2, r3
 8002a0a:	f853 2c68 	ldr.w	r2, [r3, #-104]
 8002a0e:	f8d7 3090 	ldr.w	r3, [r7, #144]	; 0x90
 8002a12:	ea4f 0383 	mov.w	r3, r3, lsl #2
 8002a16:	f107 01b8 	add.w	r1, r7, #184	; 0xb8
 8002a1a:	18cb      	adds	r3, r1, r3
 8002a1c:	f853 3c58 	ldr.w	r3, [r3, #-88]
 8002a20:	fbb2 f1f3 	udiv	r1, r2, r3
 8002a24:	fb03 f301 	mul.w	r3, r3, r1
 8002a28:	1ad2      	subs	r2, r2, r3
			divisor[array_count] = remainder[array_count_1];
			
			div_array[array_count] = \
			                       dividend[array_count] / divisor[array_count];
			
			remainder[array_count] = \
 8002a2a:	f8d7 3090 	ldr.w	r3, [r7, #144]	; 0x90
 8002a2e:	ea4f 0383 	mov.w	r3, r3, lsl #2
 8002a32:	f107 01b8 	add.w	r1, r7, #184	; 0xb8
 8002a36:	18cb      	adds	r3, r1, r3
 8002a38:	f843 2c78 	str.w	r2, [r3, #-120]
			                       dividend[array_count] % divisor[array_count];
			
			/* This executed only on first loop */
			if (loop_cnt == 1U)
 8002a3c:	f8d7 3084 	ldr.w	r3, [r7, #132]	; 0x84
 8002a40:	2b01      	cmp	r3, #1
 8002a42:	d105      	bne.n	8002a50 <UART001_lConfigureBaudRate+0x1d0>
			{ 
				divisor_array[1] = div_array[1];
 8002a44:	697b      	ldr	r3, [r7, #20]
 8002a46:	637b      	str	r3, [r7, #52]	; 0x34
				dividend_array[1] = 1U;
 8002a48:	f04f 0301 	mov.w	r3, #1
 8002a4c:	627b      	str	r3, [r7, #36]	; 0x24
 8002a4e:	e04b      	b.n	8002ae8 <UART001_lConfigureBaudRate+0x268>
			}
			else
			{
				divisor_array[array_count] = \
				      (div_array[array_count] * divisor_array[array_count_1]) + \
 8002a50:	f8d7 3090 	ldr.w	r3, [r7, #144]	; 0x90
 8002a54:	ea4f 0383 	mov.w	r3, r3, lsl #2
 8002a58:	f107 02b8 	add.w	r2, r7, #184	; 0xb8
 8002a5c:	18d3      	adds	r3, r2, r3
 8002a5e:	f853 2ca8 	ldr.w	r2, [r3, #-168]
 8002a62:	f8d7 308c 	ldr.w	r3, [r7, #140]	; 0x8c
 8002a66:	ea4f 0383 	mov.w	r3, r3, lsl #2
 8002a6a:	f107 01b8 	add.w	r1, r7, #184	; 0xb8
 8002a6e:	18cb      	adds	r3, r1, r3
 8002a70:	f853 3c88 	ldr.w	r3, [r3, #-136]
 8002a74:	fb03 f202 	mul.w	r2, r3, r2
				       divisor_array[array_count_2];
 8002a78:	6f7b      	ldr	r3, [r7, #116]	; 0x74
 8002a7a:	ea4f 0383 	mov.w	r3, r3, lsl #2
 8002a7e:	f107 01b8 	add.w	r1, r7, #184	; 0xb8
 8002a82:	18cb      	adds	r3, r1, r3
 8002a84:	f853 3c88 	ldr.w	r3, [r3, #-136]
				dividend_array[1] = 1U;
			}
			else
			{
				divisor_array[array_count] = \
				      (div_array[array_count] * divisor_array[array_count_1]) + \
 8002a88:	18d2      	adds	r2, r2, r3
				divisor_array[1] = div_array[1];
				dividend_array[1] = 1U;
			}
			else
			{
				divisor_array[array_count] = \
 8002a8a:	f8d7 3090 	ldr.w	r3, [r7, #144]	; 0x90
 8002a8e:	ea4f 0383 	mov.w	r3, r3, lsl #2
 8002a92:	f107 01b8 	add.w	r1, r7, #184	; 0xb8
 8002a96:	18cb      	adds	r3, r1, r3
 8002a98:	f843 2c88 	str.w	r2, [r3, #-136]
				      (div_array[array_count] * divisor_array[array_count_1]) + \
				       divisor_array[array_count_2];
				dividend_array[array_count] = \
				      (div_array[array_count] * dividend_array[array_count_1]) + \
 8002a9c:	f8d7 3090 	ldr.w	r3, [r7, #144]	; 0x90
 8002aa0:	ea4f 0383 	mov.w	r3, r3, lsl #2
 8002aa4:	f107 02b8 	add.w	r2, r7, #184	; 0xb8
 8002aa8:	18d3      	adds	r3, r2, r3
 8002aaa:	f853 2ca8 	ldr.w	r2, [r3, #-168]
 8002aae:	f8d7 308c 	ldr.w	r3, [r7, #140]	; 0x8c
 8002ab2:	ea4f 0383 	mov.w	r3, r3, lsl #2
 8002ab6:	f107 01b8 	add.w	r1, r7, #184	; 0xb8
 8002aba:	18cb      	adds	r3, r1, r3
 8002abc:	f853 3c98 	ldr.w	r3, [r3, #-152]
 8002ac0:	fb03 f202 	mul.w	r2, r3, r2
				       dividend_array[array_count_2];
 8002ac4:	6f7b      	ldr	r3, [r7, #116]	; 0x74
 8002ac6:	ea4f 0383 	mov.w	r3, r3, lsl #2
 8002aca:	f107 01b8 	add.w	r1, r7, #184	; 0xb8
 8002ace:	18cb      	adds	r3, r1, r3
 8002ad0:	f853 3c98 	ldr.w	r3, [r3, #-152]
			{
				divisor_array[array_count] = \
				      (div_array[array_count] * divisor_array[array_count_1]) + \
				       divisor_array[array_count_2];
				dividend_array[array_count] = \
				      (div_array[array_count] * dividend_array[array_count_1]) + \
 8002ad4:	18d2      	adds	r2, r2, r3
			else
			{
				divisor_array[array_count] = \
				      (div_array[array_count] * divisor_array[array_count_1]) + \
				       divisor_array[array_count_2];
				dividend_array[array_count] = \
 8002ad6:	f8d7 3090 	ldr.w	r3, [r7, #144]	; 0x90
 8002ada:	ea4f 0383 	mov.w	r3, r3, lsl #2
 8002ade:	f107 01b8 	add.w	r1, r7, #184	; 0xb8
 8002ae2:	18cb      	adds	r3, r1, r3
 8002ae4:	f843 2c98 	str.w	r2, [r3, #-152]
				      (div_array[array_count] * dividend_array[array_count_1]) + \
				       dividend_array[array_count_2];
			}
			if (dividend_array[array_count] > max) 
 8002ae8:	f8d7 3090 	ldr.w	r3, [r7, #144]	; 0x90
 8002aec:	ea4f 0383 	mov.w	r3, r3, lsl #2
 8002af0:	f107 02b8 	add.w	r2, r7, #184	; 0xb8
 8002af4:	18d3      	adds	r3, r2, r3
 8002af6:	f853 2c98 	ldr.w	r2, [r3, #-152]
 8002afa:	f8d7 30a4 	ldr.w	r3, [r7, #164]	; 0xa4
 8002afe:	429a      	cmp	r2, r3
 8002b00:	f240 80df 	bls.w	8002cc2 <UART001_lConfigureBaudRate+0x442>
			{
				divisor1 = divisor_array[array_count_1];
 8002b04:	f8d7 308c 	ldr.w	r3, [r7, #140]	; 0x8c
 8002b08:	ea4f 0383 	mov.w	r3, r3, lsl #2
 8002b0c:	f107 01b8 	add.w	r1, r7, #184	; 0xb8
 8002b10:	18cb      	adds	r3, r1, r3
 8002b12:	f853 3c88 	ldr.w	r3, [r3, #-136]
 8002b16:	f8c7 30a0 	str.w	r3, [r7, #160]	; 0xa0
				dividend1 = dividend_array[array_count_1];
 8002b1a:	f8d7 308c 	ldr.w	r3, [r7, #140]	; 0x8c
 8002b1e:	ea4f 0383 	mov.w	r3, r3, lsl #2
 8002b22:	f107 02b8 	add.w	r2, r7, #184	; 0xb8
 8002b26:	18d3      	adds	r3, r2, r3
 8002b28:	f853 3c98 	ldr.w	r3, [r3, #-152]
 8002b2c:	f8c7 3098 	str.w	r3, [r7, #152]	; 0x98
				frac = (max - dividend_array[array_count_2]) / \
 8002b30:	6f7b      	ldr	r3, [r7, #116]	; 0x74
 8002b32:	ea4f 0383 	mov.w	r3, r3, lsl #2
 8002b36:	f107 01b8 	add.w	r1, r7, #184	; 0xb8
 8002b3a:	18cb      	adds	r3, r1, r3
 8002b3c:	f853 3c98 	ldr.w	r3, [r3, #-152]
 8002b40:	f8d7 20a4 	ldr.w	r2, [r7, #164]	; 0xa4
 8002b44:	1ad2      	subs	r2, r2, r3
				                               dividend_array[array_count_1];
 8002b46:	f8d7 308c 	ldr.w	r3, [r7, #140]	; 0x8c
 8002b4a:	ea4f 0383 	mov.w	r3, r3, lsl #2
 8002b4e:	f107 01b8 	add.w	r1, r7, #184	; 0xb8
 8002b52:	18cb      	adds	r3, r1, r3
 8002b54:	f853 3c98 	ldr.w	r3, [r3, #-152]
			}
			if (dividend_array[array_count] > max) 
			{
				divisor1 = divisor_array[array_count_1];
				dividend1 = dividend_array[array_count_1];
				frac = (max - dividend_array[array_count_2]) / \
 8002b58:	fbb2 f3f3 	udiv	r3, r2, r3
 8002b5c:	673b      	str	r3, [r7, #112]	; 0x70
				                               dividend_array[array_count_1];
				divisor2 = (frac * divisor_array[array_count-1U]) + \
 8002b5e:	f8d7 3090 	ldr.w	r3, [r7, #144]	; 0x90
 8002b62:	f103 33ff 	add.w	r3, r3, #4294967295
 8002b66:	ea4f 0383 	mov.w	r3, r3, lsl #2
 8002b6a:	f107 02b8 	add.w	r2, r7, #184	; 0xb8
 8002b6e:	18d3      	adds	r3, r2, r3
 8002b70:	f853 3c88 	ldr.w	r3, [r3, #-136]
 8002b74:	6f3a      	ldr	r2, [r7, #112]	; 0x70
 8002b76:	fb02 f203 	mul.w	r2, r2, r3
				                                divisor_array[array_count-2U];
 8002b7a:	f8d7 3090 	ldr.w	r3, [r7, #144]	; 0x90
 8002b7e:	f1a3 0302 	sub.w	r3, r3, #2
 8002b82:	ea4f 0383 	mov.w	r3, r3, lsl #2
 8002b86:	f107 01b8 	add.w	r1, r7, #184	; 0xb8
 8002b8a:	18cb      	adds	r3, r1, r3
 8002b8c:	f853 3c88 	ldr.w	r3, [r3, #-136]
			{
				divisor1 = divisor_array[array_count_1];
				dividend1 = dividend_array[array_count_1];
				frac = (max - dividend_array[array_count_2]) / \
				                               dividend_array[array_count_1];
				divisor2 = (frac * divisor_array[array_count-1U]) + \
 8002b90:	18d3      	adds	r3, r2, r3
 8002b92:	f8c7 309c 	str.w	r3, [r7, #156]	; 0x9c
				                                divisor_array[array_count-2U];
				dividend2 = (frac * dividend_array[array_count-1U]) + \
 8002b96:	f8d7 3090 	ldr.w	r3, [r7, #144]	; 0x90
 8002b9a:	f103 33ff 	add.w	r3, r3, #4294967295
 8002b9e:	ea4f 0383 	mov.w	r3, r3, lsl #2
 8002ba2:	f107 02b8 	add.w	r2, r7, #184	; 0xb8
 8002ba6:	18d3      	adds	r3, r2, r3
 8002ba8:	f853 3c98 	ldr.w	r3, [r3, #-152]
 8002bac:	6f3a      	ldr	r2, [r7, #112]	; 0x70
 8002bae:	fb02 f203 	mul.w	r2, r2, r3
				                               dividend_array[array_count_2];
 8002bb2:	6f7b      	ldr	r3, [r7, #116]	; 0x74
 8002bb4:	ea4f 0383 	mov.w	r3, r3, lsl #2
 8002bb8:	f107 01b8 	add.w	r1, r7, #184	; 0xb8
 8002bbc:	18cb      	adds	r3, r1, r3
 8002bbe:	f853 3c98 	ldr.w	r3, [r3, #-152]
				dividend1 = dividend_array[array_count_1];
				frac = (max - dividend_array[array_count_2]) / \
				                               dividend_array[array_count_1];
				divisor2 = (frac * divisor_array[array_count-1U]) + \
				                                divisor_array[array_count-2U];
				dividend2 = (frac * dividend_array[array_count-1U]) + \
 8002bc2:	18d3      	adds	r3, r2, r3
 8002bc4:	f8c7 3094 	str.w	r3, [r7, #148]	; 0x94
				                               dividend_array[array_count_2];
				/* Swap if required */
				if (swapped) {
 8002bc8:	f897 3083 	ldrb.w	r3, [r7, #131]	; 0x83
 8002bcc:	2b00      	cmp	r3, #0
 8002bce:	d013      	beq.n	8002bf8 <UART001_lConfigureBaudRate+0x378>
						/* Swap divisor1 and dividend1 */
						temp = divisor1;
 8002bd0:	f8d7 30a0 	ldr.w	r3, [r7, #160]	; 0xa0
 8002bd4:	67fb      	str	r3, [r7, #124]	; 0x7c
						divisor1 = dividend1;
 8002bd6:	f8d7 3098 	ldr.w	r3, [r7, #152]	; 0x98
 8002bda:	f8c7 30a0 	str.w	r3, [r7, #160]	; 0xa0
						dividend1 = temp;
 8002bde:	6ffb      	ldr	r3, [r7, #124]	; 0x7c
 8002be0:	f8c7 3098 	str.w	r3, [r7, #152]	; 0x98
						/* Swap divisor2 and dividend2 */
						temp = divisor2;
 8002be4:	f8d7 309c 	ldr.w	r3, [r7, #156]	; 0x9c
 8002be8:	67fb      	str	r3, [r7, #124]	; 0x7c
						divisor2 = dividend2;
 8002bea:	f8d7 3094 	ldr.w	r3, [r7, #148]	; 0x94
 8002bee:	f8c7 309c 	str.w	r3, [r7, #156]	; 0x9c
						dividend2 = temp;
 8002bf2:	6ffb      	ldr	r3, [r7, #124]	; 0x7c
 8002bf4:	f8c7 3094 	str.w	r3, [r7, #148]	; 0x94
					}
				/* Remove if one of has divisor 0 */
				if ((dividend1 == 0U) || (divisor1 == 0U)) {
 8002bf8:	f8d7 3098 	ldr.w	r3, [r7, #152]	; 0x98
 8002bfc:	2b00      	cmp	r3, #0
 8002bfe:	d003      	beq.n	8002c08 <UART001_lConfigureBaudRate+0x388>
 8002c00:	f8d7 30a0 	ldr.w	r3, [r7, #160]	; 0xa0
 8002c04:	2b00      	cmp	r3, #0
 8002c06:	d108      	bne.n	8002c1a <UART001_lConfigureBaudRate+0x39a>
					fdr_step = divisor2;
 8002c08:	f8d7 309c 	ldr.w	r3, [r7, #156]	; 0x9c
 8002c0c:	f8c7 30b4 	str.w	r3, [r7, #180]	; 0xb4
					brg_pdiv = dividend2;
 8002c10:	f8d7 3094 	ldr.w	r3, [r7, #148]	; 0x94
 8002c14:	f8c7 30b0 	str.w	r3, [r7, #176]	; 0xb0
 8002c18:	e04e      	b.n	8002cb8 <UART001_lConfigureBaudRate+0x438>
				}else if ((dividend2 == 0U) || (divisor2 == 0U)) {
 8002c1a:	f8d7 3094 	ldr.w	r3, [r7, #148]	; 0x94
 8002c1e:	2b00      	cmp	r3, #0
 8002c20:	d003      	beq.n	8002c2a <UART001_lConfigureBaudRate+0x3aa>
 8002c22:	f8d7 309c 	ldr.w	r3, [r7, #156]	; 0x9c
 8002c26:	2b00      	cmp	r3, #0
 8002c28:	d108      	bne.n	8002c3c <UART001_lConfigureBaudRate+0x3bc>
					fdr_step = divisor1;
 8002c2a:	f8d7 30a0 	ldr.w	r3, [r7, #160]	; 0xa0
 8002c2e:	f8c7 30b4 	str.w	r3, [r7, #180]	; 0xb4
					brg_pdiv = dividend1;
 8002c32:	f8d7 3098 	ldr.w	r3, [r7, #152]	; 0x98
 8002c36:	f8c7 30b0 	str.w	r3, [r7, #176]	; 0xb0
 8002c3a:	e03d      	b.n	8002cb8 <UART001_lConfigureBaudRate+0x438>
				}else { 
					/*  Find the most nearest to target division */
					if (UART001_labsRealType(div_factor - \
					    ((float) divisor1 / (float) dividend1 )) > \
 8002c3c:	edd7 7a28 	vldr	s15, [r7, #160]	; 0xa0
 8002c40:	eeb8 7a67 	vcvt.f32.u32	s14, s15
 8002c44:	edd7 7a26 	vldr	s15, [r7, #152]	; 0x98
 8002c48:	eef8 7a67 	vcvt.f32.u32	s15, s15
 8002c4c:	eec7 7a27 	vdiv.f32	s15, s14, s15
				}else if ((dividend2 == 0U) || (divisor2 == 0U)) {
					fdr_step = divisor1;
					brg_pdiv = dividend1;
				}else { 
					/*  Find the most nearest to target division */
					if (UART001_labsRealType(div_factor - \
 8002c50:	ed97 7a1e 	vldr	s14, [r7, #120]	; 0x78
 8002c54:	ee77 7a67 	vsub.f32	s15, s14, s15
 8002c58:	ee17 0a90 	vmov	r0, s15
 8002c5c:	f7ff fdf4 	bl	8002848 <UART001_labsRealType>
 8002c60:	ee08 0a10 	vmov	s16, r0
					    ((float) divisor1 / (float) dividend1 )) > \
					    UART001_labsRealType(div_factor - \
					    ((float) divisor2 / (float) dividend2 ))) 
 8002c64:	edd7 7a27 	vldr	s15, [r7, #156]	; 0x9c
 8002c68:	eeb8 7a67 	vcvt.f32.u32	s14, s15
 8002c6c:	edd7 7a25 	vldr	s15, [r7, #148]	; 0x94
 8002c70:	eef8 7a67 	vcvt.f32.u32	s15, s15
 8002c74:	eec7 7a27 	vdiv.f32	s15, s14, s15
					brg_pdiv = dividend1;
				}else { 
					/*  Find the most nearest to target division */
					if (UART001_labsRealType(div_factor - \
					    ((float) divisor1 / (float) dividend1 )) > \
					    UART001_labsRealType(div_factor - \
 8002c78:	ed97 7a1e 	vldr	s14, [r7, #120]	; 0x78
 8002c7c:	ee77 7a67 	vsub.f32	s15, s14, s15
 8002c80:	ee17 0a90 	vmov	r0, s15
 8002c84:	f7ff fde0 	bl	8002848 <UART001_labsRealType>
 8002c88:	ee07 0a90 	vmov	s15, r0
				}else if ((dividend2 == 0U) || (divisor2 == 0U)) {
					fdr_step = divisor1;
					brg_pdiv = dividend1;
				}else { 
					/*  Find the most nearest to target division */
					if (UART001_labsRealType(div_factor - \
 8002c8c:	eeb4 8ae7 	vcmpe.f32	s16, s15
 8002c90:	eef1 fa10 	vmrs	APSR_nzcv, fpscr
 8002c94:	dd08      	ble.n	8002ca8 <UART001_lConfigureBaudRate+0x428>
					    ((float) divisor1 / (float) dividend1 )) > \
					    UART001_labsRealType(div_factor - \
					    ((float) divisor2 / (float) dividend2 ))) 
					{
						fdr_step = divisor2;
 8002c96:	f8d7 309c 	ldr.w	r3, [r7, #156]	; 0x9c
 8002c9a:	f8c7 30b4 	str.w	r3, [r7, #180]	; 0xb4
						brg_pdiv = dividend2;
 8002c9e:	f8d7 3094 	ldr.w	r3, [r7, #148]	; 0x94
 8002ca2:	f8c7 30b0 	str.w	r3, [r7, #176]	; 0xb0
 8002ca6:	e007      	b.n	8002cb8 <UART001_lConfigureBaudRate+0x438>
					}else {
						fdr_step = divisor1;
 8002ca8:	f8d7 30a0 	ldr.w	r3, [r7, #160]	; 0xa0
 8002cac:	f8c7 30b4 	str.w	r3, [r7, #180]	; 0xb4
						brg_pdiv = dividend1;
 8002cb0:	f8d7 3098 	ldr.w	r3, [r7, #152]	; 0x98
 8002cb4:	f8c7 30b0 	str.w	r3, [r7, #176]	; 0xb0
					}
				}
				do_while_break = 0x05U;
 8002cb8:	f04f 0305 	mov.w	r3, #5
 8002cbc:	f8c7 3088 	str.w	r3, [r7, #136]	; 0x88
 8002cc0:	e032      	b.n	8002d28 <UART001_lConfigureBaudRate+0x4a8>
			}
			else if (remainder[array_count]== 0U) 
 8002cc2:	f8d7 3090 	ldr.w	r3, [r7, #144]	; 0x90
 8002cc6:	ea4f 0383 	mov.w	r3, r3, lsl #2
 8002cca:	f107 02b8 	add.w	r2, r7, #184	; 0xb8
 8002cce:	18d3      	adds	r3, r2, r3
 8002cd0:	f853 3c78 	ldr.w	r3, [r3, #-120]
 8002cd4:	2b00      	cmp	r3, #0
 8002cd6:	d127      	bne.n	8002d28 <UART001_lConfigureBaudRate+0x4a8>
			{
				fdr_step = divisor_array[array_count];
 8002cd8:	f8d7 3090 	ldr.w	r3, [r7, #144]	; 0x90
 8002cdc:	ea4f 0383 	mov.w	r3, r3, lsl #2
 8002ce0:	f107 01b8 	add.w	r1, r7, #184	; 0xb8
 8002ce4:	18cb      	adds	r3, r1, r3
 8002ce6:	f853 3c88 	ldr.w	r3, [r3, #-136]
 8002cea:	f8c7 30b4 	str.w	r3, [r7, #180]	; 0xb4
				brg_pdiv = dividend_array[array_count];
 8002cee:	f8d7 3090 	ldr.w	r3, [r7, #144]	; 0x90
 8002cf2:	ea4f 0383 	mov.w	r3, r3, lsl #2
 8002cf6:	f107 02b8 	add.w	r2, r7, #184	; 0xb8
 8002cfa:	18d3      	adds	r3, r2, r3
 8002cfc:	f853 3c98 	ldr.w	r3, [r3, #-152]
 8002d00:	f8c7 30b0 	str.w	r3, [r7, #176]	; 0xb0
				if (swapped)
 8002d04:	f897 3083 	ldrb.w	r3, [r7, #131]	; 0x83
 8002d08:	2b00      	cmp	r3, #0
 8002d0a:	d009      	beq.n	8002d20 <UART001_lConfigureBaudRate+0x4a0>
				{
					/* Swap fdr_step and brg_pdiv */
					temp = fdr_step;
 8002d0c:	f8d7 30b4 	ldr.w	r3, [r7, #180]	; 0xb4
 8002d10:	67fb      	str	r3, [r7, #124]	; 0x7c
					fdr_step = brg_pdiv;
 8002d12:	f8d7 30b0 	ldr.w	r3, [r7, #176]	; 0xb0
 8002d16:	f8c7 30b4 	str.w	r3, [r7, #180]	; 0xb4
					brg_pdiv = temp;
 8002d1a:	6ffb      	ldr	r3, [r7, #124]	; 0x7c
 8002d1c:	f8c7 30b0 	str.w	r3, [r7, #176]	; 0xb0
				}
				do_while_break = 0x05U;
 8002d20:	f04f 0305 	mov.w	r3, #5
 8002d24:	f8c7 3088 	str.w	r3, [r7, #136]	; 0x88
			}
			else {
			  /* Do Nothing */
			}
		} while (do_while_break != 0x05U);
 8002d28:	f8d7 3088 	ldr.w	r3, [r7, #136]	; 0x88
 8002d2c:	2b05      	cmp	r3, #5
 8002d2e:	f47f ae11 	bne.w	8002954 <UART001_lConfigureBaudRate+0xd4>

	if(fdr_step >= UART001_MAX_VALUE)
 8002d32:	f8d7 20b4 	ldr.w	r2, [r7, #180]	; 0xb4
 8002d36:	f240 33ff 	movw	r3, #1023	; 0x3ff
 8002d3a:	429a      	cmp	r2, r3
 8002d3c:	d903      	bls.n	8002d46 <UART001_lConfigureBaudRate+0x4c6>
	{
	   fdr_step = 1023U;
 8002d3e:	f240 33ff 	movw	r3, #1023	; 0x3ff
 8002d42:	f8c7 30b4 	str.w	r3, [r7, #180]	; 0xb4
	}

	*Step = fdr_step;
 8002d46:	687b      	ldr	r3, [r7, #4]
 8002d48:	f8d7 20b4 	ldr.w	r2, [r7, #180]	; 0xb4
 8002d4c:	601a      	str	r2, [r3, #0]

	*Pdiv = brg_pdiv - 1U;
 8002d4e:	f8d7 30b0 	ldr.w	r3, [r7, #176]	; 0xb0
 8002d52:	f103 32ff 	add.w	r2, r3, #4294967295
 8002d56:	68bb      	ldr	r3, [r7, #8]
 8002d58:	601a      	str	r2, [r3, #0]
}
 8002d5a:	f107 07b8 	add.w	r7, r7, #184	; 0xb8
 8002d5e:	46bd      	mov	sp, r7
 8002d60:	ecbd 8b02 	vpop	{d8}
 8002d64:	bd80      	pop	{r7, pc}
 8002d66:	bf00      	nop

08002d68 <UART001_Init>:
 *
 * <b>Reentrant: No </b><BR>
 *
 ******************************************************************************/
void UART001_Init(void)
{
 8002d68:	b580      	push	{r7, lr}
 8002d6a:	b082      	sub	sp, #8
 8002d6c:	af00      	add	r7, sp, #0
	  /* Reset the Peripheral*/
   #if defined(UART001_PER0_USIC0_ENABLED)
	  RESET001_DeassertReset(PER0_USIC0);
   #endif
   #if defined(UART001_PER1_USIC1_ENABLED)
	  RESET001_DeassertReset(PER1_USIC1); 
 8002d6e:	f04f 0080 	mov.w	r0, #128	; 0x80
 8002d72:	f2c1 0000 	movt	r0, #4096	; 0x1000
 8002d76:	f000 fa83 	bl	8003280 <RESET001_DeassertReset>
   #if defined(UART001_PER1_USIC2_ENABLED)
	  RESET001_DeassertReset(PER1_USIC2); 
   #endif 
   #endif  
	  
   for (LoopIndex = (uint32_t)0; LoopIndex < (uint32_t)UART001_NUM_HANDLES; \
 8002d7a:	f04f 0300 	mov.w	r3, #0
 8002d7e:	607b      	str	r3, [r7, #4]
 8002d80:	e021      	b.n	8002dc6 <UART001_Init+0x5e>
	                           LoopIndex++)
   {
	  if (UART001_HandleArray[LoopIndex]->Mode == UART_HALFDUPLEX)
 8002d82:	f240 0308 	movw	r3, #8
 8002d86:	f2c2 0300 	movt	r3, #8192	; 0x2000
 8002d8a:	687a      	ldr	r2, [r7, #4]
 8002d8c:	f853 3022 	ldr.w	r3, [r3, r2, lsl #2]
 8002d90:	7d1b      	ldrb	r3, [r3, #20]
 8002d92:	2b01      	cmp	r3, #1
 8002d94:	d109      	bne.n	8002daa <UART001_Init+0x42>
	  {
	   /*Configure TX Pin in Open-drain mode to allow the Wired-AND connection*/
		UART001_lConfigTXPin(UART001_HandleArray[LoopIndex]);
 8002d96:	f240 0308 	movw	r3, #8
 8002d9a:	f2c2 0300 	movt	r3, #8192	; 0x2000
 8002d9e:	687a      	ldr	r2, [r7, #4]
 8002da0:	f853 3022 	ldr.w	r3, [r3, r2, lsl #2]
 8002da4:	4618      	mov	r0, r3
 8002da6:	f7ff fcd1 	bl	800274c <UART001_lConfigTXPin>
	  }
	  
	  UART001_lInit(UART001_HandleArray[LoopIndex]);
 8002daa:	f240 0308 	movw	r3, #8
 8002dae:	f2c2 0300 	movt	r3, #8192	; 0x2000
 8002db2:	687a      	ldr	r2, [r7, #4]
 8002db4:	f853 3022 	ldr.w	r3, [r3, r2, lsl #2]
 8002db8:	4618      	mov	r0, r3
 8002dba:	f7ff fbf3 	bl	80025a4 <UART001_lInit>
	  RESET001_DeassertReset(PER1_USIC2); 
   #endif 
   #endif  
	  
   for (LoopIndex = (uint32_t)0; LoopIndex < (uint32_t)UART001_NUM_HANDLES; \
	                           LoopIndex++)
 8002dbe:	687b      	ldr	r3, [r7, #4]
 8002dc0:	f103 0301 	add.w	r3, r3, #1
 8002dc4:	607b      	str	r3, [r7, #4]
   #if defined(UART001_PER1_USIC2_ENABLED)
	  RESET001_DeassertReset(PER1_USIC2); 
   #endif 
   #endif  
	  
   for (LoopIndex = (uint32_t)0; LoopIndex < (uint32_t)UART001_NUM_HANDLES; \
 8002dc6:	687b      	ldr	r3, [r7, #4]
 8002dc8:	2b00      	cmp	r3, #0
 8002dca:	d0da      	beq.n	8002d82 <UART001_Init+0x1a>
	  }
	  
	  UART001_lInit(UART001_HandleArray[LoopIndex]);
   }
   
}
 8002dcc:	f107 0708 	add.w	r7, r7, #8
 8002dd0:	46bd      	mov	sp, r7
 8002dd2:	bd80      	pop	{r7, pc}

08002dd4 <UART001_DeInit>:
 *
 * <b>Reentrant: No </b><BR>
 *
 ******************************************************************************/
 void  UART001_DeInit (const UART001_HandleType* Handle)
{
 8002dd4:	b480      	push	{r7}
 8002dd6:	b083      	sub	sp, #12
 8002dd8:	af00      	add	r7, sp, #0
 8002dda:	6078      	str	r0, [r7, #4]
  /* <<<DD_UART001_API_2>>> */
  /* Place holder function */      
}
 8002ddc:	f107 070c 	add.w	r7, r7, #12
 8002de0:	46bd      	mov	sp, r7
 8002de2:	bc80      	pop	{r7}
 8002de4:	4770      	bx	lr
 8002de6:	bf00      	nop

08002de8 <UART001_Configure>:
  const UART001_HandleType* Handle,
  uint32_t BaudRate,
  UART_ParityType Parity,
  UART_StopBitType Stopbit
)
{
 8002de8:	b580      	push	{r7, lr}
 8002dea:	b08a      	sub	sp, #40	; 0x28
 8002dec:	af00      	add	r7, sp, #0
 8002dee:	60f8      	str	r0, [r7, #12]
 8002df0:	60b9      	str	r1, [r7, #8]
 8002df2:	71fa      	strb	r2, [r7, #7]
 8002df4:	71bb      	strb	r3, [r7, #6]
   uint32_t Brg_Pdiv = 0x00U;
 8002df6:	f04f 0300 	mov.w	r3, #0
 8002dfa:	617b      	str	r3, [r7, #20]
   uint32_t Fdr_Step = 0x00U;
 8002dfc:	f04f 0300 	mov.w	r3, #0
 8002e00:	613b      	str	r3, [r7, #16]
   uint32_t TXIDLE_status;
   uint32_t RXIDLE_status;
   USIC_CH_TypeDef* UartRegs = Handle->UartRegs;
 8002e02:	68fb      	ldr	r3, [r7, #12]
 8002e04:	681b      	ldr	r3, [r3, #0]
 8002e06:	623b      	str	r3, [r7, #32]
   status_t Status = (status_t)UART001_ERROR;
 8002e08:	f04f 0305 	mov.w	r3, #5
 8002e0c:	627b      	str	r3, [r7, #36]	; 0x24
   
   /* <<<DD_UART001_API_3>>>*/

   TXIDLE_status = (uint32_t)\
                 RD_REG(UartRegs->PSR_ASCMode,USIC_CH_PSR_ASCMode_TXIDLE_Msk, \
 8002e0e:	6a3b      	ldr	r3, [r7, #32]
 8002e10:	6c9b      	ldr	r3, [r3, #72]	; 0x48
   USIC_CH_TypeDef* UartRegs = Handle->UartRegs;
   status_t Status = (status_t)UART001_ERROR;
   
   /* <<<DD_UART001_API_3>>>*/

   TXIDLE_status = (uint32_t)\
 8002e12:	f003 0301 	and.w	r3, r3, #1
 8002e16:	61fb      	str	r3, [r7, #28]
                 RD_REG(UartRegs->PSR_ASCMode,USIC_CH_PSR_ASCMode_TXIDLE_Msk, \
	                       USIC_CH_PSR_ASCMode_TXIDLE_Pos);

   RXIDLE_status = (uint32_t)\
                 RD_REG(UartRegs->PSR_ASCMode,USIC_CH_PSR_ASCMode_RXIDLE_Msk, \
 8002e18:	6a3b      	ldr	r3, [r7, #32]
 8002e1a:	6c9b      	ldr	r3, [r3, #72]	; 0x48
 8002e1c:	f003 0302 	and.w	r3, r3, #2

   TXIDLE_status = (uint32_t)\
                 RD_REG(UartRegs->PSR_ASCMode,USIC_CH_PSR_ASCMode_TXIDLE_Msk, \
	                       USIC_CH_PSR_ASCMode_TXIDLE_Pos);

   RXIDLE_status = (uint32_t)\
 8002e20:	ea4f 0353 	mov.w	r3, r3, lsr #1
 8002e24:	61bb      	str	r3, [r7, #24]
                 RD_REG(UartRegs->PSR_ASCMode,USIC_CH_PSR_ASCMode_RXIDLE_Msk, \
	                       USIC_CH_PSR_ASCMode_RXIDLE_Pos);
   if(( TXIDLE_status & RXIDLE_status) == 0x01U)
 8002e26:	69fa      	ldr	r2, [r7, #28]
 8002e28:	69bb      	ldr	r3, [r7, #24]
 8002e2a:	4013      	ands	r3, r2
 8002e2c:	2b01      	cmp	r3, #1
 8002e2e:	d15b      	bne.n	8002ee8 <UART001_Configure+0x100>
    {
      /* Disable UART mode before configuring all USIC registers to avoid 
       * unintended edges */ 
      UartRegs->CCR &= ~( ((uint32_t)(UART_MODE  & USIC_CH_CCR_MODE_Msk)));  
 8002e30:	6a3b      	ldr	r3, [r7, #32]
 8002e32:	6c1b      	ldr	r3, [r3, #64]	; 0x40
 8002e34:	f023 0202 	bic.w	r2, r3, #2
 8002e38:	6a3b      	ldr	r3, [r7, #32]
 8002e3a:	641a      	str	r2, [r3, #64]	; 0x40
	  
      /* Configuration of USIC Channel Fractional Divider */
      UART001_lConfigureBaudRate(BaudRate,&Brg_Pdiv,&Fdr_Step);
 8002e3c:	f107 0214 	add.w	r2, r7, #20
 8002e40:	f107 0310 	add.w	r3, r7, #16
 8002e44:	68b8      	ldr	r0, [r7, #8]
 8002e46:	4611      	mov	r1, r2
 8002e48:	461a      	mov	r2, r3
 8002e4a:	f7ff fd19 	bl	8002880 <UART001_lConfigureBaudRate>

      /* Step value: 0x3FF */
      UartRegs->FDR &= ~(USIC_CH_FDR_STEP_Msk);
 8002e4e:	6a3b      	ldr	r3, [r7, #32]
 8002e50:	691b      	ldr	r3, [r3, #16]
 8002e52:	f423 737f 	bic.w	r3, r3, #1020	; 0x3fc
 8002e56:	f023 0303 	bic.w	r3, r3, #3
 8002e5a:	6a3a      	ldr	r2, [r7, #32]
 8002e5c:	6113      	str	r3, [r2, #16]
      UartRegs->FDR |= ( Fdr_Step & USIC_CH_FDR_STEP_Msk);
 8002e5e:	6a3b      	ldr	r3, [r7, #32]
 8002e60:	691a      	ldr	r2, [r3, #16]
 8002e62:	693b      	ldr	r3, [r7, #16]
 8002e64:	ea4f 5383 	mov.w	r3, r3, lsl #22
 8002e68:	ea4f 5393 	mov.w	r3, r3, lsr #22
 8002e6c:	431a      	orrs	r2, r3
 8002e6e:	6a3b      	ldr	r3, [r7, #32]
 8002e70:	611a      	str	r2, [r3, #16]
              
      /* The PreDivider for CTQ, PCTQ = 0  */
      /* The Denominator for CTQ, DCTQ = 16 */

      UartRegs->BRG &= ~(USIC_CH_BRG_PDIV_Msk);
 8002e72:	6a3b      	ldr	r3, [r7, #32]
 8002e74:	695b      	ldr	r3, [r3, #20]
 8002e76:	f023 737f 	bic.w	r3, r3, #66846720	; 0x3fc0000
 8002e7a:	f423 3340 	bic.w	r3, r3, #196608	; 0x30000
 8002e7e:	6a3a      	ldr	r2, [r7, #32]
 8002e80:	6153      	str	r3, [r2, #20]
      UartRegs->BRG |= ((((uint32_t)Brg_Pdiv  << USIC_CH_BRG_PDIV_Pos) \
 8002e82:	6a3b      	ldr	r3, [r7, #32]
 8002e84:	695a      	ldr	r2, [r3, #20]
 8002e86:	697b      	ldr	r3, [r7, #20]
 8002e88:	ea4f 4103 	mov.w	r1, r3, lsl #16
    		                                          &  USIC_CH_BRG_PDIV_Msk));
 8002e8c:	f04f 0300 	mov.w	r3, #0
 8002e90:	f2c0 33ff 	movt	r3, #1023	; 0x3ff
 8002e94:	400b      	ands	r3, r1
              
      /* The PreDivider for CTQ, PCTQ = 0  */
      /* The Denominator for CTQ, DCTQ = 16 */

      UartRegs->BRG &= ~(USIC_CH_BRG_PDIV_Msk);
      UartRegs->BRG |= ((((uint32_t)Brg_Pdiv  << USIC_CH_BRG_PDIV_Pos) \
 8002e96:	431a      	orrs	r2, r3
 8002e98:	6a3b      	ldr	r3, [r7, #32]
 8002e9a:	615a      	str	r2, [r3, #20]
    		                                          &  USIC_CH_BRG_PDIV_Msk));

      /* Configure StopBit */
      UartRegs->PCR_ASCMode &= ~(USIC_CH_PCR_ASCMode_STPB_Msk);
 8002e9c:	6a3b      	ldr	r3, [r7, #32]
 8002e9e:	6bdb      	ldr	r3, [r3, #60]	; 0x3c
 8002ea0:	f023 0202 	bic.w	r2, r3, #2
 8002ea4:	6a3b      	ldr	r3, [r7, #32]
 8002ea6:	63da      	str	r2, [r3, #60]	; 0x3c
      UartRegs->PCR_ASCMode |= \
 8002ea8:	6a3b      	ldr	r3, [r7, #32]
 8002eaa:	6bda      	ldr	r2, [r3, #60]	; 0x3c
                      (((uint32_t)Stopbit << USIC_CH_PCR_ASCMode_STPB_Pos) & \
 8002eac:	79bb      	ldrb	r3, [r7, #6]
 8002eae:	ea4f 0343 	mov.w	r3, r3, lsl #1
 8002eb2:	f003 0302 	and.w	r3, r3, #2
      UartRegs->BRG |= ((((uint32_t)Brg_Pdiv  << USIC_CH_BRG_PDIV_Pos) \
    		                                          &  USIC_CH_BRG_PDIV_Msk));

      /* Configure StopBit */
      UartRegs->PCR_ASCMode &= ~(USIC_CH_PCR_ASCMode_STPB_Msk);
      UartRegs->PCR_ASCMode |= \
 8002eb6:	431a      	orrs	r2, r3
 8002eb8:	6a3b      	ldr	r3, [r7, #32]
 8002eba:	63da      	str	r2, [r3, #60]	; 0x3c
                      (((uint32_t)Stopbit << USIC_CH_PCR_ASCMode_STPB_Pos) & \
                       USIC_CH_PCR_ASCMode_STPB_Msk);
          
      /* Configure Parity*/
      UartRegs->CCR &= ~(USIC_CH_CCR_PM_Msk);
 8002ebc:	6a3b      	ldr	r3, [r7, #32]
 8002ebe:	6c1b      	ldr	r3, [r3, #64]	; 0x40
 8002ec0:	f423 7240 	bic.w	r2, r3, #768	; 0x300
 8002ec4:	6a3b      	ldr	r3, [r7, #32]
 8002ec6:	641a      	str	r2, [r3, #64]	; 0x40
      UartRegs->CCR |= (((UART_MODE  & USIC_CH_CCR_MODE_Msk)) | \
 8002ec8:	6a3b      	ldr	r3, [r7, #32]
 8002eca:	6c1a      	ldr	r2, [r3, #64]	; 0x40
                        (((uint32_t)Parity  << USIC_CH_CCR_PM_Pos) & \
 8002ecc:	79fb      	ldrb	r3, [r7, #7]
 8002ece:	ea4f 2303 	mov.w	r3, r3, lsl #8
 8002ed2:	f403 7340 	and.w	r3, r3, #768	; 0x300
                      (((uint32_t)Stopbit << USIC_CH_PCR_ASCMode_STPB_Pos) & \
                       USIC_CH_PCR_ASCMode_STPB_Msk);
          
      /* Configure Parity*/
      UartRegs->CCR &= ~(USIC_CH_CCR_PM_Msk);
      UartRegs->CCR |= (((UART_MODE  & USIC_CH_CCR_MODE_Msk)) | \
 8002ed6:	4313      	orrs	r3, r2
 8002ed8:	f043 0202 	orr.w	r2, r3, #2
 8002edc:	6a3b      	ldr	r3, [r7, #32]
 8002ede:	641a      	str	r2, [r3, #64]	; 0x40
                        (((uint32_t)Parity  << USIC_CH_CCR_PM_Pos) & \
                                                       USIC_CH_CCR_PM_Msk));

      Status = (status_t)DAVEApp_SUCCESS;
 8002ee0:	f04f 0300 	mov.w	r3, #0
 8002ee4:	627b      	str	r3, [r7, #36]	; 0x24
 8002ee6:	e002      	b.n	8002eee <UART001_Configure+0x106>
    }
    else
    {
      Status = (status_t)UART001_BUSY;
 8002ee8:	f04f 0303 	mov.w	r3, #3
 8002eec:	627b      	str	r3, [r7, #36]	; 0x24
      DBG002_ERROR(APP_GID, DBG002_MESSAGEID_LITERAL, sizeof(Status), &Status);
    }
  
  return Status;
 8002eee:	6a7b      	ldr	r3, [r7, #36]	; 0x24
}
 8002ef0:	4618      	mov	r0, r3
 8002ef2:	f107 0728 	add.w	r7, r7, #40	; 0x28
 8002ef6:	46bd      	mov	sp, r7
 8002ef8:	bd80      	pop	{r7, pc}
 8002efa:	bf00      	nop

08002efc <UART001_ReadDataMultiple>:
(
  const UART001_HandleType* Handle,
  uint16_t* DataPtr,
  uint32_t Count
)
{ 
 8002efc:	b480      	push	{r7}
 8002efe:	b087      	sub	sp, #28
 8002f00:	af00      	add	r7, sp, #0
 8002f02:	60f8      	str	r0, [r7, #12]
 8002f04:	60b9      	str	r1, [r7, #8]
 8002f06:	607a      	str	r2, [r7, #4]
  uint32_t ReadCount = 0x00U;
 8002f08:	f04f 0300 	mov.w	r3, #0
 8002f0c:	617b      	str	r3, [r7, #20]
  USIC_CH_TypeDef* UartRegs = Handle->UartRegs;  
 8002f0e:	68fb      	ldr	r3, [r7, #12]
 8002f10:	681b      	ldr	r3, [r3, #0]
 8002f12:	613b      	str	r3, [r7, #16]
  /* <<<DD_UART001_API_4>>>*/
  /* If FIFO is enabled read data from receive FIFO buffer */
  if(Handle->RxFifoEn) 
 8002f14:	68fb      	ldr	r3, [r7, #12]
 8002f16:	7fdb      	ldrb	r3, [r3, #31]
 8002f18:	2b00      	cmp	r3, #0
 8002f1a:	d01f      	beq.n	8002f5c <UART001_ReadDataMultiple+0x60>
  {
	  while(! USIC_ubIsRxFIFOempty(UartRegs) && Count)
 8002f1c:	e011      	b.n	8002f42 <UART001_ReadDataMultiple+0x46>
	  {
		*DataPtr = (uint16_t)UartRegs->OUTR;
 8002f1e:	693b      	ldr	r3, [r7, #16]
 8002f20:	f8d3 311c 	ldr.w	r3, [r3, #284]	; 0x11c
 8002f24:	b29a      	uxth	r2, r3
 8002f26:	68bb      	ldr	r3, [r7, #8]
 8002f28:	801a      	strh	r2, [r3, #0]
		Count--;
 8002f2a:	687b      	ldr	r3, [r7, #4]
 8002f2c:	f103 33ff 	add.w	r3, r3, #4294967295
 8002f30:	607b      	str	r3, [r7, #4]
		ReadCount++;
 8002f32:	697b      	ldr	r3, [r7, #20]
 8002f34:	f103 0301 	add.w	r3, r3, #1
 8002f38:	617b      	str	r3, [r7, #20]
		DataPtr++;
 8002f3a:	68bb      	ldr	r3, [r7, #8]
 8002f3c:	f103 0302 	add.w	r3, r3, #2
 8002f40:	60bb      	str	r3, [r7, #8]
  USIC_CH_TypeDef* UartRegs = Handle->UartRegs;  
  /* <<<DD_UART001_API_4>>>*/
  /* If FIFO is enabled read data from receive FIFO buffer */
  if(Handle->RxFifoEn) 
  {
	  while(! USIC_ubIsRxFIFOempty(UartRegs) && Count)
 8002f42:	693b      	ldr	r3, [r7, #16]
 8002f44:	f8d3 3114 	ldr.w	r3, [r3, #276]	; 0x114
 8002f48:	f003 0308 	and.w	r3, r3, #8
 8002f4c:	ea4f 03d3 	mov.w	r3, r3, lsr #3
 8002f50:	2b00      	cmp	r3, #0
 8002f52:	d10c      	bne.n	8002f6e <UART001_ReadDataMultiple+0x72>
 8002f54:	687b      	ldr	r3, [r7, #4]
 8002f56:	2b00      	cmp	r3, #0
 8002f58:	d1e1      	bne.n	8002f1e <UART001_ReadDataMultiple+0x22>
 8002f5a:	e008      	b.n	8002f6e <UART001_ReadDataMultiple+0x72>
	  }
  }
  else
  {
	  /* If FIFO is disabled read data from standard receive buffer */
	  *DataPtr = (uint16_t)UartRegs->RBUF;
 8002f5c:	693b      	ldr	r3, [r7, #16]
 8002f5e:	6d5b      	ldr	r3, [r3, #84]	; 0x54
 8002f60:	b29a      	uxth	r2, r3
 8002f62:	68bb      	ldr	r3, [r7, #8]
 8002f64:	801a      	strh	r2, [r3, #0]
	  ReadCount++;
 8002f66:	697b      	ldr	r3, [r7, #20]
 8002f68:	f103 0301 	add.w	r3, r3, #1
 8002f6c:	617b      	str	r3, [r7, #20]
  }
  return ReadCount;
 8002f6e:	697b      	ldr	r3, [r7, #20]
}
 8002f70:	4618      	mov	r0, r3
 8002f72:	f107 071c 	add.w	r7, r7, #28
 8002f76:	46bd      	mov	sp, r7
 8002f78:	bc80      	pop	{r7}
 8002f7a:	4770      	bx	lr

08002f7c <UART001_ReadDataBytes>:
(
  const UART001_HandleType* Handle,
  uint8_t* DataPtr,
  uint32_t Count
)
{ 
 8002f7c:	b480      	push	{r7}
 8002f7e:	b087      	sub	sp, #28
 8002f80:	af00      	add	r7, sp, #0
 8002f82:	60f8      	str	r0, [r7, #12]
 8002f84:	60b9      	str	r1, [r7, #8]
 8002f86:	607a      	str	r2, [r7, #4]
  uint32_t ReadCount = 0x00U;
 8002f88:	f04f 0300 	mov.w	r3, #0
 8002f8c:	617b      	str	r3, [r7, #20]
  USIC_CH_TypeDef* UartRegs = Handle->UartRegs;  
 8002f8e:	68fb      	ldr	r3, [r7, #12]
 8002f90:	681b      	ldr	r3, [r3, #0]
 8002f92:	613b      	str	r3, [r7, #16]
  /* <<<DD_UART001_API_4>>>*/
  /* If FIFO is enabled read data from receive FIFO buffer */
  if(Handle->RxFifoEn) 
 8002f94:	68fb      	ldr	r3, [r7, #12]
 8002f96:	7fdb      	ldrb	r3, [r3, #31]
 8002f98:	2b00      	cmp	r3, #0
 8002f9a:	d01f      	beq.n	8002fdc <UART001_ReadDataBytes+0x60>
  {
	  while(! USIC_ubIsRxFIFOempty(UartRegs) && Count)
 8002f9c:	e011      	b.n	8002fc2 <UART001_ReadDataBytes+0x46>
	  {
		*DataPtr = (uint8_t)UartRegs->OUTR;
 8002f9e:	693b      	ldr	r3, [r7, #16]
 8002fa0:	f8d3 311c 	ldr.w	r3, [r3, #284]	; 0x11c
 8002fa4:	b2da      	uxtb	r2, r3
 8002fa6:	68bb      	ldr	r3, [r7, #8]
 8002fa8:	701a      	strb	r2, [r3, #0]
		Count--;
 8002faa:	687b      	ldr	r3, [r7, #4]
 8002fac:	f103 33ff 	add.w	r3, r3, #4294967295
 8002fb0:	607b      	str	r3, [r7, #4]
		ReadCount++;
 8002fb2:	697b      	ldr	r3, [r7, #20]
 8002fb4:	f103 0301 	add.w	r3, r3, #1
 8002fb8:	617b      	str	r3, [r7, #20]
		DataPtr++;
 8002fba:	68bb      	ldr	r3, [r7, #8]
 8002fbc:	f103 0301 	add.w	r3, r3, #1
 8002fc0:	60bb      	str	r3, [r7, #8]
  USIC_CH_TypeDef* UartRegs = Handle->UartRegs;  
  /* <<<DD_UART001_API_4>>>*/
  /* If FIFO is enabled read data from receive FIFO buffer */
  if(Handle->RxFifoEn) 
  {
	  while(! USIC_ubIsRxFIFOempty(UartRegs) && Count)
 8002fc2:	693b      	ldr	r3, [r7, #16]
 8002fc4:	f8d3 3114 	ldr.w	r3, [r3, #276]	; 0x114
 8002fc8:	f003 0308 	and.w	r3, r3, #8
 8002fcc:	ea4f 03d3 	mov.w	r3, r3, lsr #3
 8002fd0:	2b00      	cmp	r3, #0
 8002fd2:	d10c      	bne.n	8002fee <UART001_ReadDataBytes+0x72>
 8002fd4:	687b      	ldr	r3, [r7, #4]
 8002fd6:	2b00      	cmp	r3, #0
 8002fd8:	d1e1      	bne.n	8002f9e <UART001_ReadDataBytes+0x22>
 8002fda:	e008      	b.n	8002fee <UART001_ReadDataBytes+0x72>
	  }
  }
  else
  {
	  /* If FIFO is disabled read data from standard receive buffer */
	  *DataPtr = (uint8_t)UartRegs->RBUF;
 8002fdc:	693b      	ldr	r3, [r7, #16]
 8002fde:	6d5b      	ldr	r3, [r3, #84]	; 0x54
 8002fe0:	b2da      	uxtb	r2, r3
 8002fe2:	68bb      	ldr	r3, [r7, #8]
 8002fe4:	701a      	strb	r2, [r3, #0]
	  ReadCount++;
 8002fe6:	697b      	ldr	r3, [r7, #20]
 8002fe8:	f103 0301 	add.w	r3, r3, #1
 8002fec:	617b      	str	r3, [r7, #20]
  }  
  return ReadCount;
 8002fee:	697b      	ldr	r3, [r7, #20]
}
 8002ff0:	4618      	mov	r0, r3
 8002ff2:	f107 071c 	add.w	r7, r7, #28
 8002ff6:	46bd      	mov	sp, r7
 8002ff8:	bc80      	pop	{r7}
 8002ffa:	4770      	bx	lr

08002ffc <UART001_WriteDataMultiple>:
(
  const UART001_HandleType* Handle,
  uint16_t* DataPtr,
  uint32_t Count
)
{
 8002ffc:	b480      	push	{r7}
 8002ffe:	b087      	sub	sp, #28
 8003000:	af00      	add	r7, sp, #0
 8003002:	60f8      	str	r0, [r7, #12]
 8003004:	60b9      	str	r1, [r7, #8]
 8003006:	607a      	str	r2, [r7, #4]
  uint32_t WriteCount = 0x00U;
 8003008:	f04f 0300 	mov.w	r3, #0
 800300c:	617b      	str	r3, [r7, #20]
  USIC_CH_TypeDef* UartRegs = Handle->UartRegs; 
 800300e:	68fb      	ldr	r3, [r7, #12]
 8003010:	681b      	ldr	r3, [r3, #0]
 8003012:	613b      	str	r3, [r7, #16]
  /* <<<DD_UART001_API_5>>>*/
  /* If FIFO is enabled write data to the transmit FIFO buffer */
  if(Handle->TxFifoEn) 
 8003014:	68fb      	ldr	r3, [r7, #12]
 8003016:	7f9b      	ldrb	r3, [r3, #30]
 8003018:	2b00      	cmp	r3, #0
 800301a:	d01f      	beq.n	800305c <UART001_WriteDataMultiple+0x60>
  {
	  while(! USIC_IsTxFIFOfull(UartRegs)&& Count)
 800301c:	e011      	b.n	8003042 <UART001_WriteDataMultiple+0x46>
	  {
		UartRegs->IN[0] = *DataPtr;
 800301e:	68bb      	ldr	r3, [r7, #8]
 8003020:	881b      	ldrh	r3, [r3, #0]
 8003022:	461a      	mov	r2, r3
 8003024:	693b      	ldr	r3, [r7, #16]
 8003026:	f8c3 2180 	str.w	r2, [r3, #384]	; 0x180
		Count--;
 800302a:	687b      	ldr	r3, [r7, #4]
 800302c:	f103 33ff 	add.w	r3, r3, #4294967295
 8003030:	607b      	str	r3, [r7, #4]
		WriteCount++;
 8003032:	697b      	ldr	r3, [r7, #20]
 8003034:	f103 0301 	add.w	r3, r3, #1
 8003038:	617b      	str	r3, [r7, #20]
		DataPtr++;
 800303a:	68bb      	ldr	r3, [r7, #8]
 800303c:	f103 0302 	add.w	r3, r3, #2
 8003040:	60bb      	str	r3, [r7, #8]
  USIC_CH_TypeDef* UartRegs = Handle->UartRegs; 
  /* <<<DD_UART001_API_5>>>*/
  /* If FIFO is enabled write data to the transmit FIFO buffer */
  if(Handle->TxFifoEn) 
  {
	  while(! USIC_IsTxFIFOfull(UartRegs)&& Count)
 8003042:	693b      	ldr	r3, [r7, #16]
 8003044:	f8d3 3114 	ldr.w	r3, [r3, #276]	; 0x114
 8003048:	f403 5380 	and.w	r3, r3, #4096	; 0x1000
 800304c:	ea4f 3313 	mov.w	r3, r3, lsr #12
 8003050:	2b00      	cmp	r3, #0
 8003052:	d113      	bne.n	800307c <UART001_WriteDataMultiple+0x80>
 8003054:	687b      	ldr	r3, [r7, #4]
 8003056:	2b00      	cmp	r3, #0
 8003058:	d1e1      	bne.n	800301e <UART001_WriteDataMultiple+0x22>
 800305a:	e00f      	b.n	800307c <UART001_WriteDataMultiple+0x80>
	  }
  }
  else
  {	  
	  /* If FIFO is disabled write data to the standard transmit buffer */
	  if (!(USIC_CH_TCSR_TDV_Msk & UartRegs->TCSR))
 800305c:	693b      	ldr	r3, [r7, #16]
 800305e:	6b9b      	ldr	r3, [r3, #56]	; 0x38
 8003060:	f003 0380 	and.w	r3, r3, #128	; 0x80
 8003064:	2b00      	cmp	r3, #0
 8003066:	d109      	bne.n	800307c <UART001_WriteDataMultiple+0x80>
	  {
		UartRegs->TBUF[0] = *DataPtr;	
 8003068:	68bb      	ldr	r3, [r7, #8]
 800306a:	881b      	ldrh	r3, [r3, #0]
 800306c:	461a      	mov	r2, r3
 800306e:	693b      	ldr	r3, [r7, #16]
 8003070:	f8c3 2080 	str.w	r2, [r3, #128]	; 0x80
		WriteCount++; 
 8003074:	697b      	ldr	r3, [r7, #20]
 8003076:	f103 0301 	add.w	r3, r3, #1
 800307a:	617b      	str	r3, [r7, #20]
	  }
  }
  return WriteCount;
 800307c:	697b      	ldr	r3, [r7, #20]
}
 800307e:	4618      	mov	r0, r3
 8003080:	f107 071c 	add.w	r7, r7, #28
 8003084:	46bd      	mov	sp, r7
 8003086:	bc80      	pop	{r7}
 8003088:	4770      	bx	lr
 800308a:	bf00      	nop

0800308c <UART001_WriteDataBytes>:
(
  const UART001_HandleType* Handle,
  const uint8_t* DataPtr,
  uint32_t Count
)
{
 800308c:	b480      	push	{r7}
 800308e:	b087      	sub	sp, #28
 8003090:	af00      	add	r7, sp, #0
 8003092:	60f8      	str	r0, [r7, #12]
 8003094:	60b9      	str	r1, [r7, #8]
 8003096:	607a      	str	r2, [r7, #4]
  uint32_t WriteCount = 0x00U;
 8003098:	f04f 0300 	mov.w	r3, #0
 800309c:	617b      	str	r3, [r7, #20]
  USIC_CH_TypeDef* UartRegs = Handle->UartRegs; 
 800309e:	68fb      	ldr	r3, [r7, #12]
 80030a0:	681b      	ldr	r3, [r3, #0]
 80030a2:	613b      	str	r3, [r7, #16]
  /* <<<DD_UART001_API_6>>> */
  
  /* If FIFO is enabled write data to the transmit FIFO buffer */  
  if(Handle->TxFifoEn) 
 80030a4:	68fb      	ldr	r3, [r7, #12]
 80030a6:	7f9b      	ldrb	r3, [r3, #30]
 80030a8:	2b00      	cmp	r3, #0
 80030aa:	d01f      	beq.n	80030ec <UART001_WriteDataBytes+0x60>
  {
	  while(! USIC_IsTxFIFOfull(UartRegs)&& Count)
 80030ac:	e011      	b.n	80030d2 <UART001_WriteDataBytes+0x46>
	  {
		UartRegs->IN[0] = *DataPtr;
 80030ae:	68bb      	ldr	r3, [r7, #8]
 80030b0:	781b      	ldrb	r3, [r3, #0]
 80030b2:	461a      	mov	r2, r3
 80030b4:	693b      	ldr	r3, [r7, #16]
 80030b6:	f8c3 2180 	str.w	r2, [r3, #384]	; 0x180
		Count--;
 80030ba:	687b      	ldr	r3, [r7, #4]
 80030bc:	f103 33ff 	add.w	r3, r3, #4294967295
 80030c0:	607b      	str	r3, [r7, #4]
		WriteCount++;
 80030c2:	697b      	ldr	r3, [r7, #20]
 80030c4:	f103 0301 	add.w	r3, r3, #1
 80030c8:	617b      	str	r3, [r7, #20]
		DataPtr++;
 80030ca:	68bb      	ldr	r3, [r7, #8]
 80030cc:	f103 0301 	add.w	r3, r3, #1
 80030d0:	60bb      	str	r3, [r7, #8]
  /* <<<DD_UART001_API_6>>> */
  
  /* If FIFO is enabled write data to the transmit FIFO buffer */  
  if(Handle->TxFifoEn) 
  {
	  while(! USIC_IsTxFIFOfull(UartRegs)&& Count)
 80030d2:	693b      	ldr	r3, [r7, #16]
 80030d4:	f8d3 3114 	ldr.w	r3, [r3, #276]	; 0x114
 80030d8:	f403 5380 	and.w	r3, r3, #4096	; 0x1000
 80030dc:	ea4f 3313 	mov.w	r3, r3, lsr #12
 80030e0:	2b00      	cmp	r3, #0
 80030e2:	d113      	bne.n	800310c <UART001_WriteDataBytes+0x80>
 80030e4:	687b      	ldr	r3, [r7, #4]
 80030e6:	2b00      	cmp	r3, #0
 80030e8:	d1e1      	bne.n	80030ae <UART001_WriteDataBytes+0x22>
 80030ea:	e00f      	b.n	800310c <UART001_WriteDataBytes+0x80>
	  }
  }
  else
  {	  
	  /* If FIFO is disabled write data to the standard transmit buffer */  
	  if (!(USIC_CH_TCSR_TDV_Msk & UartRegs->TCSR))
 80030ec:	693b      	ldr	r3, [r7, #16]
 80030ee:	6b9b      	ldr	r3, [r3, #56]	; 0x38
 80030f0:	f003 0380 	and.w	r3, r3, #128	; 0x80
 80030f4:	2b00      	cmp	r3, #0
 80030f6:	d109      	bne.n	800310c <UART001_WriteDataBytes+0x80>
	  {
		UartRegs->TBUF[0] = *DataPtr;	
 80030f8:	68bb      	ldr	r3, [r7, #8]
 80030fa:	781b      	ldrb	r3, [r3, #0]
 80030fc:	461a      	mov	r2, r3
 80030fe:	693b      	ldr	r3, [r7, #16]
 8003100:	f8c3 2080 	str.w	r2, [r3, #128]	; 0x80
		WriteCount++; 
 8003104:	697b      	ldr	r3, [r7, #20]
 8003106:	f103 0301 	add.w	r3, r3, #1
 800310a:	617b      	str	r3, [r7, #20]
	  }
  }
  return WriteCount;
 800310c:	697b      	ldr	r3, [r7, #20]
}
 800310e:	4618      	mov	r0, r3
 8003110:	f107 071c 	add.w	r7, r7, #28
 8003114:	46bd      	mov	sp, r7
 8003116:	bc80      	pop	{r7}
 8003118:	4770      	bx	lr
 800311a:	bf00      	nop

0800311c <UART001_GetFlagStatus>:
status_t UART001_GetFlagStatus 
(
  const UART001_HandleType* Handle,
  UART001_FlagStatusType Flag
)
{
 800311c:	b480      	push	{r7}
 800311e:	b087      	sub	sp, #28
 8003120:	af00      	add	r7, sp, #0
 8003122:	6078      	str	r0, [r7, #4]
 8003124:	460b      	mov	r3, r1
 8003126:	70fb      	strb	r3, [r7, #3]
  status_t Status = (status_t)UART001_RESET;
 8003128:	f04f 0301 	mov.w	r3, #1
 800312c:	617b      	str	r3, [r7, #20]
  uint32_t TempValue = 0x00U;
 800312e:	f04f 0300 	mov.w	r3, #0
 8003132:	613b      	str	r3, [r7, #16]
  USIC_CH_TypeDef* UartRegs = Handle->UartRegs;
 8003134:	687b      	ldr	r3, [r7, #4]
 8003136:	681b      	ldr	r3, [r3, #0]
 8003138:	60fb      	str	r3, [r7, #12]
  
  /* <<<DD_UART001_API_7>>>*/
  if(Flag <= UART001_ALT_REC_IND_FLAG)
 800313a:	78fb      	ldrb	r3, [r7, #3]
 800313c:	2b0f      	cmp	r3, #15
 800313e:	d80b      	bhi.n	8003158 <UART001_GetFlagStatus+0x3c>
  {
    TempValue = UartRegs->PSR_ASCMode;
 8003140:	68fb      	ldr	r3, [r7, #12]
 8003142:	6c9b      	ldr	r3, [r3, #72]	; 0x48
 8003144:	613b      	str	r3, [r7, #16]
    TempValue  &= ((uint32_t)SHIFT_ONE << (uint32_t)Flag);    
 8003146:	78fb      	ldrb	r3, [r7, #3]
 8003148:	f04f 0201 	mov.w	r2, #1
 800314c:	fa02 f303 	lsl.w	r3, r2, r3
 8003150:	693a      	ldr	r2, [r7, #16]
 8003152:	4013      	ands	r3, r2
 8003154:	613b      	str	r3, [r7, #16]
 8003156:	e01f      	b.n	8003198 <UART001_GetFlagStatus+0x7c>
  }
  else if(Flag <= UART001_FIFO_ALTRECV_BUF_FLAG)
 8003158:	78fb      	ldrb	r3, [r7, #3]
 800315a:	2b12      	cmp	r3, #18
 800315c:	d80e      	bhi.n	800317c <UART001_GetFlagStatus+0x60>
  {
    TempValue = UartRegs->TRBSR;
 800315e:	68fb      	ldr	r3, [r7, #12]
 8003160:	f8d3 3114 	ldr.w	r3, [r3, #276]	; 0x114
 8003164:	613b      	str	r3, [r7, #16]
    TempValue  &= ((uint32_t)SHIFT_ONE << \
                  ((uint32_t)Flag - (uint32_t)UART001_FIFO_STD_RECV_BUF_FLAG));
 8003166:	78fb      	ldrb	r3, [r7, #3]
 8003168:	f1a3 0310 	sub.w	r3, r3, #16
    TempValue  &= ((uint32_t)SHIFT_ONE << (uint32_t)Flag);    
  }
  else if(Flag <= UART001_FIFO_ALTRECV_BUF_FLAG)
  {
    TempValue = UartRegs->TRBSR;
    TempValue  &= ((uint32_t)SHIFT_ONE << \
 800316c:	f04f 0201 	mov.w	r2, #1
 8003170:	fa02 f303 	lsl.w	r3, r2, r3
 8003174:	693a      	ldr	r2, [r7, #16]
 8003176:	4013      	ands	r3, r2
 8003178:	613b      	str	r3, [r7, #16]
 800317a:	e00d      	b.n	8003198 <UART001_GetFlagStatus+0x7c>
                  ((uint32_t)Flag - (uint32_t)UART001_FIFO_STD_RECV_BUF_FLAG));
    
  }
  else
  {
    TempValue = UartRegs->TRBSR;
 800317c:	68fb      	ldr	r3, [r7, #12]
 800317e:	f8d3 3114 	ldr.w	r3, [r3, #276]	; 0x114
 8003182:	613b      	str	r3, [r7, #16]
    TempValue  &= ((uint32_t)SHIFT_ONE << \
       (((uint32_t)Flag - (uint32_t)UART001_FIFO_STD_RECV_BUF_FLAG) + 0x05U ));
 8003184:	78fb      	ldrb	r3, [r7, #3]
 8003186:	f1a3 030b 	sub.w	r3, r3, #11
    
  }
  else
  {
    TempValue = UartRegs->TRBSR;
    TempValue  &= ((uint32_t)SHIFT_ONE << \
 800318a:	f04f 0201 	mov.w	r2, #1
 800318e:	fa02 f303 	lsl.w	r3, r2, r3
 8003192:	693a      	ldr	r2, [r7, #16]
 8003194:	4013      	ands	r3, r2
 8003196:	613b      	str	r3, [r7, #16]
       (((uint32_t)Flag - (uint32_t)UART001_FIFO_STD_RECV_BUF_FLAG) + 0x05U ));
  } 

  if(TempValue)
 8003198:	693b      	ldr	r3, [r7, #16]
 800319a:	2b00      	cmp	r3, #0
 800319c:	d002      	beq.n	80031a4 <UART001_GetFlagStatus+0x88>
  {
    Status = (status_t)UART001_SET;
 800319e:	f04f 0302 	mov.w	r3, #2
 80031a2:	617b      	str	r3, [r7, #20]
  }
  return Status;
 80031a4:	697b      	ldr	r3, [r7, #20]
}
 80031a6:	4618      	mov	r0, r3
 80031a8:	f107 071c 	add.w	r7, r7, #28
 80031ac:	46bd      	mov	sp, r7
 80031ae:	bc80      	pop	{r7}
 80031b0:	4770      	bx	lr
 80031b2:	bf00      	nop

080031b4 <UART001_ClearFlag>:
void UART001_ClearFlag
(
  const UART001_HandleType* Handle,
  UART001_FlagStatusType Flag
)
{
 80031b4:	b480      	push	{r7}
 80031b6:	b085      	sub	sp, #20
 80031b8:	af00      	add	r7, sp, #0
 80031ba:	6078      	str	r0, [r7, #4]
 80031bc:	460b      	mov	r3, r1
 80031be:	70fb      	strb	r3, [r7, #3]

  USIC_CH_TypeDef* UartRegs = Handle->UartRegs;
 80031c0:	687b      	ldr	r3, [r7, #4]
 80031c2:	681b      	ldr	r3, [r3, #0]
 80031c4:	60fb      	str	r3, [r7, #12]
  
  /* <<<DD_UART001_API_8>>>*/
  if(Flag <= UART001_ALT_REC_IND_FLAG)
 80031c6:	78fb      	ldrb	r3, [r7, #3]
 80031c8:	2b0f      	cmp	r3, #15
 80031ca:	d80a      	bhi.n	80031e2 <UART001_ClearFlag+0x2e>
  {
    UartRegs->PSCR  |= ((uint32_t)SHIFT_ONE << (uint32_t)Flag);    
 80031cc:	68fb      	ldr	r3, [r7, #12]
 80031ce:	6cda      	ldr	r2, [r3, #76]	; 0x4c
 80031d0:	78fb      	ldrb	r3, [r7, #3]
 80031d2:	f04f 0101 	mov.w	r1, #1
 80031d6:	fa01 f303 	lsl.w	r3, r1, r3
 80031da:	431a      	orrs	r2, r3
 80031dc:	68fb      	ldr	r3, [r7, #12]
 80031de:	64da      	str	r2, [r3, #76]	; 0x4c
 80031e0:	e01f      	b.n	8003222 <UART001_ClearFlag+0x6e>
  }
  else if(Flag <= UART001_FIFO_ALTRECV_BUF_FLAG)
 80031e2:	78fb      	ldrb	r3, [r7, #3]
 80031e4:	2b12      	cmp	r3, #18
 80031e6:	d80e      	bhi.n	8003206 <UART001_ClearFlag+0x52>
  {
    UartRegs->TRBSCR  |= ((uint32_t)SHIFT_ONE << \
 80031e8:	68fb      	ldr	r3, [r7, #12]
 80031ea:	f8d3 2118 	ldr.w	r2, [r3, #280]	; 0x118
                 ((uint32_t)Flag - (uint32_t)UART001_FIFO_STD_RECV_BUF_FLAG)); 
 80031ee:	78fb      	ldrb	r3, [r7, #3]
 80031f0:	f1a3 0310 	sub.w	r3, r3, #16
  {
    UartRegs->PSCR  |= ((uint32_t)SHIFT_ONE << (uint32_t)Flag);    
  }
  else if(Flag <= UART001_FIFO_ALTRECV_BUF_FLAG)
  {
    UartRegs->TRBSCR  |= ((uint32_t)SHIFT_ONE << \
 80031f4:	f04f 0101 	mov.w	r1, #1
 80031f8:	fa01 f303 	lsl.w	r3, r1, r3
 80031fc:	431a      	orrs	r2, r3
 80031fe:	68fb      	ldr	r3, [r7, #12]
 8003200:	f8c3 2118 	str.w	r2, [r3, #280]	; 0x118
 8003204:	e00d      	b.n	8003222 <UART001_ClearFlag+0x6e>
                 ((uint32_t)Flag - (uint32_t)UART001_FIFO_STD_RECV_BUF_FLAG)); 
  }
  else
  {
    UartRegs->TRBSCR  |= ((uint32_t)SHIFT_ONE << \
 8003206:	68fb      	ldr	r3, [r7, #12]
 8003208:	f8d3 2118 	ldr.w	r2, [r3, #280]	; 0x118
               (((uint32_t)Flag - (uint32_t)UART001_FIFO_STD_RECV_BUF_FLAG) + \
 800320c:	78fb      	ldrb	r3, [r7, #3]
 800320e:	f1a3 030b 	sub.w	r3, r3, #11
    UartRegs->TRBSCR  |= ((uint32_t)SHIFT_ONE << \
                 ((uint32_t)Flag - (uint32_t)UART001_FIFO_STD_RECV_BUF_FLAG)); 
  }
  else
  {
    UartRegs->TRBSCR  |= ((uint32_t)SHIFT_ONE << \
 8003212:	f04f 0101 	mov.w	r1, #1
 8003216:	fa01 f303 	lsl.w	r3, r1, r3
 800321a:	431a      	orrs	r2, r3
 800321c:	68fb      	ldr	r3, [r7, #12]
 800321e:	f8c3 2118 	str.w	r2, [r3, #280]	; 0x118
               (((uint32_t)Flag - (uint32_t)UART001_FIFO_STD_RECV_BUF_FLAG) + \
                                                       UART001_FLAG_OFFSET ));
  }  
  
}
 8003222:	f107 0714 	add.w	r7, r7, #20
 8003226:	46bd      	mov	sp, r7
 8003228:	bc80      	pop	{r7}
 800322a:	4770      	bx	lr

0800322c <RESET001_AssertReset>:
**                                                                            **
** Description     : This function is to enable reset of peripheral by        **
**                   software                                                 **
*******************************************************************************/
 void RESET001_AssertReset(RESET001_ResetnType Resetn)
 {
 800322c:	b480      	push	{r7}
 800322e:	b087      	sub	sp, #28
 8003230:	af00      	add	r7, sp, #0
 8003232:	6078      	str	r0, [r7, #4]
  uint32_t* RCUControlReg;
  uint32_t  PeripheralInfo;
  PeripheralInfo = 0U;
 8003234:	f04f 0300 	mov.w	r3, #0
 8003238:	617b      	str	r3, [r7, #20]
  RCUControlReg = 0U;
 800323a:	f04f 0300 	mov.w	r3, #0
 800323e:	613b      	str	r3, [r7, #16]
  
  /* <<<DD_RESET001_API_1>>> */
  
  SCU_RESET_TypeDef* RCUCtrlReg = SCU_RESET;
 8003240:	f44f 4388 	mov.w	r3, #17408	; 0x4400
 8003244:	f2c5 0300 	movt	r3, #20480	; 0x5000
 8003248:	60fb      	str	r3, [r7, #12]
  
  /* Extract the MSB to identify the peripheral in which the module is residing.
  * Shift the MSB to LSB position and store it in a local variable Temp  */  
  PeripheralInfo = (((uint32_t)Resetn & RESET001_CLEAR_BITMASK ) >> 
 800324a:	687b      	ldr	r3, [r7, #4]
 800324c:	ea4f 7313 	mov.w	r3, r3, lsr #28
 8003250:	617b      	str	r3, [r7, #20]
  
  /* Multiply the peripheral info stored in Temp variable with the corresponding
  *  address shift value to get the offset address of RCU register.
  *  Add the offset address with base PRSET peripheral address to get the actual 
  *  RCU PRSET register address  */  
  RCUControlReg = (uint32_t*)((uint32_t)(&RCUCtrlReg->PRSET0) + 
 8003252:	68fb      	ldr	r3, [r7, #12]
 8003254:	f103 0310 	add.w	r3, r3, #16
 8003258:	4619      	mov	r1, r3
		                   ( RESET001_PERIPHERAL_ADDR_SHIFT * PeripheralInfo));
 800325a:	697a      	ldr	r2, [r7, #20]
 800325c:	4613      	mov	r3, r2
 800325e:	ea4f 0343 	mov.w	r3, r3, lsl #1
 8003262:	189b      	adds	r3, r3, r2
 8003264:	ea4f 0383 	mov.w	r3, r3, lsl #2
  
  /* Multiply the peripheral info stored in Temp variable with the corresponding
  *  address shift value to get the offset address of RCU register.
  *  Add the offset address with base PRSET peripheral address to get the actual 
  *  RCU PRSET register address  */  
  RCUControlReg = (uint32_t*)((uint32_t)(&RCUCtrlReg->PRSET0) + 
 8003268:	18cb      	adds	r3, r1, r3
 800326a:	613b      	str	r3, [r7, #16]
		                   ( RESET001_PERIPHERAL_ADDR_SHIFT * PeripheralInfo));
  
  /* Load the PRSET register with the reset value after ignoring the Most 
   * Significant Nibble.    */  
  *RCUControlReg = ((uint32_t)Resetn & RESET001_BITMASK );
 800326c:	687b      	ldr	r3, [r7, #4]
 800326e:	f023 4270 	bic.w	r2, r3, #4026531840	; 0xf0000000
 8003272:	693b      	ldr	r3, [r7, #16]
 8003274:	601a      	str	r2, [r3, #0]
}
 8003276:	f107 071c 	add.w	r7, r7, #28
 800327a:	46bd      	mov	sp, r7
 800327c:	bc80      	pop	{r7}
 800327e:	4770      	bx	lr

08003280 <RESET001_DeassertReset>:
**                                                                            **
** Description     : This function is to Deassert the reset of peripheral     **
**                    by software                                             **
*******************************************************************************/
void RESET001_DeassertReset(RESET001_ResetnType Resetn)
{
 8003280:	b480      	push	{r7}
 8003282:	b087      	sub	sp, #28
 8003284:	af00      	add	r7, sp, #0
 8003286:	6078      	str	r0, [r7, #4]
  uint32_t* RCUControlReg;
  uint32_t  PeripheralInfo;
  PeripheralInfo   = 0U;
 8003288:	f04f 0300 	mov.w	r3, #0
 800328c:	617b      	str	r3, [r7, #20]
  RCUControlReg    = 0U;
 800328e:	f04f 0300 	mov.w	r3, #0
 8003292:	613b      	str	r3, [r7, #16]

  /* <<<DD_RESET001_API_2>>> */
  
  SCU_RESET_TypeDef* RCUCtrlReg = SCU_RESET;  
 8003294:	f44f 4388 	mov.w	r3, #17408	; 0x4400
 8003298:	f2c5 0300 	movt	r3, #20480	; 0x5000
 800329c:	60fb      	str	r3, [r7, #12]
  /* Extract the MSB to identify the peripheral in which the module is residing.
   * Shift the MSB to LSB position and store it in a local variable Temp   */    
  PeripheralInfo = (((uint32_t)Resetn & RESET001_CLEAR_BITMASK) >> 
 800329e:	687b      	ldr	r3, [r7, #4]
 80032a0:	ea4f 7313 	mov.w	r3, r3, lsr #28
 80032a4:	617b      	str	r3, [r7, #20]
  
  /* Multiply the peripheral info stored in Temp variable with the corresponding
  * address shift value to get the offset address of RCU register.
  *  Add the offset address with base PRCLR peripheral address to get the actual 
  *  RCU PRCLR register address  */  
  RCUControlReg = (uint32_t*)((uint32_t)(&RCUCtrlReg->PRCLR0) + 
 80032a6:	68fb      	ldr	r3, [r7, #12]
 80032a8:	f103 0314 	add.w	r3, r3, #20
 80032ac:	4619      	mov	r1, r3
		                    ( RESET001_PERIPHERAL_ADDR_SHIFT * PeripheralInfo));
 80032ae:	697a      	ldr	r2, [r7, #20]
 80032b0:	4613      	mov	r3, r2
 80032b2:	ea4f 0343 	mov.w	r3, r3, lsl #1
 80032b6:	189b      	adds	r3, r3, r2
 80032b8:	ea4f 0383 	mov.w	r3, r3, lsl #2
  
  /* Multiply the peripheral info stored in Temp variable with the corresponding
  * address shift value to get the offset address of RCU register.
  *  Add the offset address with base PRCLR peripheral address to get the actual 
  *  RCU PRCLR register address  */  
  RCUControlReg = (uint32_t*)((uint32_t)(&RCUCtrlReg->PRCLR0) + 
 80032bc:	18cb      	adds	r3, r1, r3
 80032be:	613b      	str	r3, [r7, #16]
		                    ( RESET001_PERIPHERAL_ADDR_SHIFT * PeripheralInfo));
  
  /* Load the PRCLR register with the reset value after ignoring the Most 
   * Significant Nibble.    */   
  *RCUControlReg = ((uint32_t)Resetn & RESET001_BITMASK) ;
 80032c0:	687b      	ldr	r3, [r7, #4]
 80032c2:	f023 4270 	bic.w	r2, r3, #4026531840	; 0xf0000000
 80032c6:	693b      	ldr	r3, [r7, #16]
 80032c8:	601a      	str	r2, [r3, #0]
}
 80032ca:	f107 071c 	add.w	r7, r7, #28
 80032ce:	46bd      	mov	sp, r7
 80032d0:	bc80      	pop	{r7}
 80032d2:	4770      	bx	lr

080032d4 <RESET001_GetResetInfo>:
** Return value    : None                                                     **
**                                                                            **
** Description     : This API is to get the  reason of last reset             **
*******************************************************************************/	
RESET001_InfoType RESET001_GetResetInfo(void)
{
 80032d4:	b480      	push	{r7}
 80032d6:	b083      	sub	sp, #12
 80032d8:	af00      	add	r7, sp, #0
  SCU_RESET_TypeDef* RCUCtrlReg;  
  RESET001_InfoType ResetInfo;
  
  RCUCtrlReg = SCU_RESET;
 80032da:	f44f 4388 	mov.w	r3, #17408	; 0x4400
 80032de:	f2c5 0300 	movt	r3, #20480	; 0x5000
 80032e2:	607b      	str	r3, [r7, #4]
  ResetInfo  = (RESET001_InfoType)0x00000000;
 80032e4:	f04f 0300 	mov.w	r3, #0
 80032e8:	70fb      	strb	r3, [r7, #3]
  /* <<<DD_RESET001_API_4>>> */
  
  /* Read the Last reset status info from RSTSTAT register*/  
  ResetInfo = (RESET001_InfoType)(RCUCtrlReg->RSTSTAT & 
 80032ea:	687b      	ldr	r3, [r7, #4]
 80032ec:	681b      	ldr	r3, [r3, #0]
 80032ee:	70fb      	strb	r3, [r7, #3]
		                                      SCU_RESET_RSTSTAT_RSTSTAT_Msk);
          
  return ResetInfo;
 80032f0:	78fb      	ldrb	r3, [r7, #3]
}
 80032f2:	4618      	mov	r0, r3
 80032f4:	f107 070c 	add.w	r7, r7, #12
 80032f8:	46bd      	mov	sp, r7
 80032fa:	bc80      	pop	{r7}
 80032fc:	4770      	bx	lr
 80032fe:	bf00      	nop

08003300 <RESET001_GetStatus>:
**                                                                            **
** Description     : This API is to get the reset status of the peripheral    **
*******************************************************************************/		
	
status_t RESET001_GetStatus(RESET001_ResetnType Resetn)
{
 8003300:	b480      	push	{r7}
 8003302:	b089      	sub	sp, #36	; 0x24
 8003304:	af00      	add	r7, sp, #0
 8003306:	6078      	str	r0, [r7, #4]
  uint32_t  status ;
  uint32_t* RCUControlReg;
  uint32_t  PeripheralInfo;
  uint32_t  Getstatus;
  
  status        = RESET001_RCU_INVALID_INPUT;
 8003308:	f04f 030f 	mov.w	r3, #15
 800330c:	61fb      	str	r3, [r7, #28]
  PeripheralInfo= 0U;
 800330e:	f04f 0300 	mov.w	r3, #0
 8003312:	61bb      	str	r3, [r7, #24]
  RCUControlReg = 0U;  
 8003314:	f04f 0300 	mov.w	r3, #0
 8003318:	617b      	str	r3, [r7, #20]
  Getstatus     = 0U;
 800331a:	f04f 0300 	mov.w	r3, #0
 800331e:	613b      	str	r3, [r7, #16]
  
  /* <<<DD_RESET001_API_3>>> */
  SCU_RESET_TypeDef* RCUCtrlReg = SCU_RESET;
 8003320:	f44f 4388 	mov.w	r3, #17408	; 0x4400
 8003324:	f2c5 0300 	movt	r3, #20480	; 0x5000
 8003328:	60fb      	str	r3, [r7, #12]
  
  /* Extract the MSB to identify the peripheral in which the module is residing.
   * Shift the MSB to LSB position and store it in a local variable Temp */     
  PeripheralInfo = (((uint32_t)Resetn & RESET001_CLEAR_BITMASK) >> 
 800332a:	687b      	ldr	r3, [r7, #4]
 800332c:	ea4f 7313 	mov.w	r3, r3, lsr #28
 8003330:	61bb      	str	r3, [r7, #24]
  
  /* Multiply the peripheral info stored in Temp variable with the corresponding
  * address shift value to get the offset address of RCU register.
  *  Add the offset address with base PRSTAT peripheral address to get actual 
  *  RCU PRSTAT register address  */   
  RCUControlReg = (uint32_t*)((uint32_t)(&RCUCtrlReg->PRSTAT0) + 
 8003332:	68fb      	ldr	r3, [r7, #12]
 8003334:	f103 030c 	add.w	r3, r3, #12
 8003338:	4619      	mov	r1, r3
		                  ( RESET001_PERIPHERAL_ADDR_SHIFT * PeripheralInfo));
 800333a:	69ba      	ldr	r2, [r7, #24]
 800333c:	4613      	mov	r3, r2
 800333e:	ea4f 0343 	mov.w	r3, r3, lsl #1
 8003342:	189b      	adds	r3, r3, r2
 8003344:	ea4f 0383 	mov.w	r3, r3, lsl #2
  
  /* Multiply the peripheral info stored in Temp variable with the corresponding
  * address shift value to get the offset address of RCU register.
  *  Add the offset address with base PRSTAT peripheral address to get actual 
  *  RCU PRSTAT register address  */   
  RCUControlReg = (uint32_t*)((uint32_t)(&RCUCtrlReg->PRSTAT0) + 
 8003348:	18cb      	adds	r3, r1, r3
 800334a:	617b      	str	r3, [r7, #20]
		                  ( RESET001_PERIPHERAL_ADDR_SHIFT * PeripheralInfo));
  
  /* Read the PRCLR register with the masked reset value after ignoring the Most 
   * Significant Nibble.    */   
  Getstatus	 = (uint32_t)((*RCUControlReg) & 
 800334c:	697b      	ldr	r3, [r7, #20]
 800334e:	681a      	ldr	r2, [r3, #0]
 8003350:	687b      	ldr	r3, [r7, #4]
 8003352:	4013      	ands	r3, r2
 8003354:	f023 4370 	bic.w	r3, r3, #4026531840	; 0xf0000000
 8003358:	613b      	str	r3, [r7, #16]
		                               (uint32_t)Resetn & RESET001_BITMASK);
  
  /* If the register return value is set then return SET else return RESET 
   * status   */   
  if(0U != Getstatus)
 800335a:	693b      	ldr	r3, [r7, #16]
 800335c:	2b00      	cmp	r3, #0
 800335e:	d003      	beq.n	8003368 <RESET001_GetStatus+0x68>
  {
	  status = RESET001_RCU_SET;
 8003360:	f04f 0301 	mov.w	r3, #1
 8003364:	61fb      	str	r3, [r7, #28]
 8003366:	e002      	b.n	800336e <RESET001_GetStatus+0x6e>
  }
  else
  {
	  status = RESET001_RCU_RESET;
 8003368:	f04f 0300 	mov.w	r3, #0
 800336c:	61fb      	str	r3, [r7, #28]
  }
  return status;
 800336e:	69fb      	ldr	r3, [r7, #28]
}
 8003370:	4618      	mov	r0, r3
 8003372:	f107 0724 	add.w	r7, r7, #36	; 0x24
 8003376:	46bd      	mov	sp, r7
 8003378:	bc80      	pop	{r7}
 800337a:	4770      	bx	lr

0800337c <RESET001_ClearResetInfo>:
** Return value    : None                                                     **
**                                                                            **
** Description     : This API is to clear the  reset info status              **
*******************************************************************************/
void RESET001_ClearResetInfo(void)
{
 800337c:	b480      	push	{r7}
 800337e:	b083      	sub	sp, #12
 8003380:	af00      	add	r7, sp, #0
   SCU_RESET_TypeDef* RCUCtrlReg;

   RCUCtrlReg = SCU_RESET;
 8003382:	f44f 4388 	mov.w	r3, #17408	; 0x4400
 8003386:	f2c5 0300 	movt	r3, #20480	; 0x5000
 800338a:	607b      	str	r3, [r7, #4]
   /* <<<DD_RESET001_API_5>>> */

   /* Clear the last reset status info by setting RSCLR bit in RSTCLR register*/
   RCUCtrlReg->RSTCLR |=  (uint32_t)(SCU_RESET_RSTCLR_RSCLR_Msk);
 800338c:	687b      	ldr	r3, [r7, #4]
 800338e:	689b      	ldr	r3, [r3, #8]
 8003390:	f043 0201 	orr.w	r2, r3, #1
 8003394:	687b      	ldr	r3, [r7, #4]
 8003396:	609a      	str	r2, [r3, #8]

}
 8003398:	f107 070c 	add.w	r7, r7, #12
 800339c:	46bd      	mov	sp, r7
 800339e:	bc80      	pop	{r7}
 80033a0:	4770      	bx	lr
 80033a2:	bf00      	nop

080033a4 <IO004_Init>:
/** @ingroup IO004_Func
 * @{
 */

void IO004_Init(void)
{
 80033a4:	b480      	push	{r7}
 80033a6:	af00      	add	r7, sp, #0
   /* <<<DD_IO004_API_1>>> */

	   

  /* Configuration of 0 Port 4 based on User configuration */
  IO004_Handle1.PortRegs->OMR = 0U<< 4;
 80033a8:	f244 336c 	movw	r3, #17260	; 0x436c
 80033ac:	f6c0 0300 	movt	r3, #2048	; 0x800
 80033b0:	685b      	ldr	r3, [r3, #4]
 80033b2:	f04f 0200 	mov.w	r2, #0
 80033b6:	605a      	str	r2, [r3, #4]
  
  IO004_Handle1.PortRegs->PDR0   &= (uint32_t)(~(PORT0_PDR0_PD4_Msk));
 80033b8:	f244 336c 	movw	r3, #17260	; 0x436c
 80033bc:	f6c0 0300 	movt	r3, #2048	; 0x800
 80033c0:	685a      	ldr	r2, [r3, #4]
 80033c2:	f244 336c 	movw	r3, #17260	; 0x436c
 80033c6:	f6c0 0300 	movt	r3, #2048	; 0x800
 80033ca:	685b      	ldr	r3, [r3, #4]
 80033cc:	6c1b      	ldr	r3, [r3, #64]	; 0x40
 80033ce:	f423 23e0 	bic.w	r3, r3, #458752	; 0x70000
 80033d2:	6413      	str	r3, [r2, #64]	; 0x40
  IO004_Handle1.PortRegs->PDR0   |= (uint32_t)((4UL << PORT0_PDR0_PD4_Pos) & \
 80033d4:	f244 336c 	movw	r3, #17260	; 0x436c
 80033d8:	f6c0 0300 	movt	r3, #2048	; 0x800
 80033dc:	685a      	ldr	r2, [r3, #4]
 80033de:	f244 336c 	movw	r3, #17260	; 0x436c
 80033e2:	f6c0 0300 	movt	r3, #2048	; 0x800
 80033e6:	685b      	ldr	r3, [r3, #4]
 80033e8:	6c1b      	ldr	r3, [r3, #64]	; 0x40
 80033ea:	f443 2380 	orr.w	r3, r3, #262144	; 0x40000
 80033ee:	6413      	str	r3, [r2, #64]	; 0x40
                                          PORT0_PDR0_PD4_Msk);
  IO004_Handle1.PortRegs->IOCR4 |= (0U << 3);   
 80033f0:	f244 336c 	movw	r3, #17260	; 0x436c
 80033f4:	f6c0 0300 	movt	r3, #2048	; 0x800
 80033f8:	685a      	ldr	r2, [r3, #4]
 80033fa:	f244 336c 	movw	r3, #17260	; 0x436c
 80033fe:	f6c0 0300 	movt	r3, #2048	; 0x800
 8003402:	685b      	ldr	r3, [r3, #4]
 8003404:	695b      	ldr	r3, [r3, #20]
 8003406:	6153      	str	r3, [r2, #20]

  /* Configuration of 0 Port 0 based on User configuration */
  IO004_Handle10.PortRegs->OMR = 0U<< 0;
 8003408:	f244 3374 	movw	r3, #17268	; 0x4374
 800340c:	f6c0 0300 	movt	r3, #2048	; 0x800
 8003410:	685b      	ldr	r3, [r3, #4]
 8003412:	f04f 0200 	mov.w	r2, #0
 8003416:	605a      	str	r2, [r3, #4]
  
  IO004_Handle10.PortRegs->PDR0   &= (uint32_t)(~(PORT0_PDR0_PD0_Msk));
 8003418:	f244 3374 	movw	r3, #17268	; 0x4374
 800341c:	f6c0 0300 	movt	r3, #2048	; 0x800
 8003420:	685a      	ldr	r2, [r3, #4]
 8003422:	f244 3374 	movw	r3, #17268	; 0x4374
 8003426:	f6c0 0300 	movt	r3, #2048	; 0x800
 800342a:	685b      	ldr	r3, [r3, #4]
 800342c:	6c1b      	ldr	r3, [r3, #64]	; 0x40
 800342e:	f023 0307 	bic.w	r3, r3, #7
 8003432:	6413      	str	r3, [r2, #64]	; 0x40
  IO004_Handle10.PortRegs->PDR0   |= (uint32_t)((4UL << PORT0_PDR0_PD0_Pos) & \
 8003434:	f244 3374 	movw	r3, #17268	; 0x4374
 8003438:	f6c0 0300 	movt	r3, #2048	; 0x800
 800343c:	685a      	ldr	r2, [r3, #4]
 800343e:	f244 3374 	movw	r3, #17268	; 0x4374
 8003442:	f6c0 0300 	movt	r3, #2048	; 0x800
 8003446:	685b      	ldr	r3, [r3, #4]
 8003448:	6c1b      	ldr	r3, [r3, #64]	; 0x40
 800344a:	f043 0304 	orr.w	r3, r3, #4
 800344e:	6413      	str	r3, [r2, #64]	; 0x40
                                          PORT0_PDR0_PD0_Msk);
  IO004_Handle10.PortRegs->IOCR0 |= (0U << 3);   
 8003450:	f244 3374 	movw	r3, #17268	; 0x4374
 8003454:	f6c0 0300 	movt	r3, #2048	; 0x800
 8003458:	685a      	ldr	r2, [r3, #4]
 800345a:	f244 3374 	movw	r3, #17268	; 0x4374
 800345e:	f6c0 0300 	movt	r3, #2048	; 0x800
 8003462:	685b      	ldr	r3, [r3, #4]
 8003464:	691b      	ldr	r3, [r3, #16]
 8003466:	6113      	str	r3, [r2, #16]

  /* Configuration of 3 Port 0 based on User configuration */
  IO004_Handle11.PortRegs->OMR = 0U<< 0;
 8003468:	f244 337c 	movw	r3, #17276	; 0x437c
 800346c:	f6c0 0300 	movt	r3, #2048	; 0x800
 8003470:	685b      	ldr	r3, [r3, #4]
 8003472:	f04f 0200 	mov.w	r2, #0
 8003476:	605a      	str	r2, [r3, #4]
  
  IO004_Handle11.PortRegs->PDR0   &= (uint32_t)(~(PORT3_PDR0_PD0_Msk));
 8003478:	f244 337c 	movw	r3, #17276	; 0x437c
 800347c:	f6c0 0300 	movt	r3, #2048	; 0x800
 8003480:	685a      	ldr	r2, [r3, #4]
 8003482:	f244 337c 	movw	r3, #17276	; 0x437c
 8003486:	f6c0 0300 	movt	r3, #2048	; 0x800
 800348a:	685b      	ldr	r3, [r3, #4]
 800348c:	6c1b      	ldr	r3, [r3, #64]	; 0x40
 800348e:	f023 0307 	bic.w	r3, r3, #7
 8003492:	6413      	str	r3, [r2, #64]	; 0x40
  IO004_Handle11.PortRegs->PDR0   |= (uint32_t)((4UL << PORT3_PDR0_PD0_Pos) & \
 8003494:	f244 337c 	movw	r3, #17276	; 0x437c
 8003498:	f6c0 0300 	movt	r3, #2048	; 0x800
 800349c:	685a      	ldr	r2, [r3, #4]
 800349e:	f244 337c 	movw	r3, #17276	; 0x437c
 80034a2:	f6c0 0300 	movt	r3, #2048	; 0x800
 80034a6:	685b      	ldr	r3, [r3, #4]
 80034a8:	6c1b      	ldr	r3, [r3, #64]	; 0x40
 80034aa:	f043 0304 	orr.w	r3, r3, #4
 80034ae:	6413      	str	r3, [r2, #64]	; 0x40
                                          PORT3_PDR0_PD0_Msk);
  IO004_Handle11.PortRegs->IOCR0 |= (0U << 3);   
 80034b0:	f244 337c 	movw	r3, #17276	; 0x437c
 80034b4:	f6c0 0300 	movt	r3, #2048	; 0x800
 80034b8:	685a      	ldr	r2, [r3, #4]
 80034ba:	f244 337c 	movw	r3, #17276	; 0x437c
 80034be:	f6c0 0300 	movt	r3, #2048	; 0x800
 80034c2:	685b      	ldr	r3, [r3, #4]
 80034c4:	691b      	ldr	r3, [r3, #16]
 80034c6:	6113      	str	r3, [r2, #16]

  /* Configuration of 0 Port 1 based on User configuration */
  IO004_Handle12.PortRegs->OMR = 0U<< 1;
 80034c8:	f244 3384 	movw	r3, #17284	; 0x4384
 80034cc:	f6c0 0300 	movt	r3, #2048	; 0x800
 80034d0:	685b      	ldr	r3, [r3, #4]
 80034d2:	f04f 0200 	mov.w	r2, #0
 80034d6:	605a      	str	r2, [r3, #4]
  
  IO004_Handle12.PortRegs->PDR0   &= (uint32_t)(~(PORT0_PDR0_PD1_Msk));
 80034d8:	f244 3384 	movw	r3, #17284	; 0x4384
 80034dc:	f6c0 0300 	movt	r3, #2048	; 0x800
 80034e0:	685a      	ldr	r2, [r3, #4]
 80034e2:	f244 3384 	movw	r3, #17284	; 0x4384
 80034e6:	f6c0 0300 	movt	r3, #2048	; 0x800
 80034ea:	685b      	ldr	r3, [r3, #4]
 80034ec:	6c1b      	ldr	r3, [r3, #64]	; 0x40
 80034ee:	f023 0370 	bic.w	r3, r3, #112	; 0x70
 80034f2:	6413      	str	r3, [r2, #64]	; 0x40
  IO004_Handle12.PortRegs->PDR0   |= (uint32_t)((4UL << PORT0_PDR0_PD1_Pos) & \
 80034f4:	f244 3384 	movw	r3, #17284	; 0x4384
 80034f8:	f6c0 0300 	movt	r3, #2048	; 0x800
 80034fc:	685a      	ldr	r2, [r3, #4]
 80034fe:	f244 3384 	movw	r3, #17284	; 0x4384
 8003502:	f6c0 0300 	movt	r3, #2048	; 0x800
 8003506:	685b      	ldr	r3, [r3, #4]
 8003508:	6c1b      	ldr	r3, [r3, #64]	; 0x40
 800350a:	f043 0340 	orr.w	r3, r3, #64	; 0x40
 800350e:	6413      	str	r3, [r2, #64]	; 0x40
                                          PORT0_PDR0_PD1_Msk);
  IO004_Handle12.PortRegs->IOCR0 |= (0U << 11);   
 8003510:	f244 3384 	movw	r3, #17284	; 0x4384
 8003514:	f6c0 0300 	movt	r3, #2048	; 0x800
 8003518:	685a      	ldr	r2, [r3, #4]
 800351a:	f244 3384 	movw	r3, #17284	; 0x4384
 800351e:	f6c0 0300 	movt	r3, #2048	; 0x800
 8003522:	685b      	ldr	r3, [r3, #4]
 8003524:	691b      	ldr	r3, [r3, #16]
 8003526:	6113      	str	r3, [r2, #16]

  /* Configuration of 0 Port 2 based on User configuration */
  IO004_Handle2.PortRegs->OMR = 0U<< 2;
 8003528:	f244 338c 	movw	r3, #17292	; 0x438c
 800352c:	f6c0 0300 	movt	r3, #2048	; 0x800
 8003530:	685b      	ldr	r3, [r3, #4]
 8003532:	f04f 0200 	mov.w	r2, #0
 8003536:	605a      	str	r2, [r3, #4]
  
  IO004_Handle2.PortRegs->PDR0   &= (uint32_t)(~(PORT0_PDR0_PD2_Msk));
 8003538:	f244 338c 	movw	r3, #17292	; 0x438c
 800353c:	f6c0 0300 	movt	r3, #2048	; 0x800
 8003540:	685a      	ldr	r2, [r3, #4]
 8003542:	f244 338c 	movw	r3, #17292	; 0x438c
 8003546:	f6c0 0300 	movt	r3, #2048	; 0x800
 800354a:	685b      	ldr	r3, [r3, #4]
 800354c:	6c1b      	ldr	r3, [r3, #64]	; 0x40
 800354e:	f423 63e0 	bic.w	r3, r3, #1792	; 0x700
 8003552:	6413      	str	r3, [r2, #64]	; 0x40
  IO004_Handle2.PortRegs->PDR0   |= (uint32_t)((4UL << PORT0_PDR0_PD2_Pos) & \
 8003554:	f244 338c 	movw	r3, #17292	; 0x438c
 8003558:	f6c0 0300 	movt	r3, #2048	; 0x800
 800355c:	685a      	ldr	r2, [r3, #4]
 800355e:	f244 338c 	movw	r3, #17292	; 0x438c
 8003562:	f6c0 0300 	movt	r3, #2048	; 0x800
 8003566:	685b      	ldr	r3, [r3, #4]
 8003568:	6c1b      	ldr	r3, [r3, #64]	; 0x40
 800356a:	f443 6380 	orr.w	r3, r3, #1024	; 0x400
 800356e:	6413      	str	r3, [r2, #64]	; 0x40
                                          PORT0_PDR0_PD2_Msk);
  IO004_Handle2.PortRegs->IOCR0 |= (0U << 19);   
 8003570:	f244 338c 	movw	r3, #17292	; 0x438c
 8003574:	f6c0 0300 	movt	r3, #2048	; 0x800
 8003578:	685a      	ldr	r2, [r3, #4]
 800357a:	f244 338c 	movw	r3, #17292	; 0x438c
 800357e:	f6c0 0300 	movt	r3, #2048	; 0x800
 8003582:	685b      	ldr	r3, [r3, #4]
 8003584:	691b      	ldr	r3, [r3, #16]
 8003586:	6113      	str	r3, [r2, #16]

  /* Configuration of 0 Port 6 based on User configuration */
  IO004_Handle4.PortRegs->OMR = 0U<< 6;
 8003588:	f244 3394 	movw	r3, #17300	; 0x4394
 800358c:	f6c0 0300 	movt	r3, #2048	; 0x800
 8003590:	685b      	ldr	r3, [r3, #4]
 8003592:	f04f 0200 	mov.w	r2, #0
 8003596:	605a      	str	r2, [r3, #4]
  
  IO004_Handle4.PortRegs->PDR0   &= (uint32_t)(~(PORT0_PDR0_PD6_Msk));
 8003598:	f244 3394 	movw	r3, #17300	; 0x4394
 800359c:	f6c0 0300 	movt	r3, #2048	; 0x800
 80035a0:	685a      	ldr	r2, [r3, #4]
 80035a2:	f244 3394 	movw	r3, #17300	; 0x4394
 80035a6:	f6c0 0300 	movt	r3, #2048	; 0x800
 80035aa:	685b      	ldr	r3, [r3, #4]
 80035ac:	6c1b      	ldr	r3, [r3, #64]	; 0x40
 80035ae:	f023 63e0 	bic.w	r3, r3, #117440512	; 0x7000000
 80035b2:	6413      	str	r3, [r2, #64]	; 0x40
  IO004_Handle4.PortRegs->PDR0   |= (uint32_t)((4UL << PORT0_PDR0_PD6_Pos) & \
 80035b4:	f244 3394 	movw	r3, #17300	; 0x4394
 80035b8:	f6c0 0300 	movt	r3, #2048	; 0x800
 80035bc:	685a      	ldr	r2, [r3, #4]
 80035be:	f244 3394 	movw	r3, #17300	; 0x4394
 80035c2:	f6c0 0300 	movt	r3, #2048	; 0x800
 80035c6:	685b      	ldr	r3, [r3, #4]
 80035c8:	6c1b      	ldr	r3, [r3, #64]	; 0x40
 80035ca:	f043 6380 	orr.w	r3, r3, #67108864	; 0x4000000
 80035ce:	6413      	str	r3, [r2, #64]	; 0x40
                                          PORT0_PDR0_PD6_Msk);
  IO004_Handle4.PortRegs->IOCR4 |= (0U << 19);   
 80035d0:	f244 3394 	movw	r3, #17300	; 0x4394
 80035d4:	f6c0 0300 	movt	r3, #2048	; 0x800
 80035d8:	685a      	ldr	r2, [r3, #4]
 80035da:	f244 3394 	movw	r3, #17300	; 0x4394
 80035de:	f6c0 0300 	movt	r3, #2048	; 0x800
 80035e2:	685b      	ldr	r3, [r3, #4]
 80035e4:	695b      	ldr	r3, [r3, #20]
 80035e6:	6153      	str	r3, [r2, #20]

  /* Configuration of 0 Port 12 based on User configuration */
  IO004_Handle5.PortRegs->OMR = 0U<< 12;
 80035e8:	f244 339c 	movw	r3, #17308	; 0x439c
 80035ec:	f6c0 0300 	movt	r3, #2048	; 0x800
 80035f0:	685b      	ldr	r3, [r3, #4]
 80035f2:	f04f 0200 	mov.w	r2, #0
 80035f6:	605a      	str	r2, [r3, #4]
  
  IO004_Handle5.PortRegs->PDR1  &= (uint32_t)(~(PORT0_PDR1_PD12_Msk));
 80035f8:	f244 339c 	movw	r3, #17308	; 0x439c
 80035fc:	f6c0 0300 	movt	r3, #2048	; 0x800
 8003600:	685a      	ldr	r2, [r3, #4]
 8003602:	f244 339c 	movw	r3, #17308	; 0x439c
 8003606:	f6c0 0300 	movt	r3, #2048	; 0x800
 800360a:	685b      	ldr	r3, [r3, #4]
 800360c:	6c5b      	ldr	r3, [r3, #68]	; 0x44
 800360e:	f423 23e0 	bic.w	r3, r3, #458752	; 0x70000
 8003612:	6453      	str	r3, [r2, #68]	; 0x44
  IO004_Handle5.PortRegs->PDR1  |= (uint32_t)((4UL << PORT0_PDR1_PD12_Pos) & \
 8003614:	f244 339c 	movw	r3, #17308	; 0x439c
 8003618:	f6c0 0300 	movt	r3, #2048	; 0x800
 800361c:	685a      	ldr	r2, [r3, #4]
 800361e:	f244 339c 	movw	r3, #17308	; 0x439c
 8003622:	f6c0 0300 	movt	r3, #2048	; 0x800
 8003626:	685b      	ldr	r3, [r3, #4]
 8003628:	6c5b      	ldr	r3, [r3, #68]	; 0x44
 800362a:	f443 2380 	orr.w	r3, r3, #262144	; 0x40000
 800362e:	6453      	str	r3, [r2, #68]	; 0x44
                                     PORT0_PDR1_PD12_Msk);
  IO004_Handle5.PortRegs->IOCR12 |= (3U << 3);   
 8003630:	f244 339c 	movw	r3, #17308	; 0x439c
 8003634:	f6c0 0300 	movt	r3, #2048	; 0x800
 8003638:	685a      	ldr	r2, [r3, #4]
 800363a:	f244 339c 	movw	r3, #17308	; 0x439c
 800363e:	f6c0 0300 	movt	r3, #2048	; 0x800
 8003642:	685b      	ldr	r3, [r3, #4]
 8003644:	69db      	ldr	r3, [r3, #28]
 8003646:	f043 0318 	orr.w	r3, r3, #24
 800364a:	61d3      	str	r3, [r2, #28]

  /* Configuration of 3 Port 4 based on User configuration */
  IO004_Handle6.PortRegs->OMR = 0U<< 4;
 800364c:	f244 33a4 	movw	r3, #17316	; 0x43a4
 8003650:	f6c0 0300 	movt	r3, #2048	; 0x800
 8003654:	685b      	ldr	r3, [r3, #4]
 8003656:	f04f 0200 	mov.w	r2, #0
 800365a:	605a      	str	r2, [r3, #4]
  
  IO004_Handle6.PortRegs->PDR0   &= (uint32_t)(~(PORT3_PDR0_PD4_Msk));
 800365c:	f244 33a4 	movw	r3, #17316	; 0x43a4
 8003660:	f6c0 0300 	movt	r3, #2048	; 0x800
 8003664:	685a      	ldr	r2, [r3, #4]
 8003666:	f244 33a4 	movw	r3, #17316	; 0x43a4
 800366a:	f6c0 0300 	movt	r3, #2048	; 0x800
 800366e:	685b      	ldr	r3, [r3, #4]
 8003670:	6c1b      	ldr	r3, [r3, #64]	; 0x40
 8003672:	f423 23e0 	bic.w	r3, r3, #458752	; 0x70000
 8003676:	6413      	str	r3, [r2, #64]	; 0x40
  IO004_Handle6.PortRegs->PDR0   |= (uint32_t)((4UL << PORT3_PDR0_PD4_Pos) & \
 8003678:	f244 33a4 	movw	r3, #17316	; 0x43a4
 800367c:	f6c0 0300 	movt	r3, #2048	; 0x800
 8003680:	685a      	ldr	r2, [r3, #4]
 8003682:	f244 33a4 	movw	r3, #17316	; 0x43a4
 8003686:	f6c0 0300 	movt	r3, #2048	; 0x800
 800368a:	685b      	ldr	r3, [r3, #4]
 800368c:	6c1b      	ldr	r3, [r3, #64]	; 0x40
 800368e:	f443 2380 	orr.w	r3, r3, #262144	; 0x40000
 8003692:	6413      	str	r3, [r2, #64]	; 0x40
                                          PORT3_PDR0_PD4_Msk);
  IO004_Handle6.PortRegs->IOCR4 |= (0U << 3);   
 8003694:	f244 33a4 	movw	r3, #17316	; 0x43a4
 8003698:	f6c0 0300 	movt	r3, #2048	; 0x800
 800369c:	685a      	ldr	r2, [r3, #4]
 800369e:	f244 33a4 	movw	r3, #17316	; 0x43a4
 80036a2:	f6c0 0300 	movt	r3, #2048	; 0x800
 80036a6:	685b      	ldr	r3, [r3, #4]
 80036a8:	695b      	ldr	r3, [r3, #20]
 80036aa:	6153      	str	r3, [r2, #20]

  /* Configuration of 1 Port 0 based on User configuration */
  IO004_Handle7.PortRegs->OMR = 0U<< 0;
 80036ac:	f244 33ac 	movw	r3, #17324	; 0x43ac
 80036b0:	f6c0 0300 	movt	r3, #2048	; 0x800
 80036b4:	685b      	ldr	r3, [r3, #4]
 80036b6:	f04f 0200 	mov.w	r2, #0
 80036ba:	605a      	str	r2, [r3, #4]
  
  IO004_Handle7.PortRegs->PDR0   &= (uint32_t)(~(PORT1_PDR0_PD0_Msk));
 80036bc:	f244 33ac 	movw	r3, #17324	; 0x43ac
 80036c0:	f6c0 0300 	movt	r3, #2048	; 0x800
 80036c4:	685a      	ldr	r2, [r3, #4]
 80036c6:	f244 33ac 	movw	r3, #17324	; 0x43ac
 80036ca:	f6c0 0300 	movt	r3, #2048	; 0x800
 80036ce:	685b      	ldr	r3, [r3, #4]
 80036d0:	6c1b      	ldr	r3, [r3, #64]	; 0x40
 80036d2:	f023 0307 	bic.w	r3, r3, #7
 80036d6:	6413      	str	r3, [r2, #64]	; 0x40
  IO004_Handle7.PortRegs->PDR0   |= (uint32_t)((4UL << PORT1_PDR0_PD0_Pos) & \
 80036d8:	f244 33ac 	movw	r3, #17324	; 0x43ac
 80036dc:	f6c0 0300 	movt	r3, #2048	; 0x800
 80036e0:	685a      	ldr	r2, [r3, #4]
 80036e2:	f244 33ac 	movw	r3, #17324	; 0x43ac
 80036e6:	f6c0 0300 	movt	r3, #2048	; 0x800
 80036ea:	685b      	ldr	r3, [r3, #4]
 80036ec:	6c1b      	ldr	r3, [r3, #64]	; 0x40
 80036ee:	f043 0304 	orr.w	r3, r3, #4
 80036f2:	6413      	str	r3, [r2, #64]	; 0x40
                                          PORT1_PDR0_PD0_Msk);
  IO004_Handle7.PortRegs->IOCR0 |= (0U << 3);   
 80036f4:	f244 33ac 	movw	r3, #17324	; 0x43ac
 80036f8:	f6c0 0300 	movt	r3, #2048	; 0x800
 80036fc:	685a      	ldr	r2, [r3, #4]
 80036fe:	f244 33ac 	movw	r3, #17324	; 0x43ac
 8003702:	f6c0 0300 	movt	r3, #2048	; 0x800
 8003706:	685b      	ldr	r3, [r3, #4]
 8003708:	691b      	ldr	r3, [r3, #16]
 800370a:	6113      	str	r3, [r2, #16]

  /* Configuration of 1 Port 1 based on User configuration */
  IO004_Handle8.PortRegs->OMR = 0U<< 1;
 800370c:	f244 33b4 	movw	r3, #17332	; 0x43b4
 8003710:	f6c0 0300 	movt	r3, #2048	; 0x800
 8003714:	685b      	ldr	r3, [r3, #4]
 8003716:	f04f 0200 	mov.w	r2, #0
 800371a:	605a      	str	r2, [r3, #4]
  
  IO004_Handle8.PortRegs->PDR0   &= (uint32_t)(~(PORT1_PDR0_PD1_Msk));
 800371c:	f244 33b4 	movw	r3, #17332	; 0x43b4
 8003720:	f6c0 0300 	movt	r3, #2048	; 0x800
 8003724:	685a      	ldr	r2, [r3, #4]
 8003726:	f244 33b4 	movw	r3, #17332	; 0x43b4
 800372a:	f6c0 0300 	movt	r3, #2048	; 0x800
 800372e:	685b      	ldr	r3, [r3, #4]
 8003730:	6c1b      	ldr	r3, [r3, #64]	; 0x40
 8003732:	f023 0370 	bic.w	r3, r3, #112	; 0x70
 8003736:	6413      	str	r3, [r2, #64]	; 0x40
  IO004_Handle8.PortRegs->PDR0   |= (uint32_t)((4UL << PORT1_PDR0_PD1_Pos) & \
 8003738:	f244 33b4 	movw	r3, #17332	; 0x43b4
 800373c:	f6c0 0300 	movt	r3, #2048	; 0x800
 8003740:	685a      	ldr	r2, [r3, #4]
 8003742:	f244 33b4 	movw	r3, #17332	; 0x43b4
 8003746:	f6c0 0300 	movt	r3, #2048	; 0x800
 800374a:	685b      	ldr	r3, [r3, #4]
 800374c:	6c1b      	ldr	r3, [r3, #64]	; 0x40
 800374e:	f043 0340 	orr.w	r3, r3, #64	; 0x40
 8003752:	6413      	str	r3, [r2, #64]	; 0x40
                                          PORT1_PDR0_PD1_Msk);
  IO004_Handle8.PortRegs->IOCR0 |= (0U << 11);   
 8003754:	f244 33b4 	movw	r3, #17332	; 0x43b4
 8003758:	f6c0 0300 	movt	r3, #2048	; 0x800
 800375c:	685a      	ldr	r2, [r3, #4]
 800375e:	f244 33b4 	movw	r3, #17332	; 0x43b4
 8003762:	f6c0 0300 	movt	r3, #2048	; 0x800
 8003766:	685b      	ldr	r3, [r3, #4]
 8003768:	691b      	ldr	r3, [r3, #16]
 800376a:	6113      	str	r3, [r2, #16]

  /* Configuration of 3 Port 2 based on User configuration */
  IO004_Handle9.PortRegs->OMR = 0U<< 2;
 800376c:	f244 33bc 	movw	r3, #17340	; 0x43bc
 8003770:	f6c0 0300 	movt	r3, #2048	; 0x800
 8003774:	685b      	ldr	r3, [r3, #4]
 8003776:	f04f 0200 	mov.w	r2, #0
 800377a:	605a      	str	r2, [r3, #4]
  
  IO004_Handle9.PortRegs->PDR0   &= (uint32_t)(~(PORT3_PDR0_PD2_Msk));
 800377c:	f244 33bc 	movw	r3, #17340	; 0x43bc
 8003780:	f6c0 0300 	movt	r3, #2048	; 0x800
 8003784:	685a      	ldr	r2, [r3, #4]
 8003786:	f244 33bc 	movw	r3, #17340	; 0x43bc
 800378a:	f6c0 0300 	movt	r3, #2048	; 0x800
 800378e:	685b      	ldr	r3, [r3, #4]
 8003790:	6c1b      	ldr	r3, [r3, #64]	; 0x40
 8003792:	f423 63e0 	bic.w	r3, r3, #1792	; 0x700
 8003796:	6413      	str	r3, [r2, #64]	; 0x40
  IO004_Handle9.PortRegs->PDR0   |= (uint32_t)((4UL << PORT3_PDR0_PD2_Pos) & \
 8003798:	f244 33bc 	movw	r3, #17340	; 0x43bc
 800379c:	f6c0 0300 	movt	r3, #2048	; 0x800
 80037a0:	685a      	ldr	r2, [r3, #4]
 80037a2:	f244 33bc 	movw	r3, #17340	; 0x43bc
 80037a6:	f6c0 0300 	movt	r3, #2048	; 0x800
 80037aa:	685b      	ldr	r3, [r3, #4]
 80037ac:	6c1b      	ldr	r3, [r3, #64]	; 0x40
 80037ae:	f443 6380 	orr.w	r3, r3, #1024	; 0x400
 80037b2:	6413      	str	r3, [r2, #64]	; 0x40
                                          PORT3_PDR0_PD2_Msk);
  IO004_Handle9.PortRegs->IOCR0 |= (2U << 19);
 80037b4:	f244 33bc 	movw	r3, #17340	; 0x43bc
 80037b8:	f6c0 0300 	movt	r3, #2048	; 0x800
 80037bc:	685a      	ldr	r2, [r3, #4]
 80037be:	f244 33bc 	movw	r3, #17340	; 0x43bc
 80037c2:	f6c0 0300 	movt	r3, #2048	; 0x800
 80037c6:	685b      	ldr	r3, [r3, #4]
 80037c8:	691b      	ldr	r3, [r3, #16]
 80037ca:	f443 1380 	orr.w	r3, r3, #1048576	; 0x100000
 80037ce:	6113      	str	r3, [r2, #16]
}
 80037d0:	46bd      	mov	sp, r7
 80037d2:	bc80      	pop	{r7}
 80037d4:	4770      	bx	lr
 80037d6:	bf00      	nop

080037d8 <IO004_DisableOutputDriver>:

void IO004_DisableOutputDriver(const IO004_HandleType* Handle,IO004_InputModeType Mode)
{
 80037d8:	b480      	push	{r7}
 80037da:	b085      	sub	sp, #20
 80037dc:	af00      	add	r7, sp, #0
 80037de:	6078      	str	r0, [r7, #4]
 80037e0:	460b      	mov	r3, r1
 80037e2:	70fb      	strb	r3, [r7, #3]
  uint8_t Pin = Handle->PortPin;
 80037e4:	687b      	ldr	r3, [r7, #4]
 80037e6:	785b      	ldrb	r3, [r3, #1]
 80037e8:	73fb      	strb	r3, [r7, #15]
  /* <<<DD_IO004_API_2>>> */
  if(Pin < 4U)
 80037ea:	7bfb      	ldrb	r3, [r7, #15]
 80037ec:	2b03      	cmp	r3, #3
 80037ee:	d823      	bhi.n	8003838 <IO004_DisableOutputDriver+0x60>
  {
    Handle->PortRegs->IOCR0  =  (uint32_t)(Handle->PortRegs->IOCR0 & ~(0x0000001FUL << (3U+(Pin*8U))));
 80037f0:	687b      	ldr	r3, [r7, #4]
 80037f2:	685b      	ldr	r3, [r3, #4]
 80037f4:	687a      	ldr	r2, [r7, #4]
 80037f6:	6852      	ldr	r2, [r2, #4]
 80037f8:	6911      	ldr	r1, [r2, #16]
 80037fa:	7bfa      	ldrb	r2, [r7, #15]
 80037fc:	ea4f 02c2 	mov.w	r2, r2, lsl #3
 8003800:	f102 0203 	add.w	r2, r2, #3
 8003804:	f04f 001f 	mov.w	r0, #31
 8003808:	fa00 f202 	lsl.w	r2, r0, r2
 800380c:	ea6f 0202 	mvn.w	r2, r2
 8003810:	400a      	ands	r2, r1
 8003812:	611a      	str	r2, [r3, #16]
    Handle->PortRegs->IOCR0 |= (uint32_t)(((uint32_t)Mode & 0x1FUL) << (3U+(Pin*8U)));
 8003814:	687b      	ldr	r3, [r7, #4]
 8003816:	685b      	ldr	r3, [r3, #4]
 8003818:	687a      	ldr	r2, [r7, #4]
 800381a:	6852      	ldr	r2, [r2, #4]
 800381c:	6911      	ldr	r1, [r2, #16]
 800381e:	78fa      	ldrb	r2, [r7, #3]
 8003820:	f002 001f 	and.w	r0, r2, #31
 8003824:	7bfa      	ldrb	r2, [r7, #15]
 8003826:	ea4f 02c2 	mov.w	r2, r2, lsl #3
 800382a:	f102 0203 	add.w	r2, r2, #3
 800382e:	fa00 f202 	lsl.w	r2, r0, r2
 8003832:	430a      	orrs	r2, r1
 8003834:	611a      	str	r2, [r3, #16]
 8003836:	e088      	b.n	800394a <IO004_DisableOutputDriver+0x172>
  } else if ((Pin >= 4U) && (Pin <= 7U))
 8003838:	7bfb      	ldrb	r3, [r7, #15]
 800383a:	2b03      	cmp	r3, #3
 800383c:	d92a      	bls.n	8003894 <IO004_DisableOutputDriver+0xbc>
 800383e:	7bfb      	ldrb	r3, [r7, #15]
 8003840:	2b07      	cmp	r3, #7
 8003842:	d827      	bhi.n	8003894 <IO004_DisableOutputDriver+0xbc>
  {
    Pin = Pin - 4U;
 8003844:	7bfb      	ldrb	r3, [r7, #15]
 8003846:	f1a3 0304 	sub.w	r3, r3, #4
 800384a:	73fb      	strb	r3, [r7, #15]
    Handle->PortRegs->IOCR4  =  (uint32_t)(Handle->PortRegs->IOCR4 & ~(0x0000001FUL << (3U+(Pin*8U))));
 800384c:	687b      	ldr	r3, [r7, #4]
 800384e:	685b      	ldr	r3, [r3, #4]
 8003850:	687a      	ldr	r2, [r7, #4]
 8003852:	6852      	ldr	r2, [r2, #4]
 8003854:	6951      	ldr	r1, [r2, #20]
 8003856:	7bfa      	ldrb	r2, [r7, #15]
 8003858:	ea4f 02c2 	mov.w	r2, r2, lsl #3
 800385c:	f102 0203 	add.w	r2, r2, #3
 8003860:	f04f 001f 	mov.w	r0, #31
 8003864:	fa00 f202 	lsl.w	r2, r0, r2
 8003868:	ea6f 0202 	mvn.w	r2, r2
 800386c:	400a      	ands	r2, r1
 800386e:	615a      	str	r2, [r3, #20]
    Handle->PortRegs->IOCR4 |=  (uint32_t)(((uint32_t)Mode & 0x1FUL) << (3U+(Pin*8U)));
 8003870:	687b      	ldr	r3, [r7, #4]
 8003872:	685b      	ldr	r3, [r3, #4]
 8003874:	687a      	ldr	r2, [r7, #4]
 8003876:	6852      	ldr	r2, [r2, #4]
 8003878:	6951      	ldr	r1, [r2, #20]
 800387a:	78fa      	ldrb	r2, [r7, #3]
 800387c:	f002 001f 	and.w	r0, r2, #31
 8003880:	7bfa      	ldrb	r2, [r7, #15]
 8003882:	ea4f 02c2 	mov.w	r2, r2, lsl #3
 8003886:	f102 0203 	add.w	r2, r2, #3
 800388a:	fa00 f202 	lsl.w	r2, r0, r2
 800388e:	430a      	orrs	r2, r1
 8003890:	615a      	str	r2, [r3, #20]
 8003892:	e05a      	b.n	800394a <IO004_DisableOutputDriver+0x172>
  } else if ((Pin >= 8U) && (Pin <= 11U))
 8003894:	7bfb      	ldrb	r3, [r7, #15]
 8003896:	2b07      	cmp	r3, #7
 8003898:	d92a      	bls.n	80038f0 <IO004_DisableOutputDriver+0x118>
 800389a:	7bfb      	ldrb	r3, [r7, #15]
 800389c:	2b0b      	cmp	r3, #11
 800389e:	d827      	bhi.n	80038f0 <IO004_DisableOutputDriver+0x118>
  {
    Pin = Pin - 8U;
 80038a0:	7bfb      	ldrb	r3, [r7, #15]
 80038a2:	f1a3 0308 	sub.w	r3, r3, #8
 80038a6:	73fb      	strb	r3, [r7, #15]
    Handle->PortRegs->IOCR8  =  (uint32_t)(Handle->PortRegs->IOCR8 & ~(0x0000001FUL << (3U+(Pin*8U))));
 80038a8:	687b      	ldr	r3, [r7, #4]
 80038aa:	685b      	ldr	r3, [r3, #4]
 80038ac:	687a      	ldr	r2, [r7, #4]
 80038ae:	6852      	ldr	r2, [r2, #4]
 80038b0:	6991      	ldr	r1, [r2, #24]
 80038b2:	7bfa      	ldrb	r2, [r7, #15]
 80038b4:	ea4f 02c2 	mov.w	r2, r2, lsl #3
 80038b8:	f102 0203 	add.w	r2, r2, #3
 80038bc:	f04f 001f 	mov.w	r0, #31
 80038c0:	fa00 f202 	lsl.w	r2, r0, r2
 80038c4:	ea6f 0202 	mvn.w	r2, r2
 80038c8:	400a      	ands	r2, r1
 80038ca:	619a      	str	r2, [r3, #24]
    Handle->PortRegs->IOCR8 |=  (uint32_t)(((uint32_t)Mode & 0x1FUL) << (3U+(Pin*8U)));
 80038cc:	687b      	ldr	r3, [r7, #4]
 80038ce:	685b      	ldr	r3, [r3, #4]
 80038d0:	687a      	ldr	r2, [r7, #4]
 80038d2:	6852      	ldr	r2, [r2, #4]
 80038d4:	6991      	ldr	r1, [r2, #24]
 80038d6:	78fa      	ldrb	r2, [r7, #3]
 80038d8:	f002 001f 	and.w	r0, r2, #31
 80038dc:	7bfa      	ldrb	r2, [r7, #15]
 80038de:	ea4f 02c2 	mov.w	r2, r2, lsl #3
 80038e2:	f102 0203 	add.w	r2, r2, #3
 80038e6:	fa00 f202 	lsl.w	r2, r0, r2
 80038ea:	430a      	orrs	r2, r1
 80038ec:	619a      	str	r2, [r3, #24]
 80038ee:	e02c      	b.n	800394a <IO004_DisableOutputDriver+0x172>
  } else if ((Pin >= 12U) && (Pin <= 15U))
 80038f0:	7bfb      	ldrb	r3, [r7, #15]
 80038f2:	2b0b      	cmp	r3, #11
 80038f4:	d929      	bls.n	800394a <IO004_DisableOutputDriver+0x172>
 80038f6:	7bfb      	ldrb	r3, [r7, #15]
 80038f8:	2b0f      	cmp	r3, #15
 80038fa:	d826      	bhi.n	800394a <IO004_DisableOutputDriver+0x172>
  {
    Pin = Pin - 12U;
 80038fc:	7bfb      	ldrb	r3, [r7, #15]
 80038fe:	f1a3 030c 	sub.w	r3, r3, #12
 8003902:	73fb      	strb	r3, [r7, #15]
    Handle->PortRegs->IOCR12  =  (uint32_t)(Handle->PortRegs->IOCR12 & ~(0x0000001FUL << (3U+(Pin*8U))));
 8003904:	687b      	ldr	r3, [r7, #4]
 8003906:	685b      	ldr	r3, [r3, #4]
 8003908:	687a      	ldr	r2, [r7, #4]
 800390a:	6852      	ldr	r2, [r2, #4]
 800390c:	69d1      	ldr	r1, [r2, #28]
 800390e:	7bfa      	ldrb	r2, [r7, #15]
 8003910:	ea4f 02c2 	mov.w	r2, r2, lsl #3
 8003914:	f102 0203 	add.w	r2, r2, #3
 8003918:	f04f 001f 	mov.w	r0, #31
 800391c:	fa00 f202 	lsl.w	r2, r0, r2
 8003920:	ea6f 0202 	mvn.w	r2, r2
 8003924:	400a      	ands	r2, r1
 8003926:	61da      	str	r2, [r3, #28]
    Handle->PortRegs->IOCR12 |=  (uint32_t)(((uint32_t)Mode & 0x1FUL) << (3U+(Pin*8U)));
 8003928:	687b      	ldr	r3, [r7, #4]
 800392a:	685b      	ldr	r3, [r3, #4]
 800392c:	687a      	ldr	r2, [r7, #4]
 800392e:	6852      	ldr	r2, [r2, #4]
 8003930:	69d1      	ldr	r1, [r2, #28]
 8003932:	78fa      	ldrb	r2, [r7, #3]
 8003934:	f002 001f 	and.w	r0, r2, #31
 8003938:	7bfa      	ldrb	r2, [r7, #15]
 800393a:	ea4f 02c2 	mov.w	r2, r2, lsl #3
 800393e:	f102 0203 	add.w	r2, r2, #3
 8003942:	fa00 f202 	lsl.w	r2, r0, r2
 8003946:	430a      	orrs	r2, r1
 8003948:	61da      	str	r2, [r3, #28]
  else
  {
	  /*Not supposed to be here */
  }

}
 800394a:	f107 0714 	add.w	r7, r7, #20
 800394e:	46bd      	mov	sp, r7
 8003950:	bc80      	pop	{r7}
 8003952:	4770      	bx	lr

08003954 <IO004_EnableOutputDriver>:

void IO004_EnableOutputDriver(const IO004_HandleType* Handle,IO004_OutputModeType Mode)
{
 8003954:	b480      	push	{r7}
 8003956:	b085      	sub	sp, #20
 8003958:	af00      	add	r7, sp, #0
 800395a:	6078      	str	r0, [r7, #4]
 800395c:	460b      	mov	r3, r1
 800395e:	70fb      	strb	r3, [r7, #3]

  uint8_t Pin = Handle->PortPin;
 8003960:	687b      	ldr	r3, [r7, #4]
 8003962:	785b      	ldrb	r3, [r3, #1]
 8003964:	73fb      	strb	r3, [r7, #15]
  /* <<<DD_IO004_API_2>>> */
  if(Pin < 4U)
 8003966:	7bfb      	ldrb	r3, [r7, #15]
 8003968:	2b03      	cmp	r3, #3
 800396a:	d823      	bhi.n	80039b4 <IO004_EnableOutputDriver+0x60>
  {
    Handle->PortRegs->IOCR0  =  (uint32_t)(Handle->PortRegs->IOCR0 & ~(0x0000001FUL << (3U+(Pin*8U))));
 800396c:	687b      	ldr	r3, [r7, #4]
 800396e:	685b      	ldr	r3, [r3, #4]
 8003970:	687a      	ldr	r2, [r7, #4]
 8003972:	6852      	ldr	r2, [r2, #4]
 8003974:	6911      	ldr	r1, [r2, #16]
 8003976:	7bfa      	ldrb	r2, [r7, #15]
 8003978:	ea4f 02c2 	mov.w	r2, r2, lsl #3
 800397c:	f102 0203 	add.w	r2, r2, #3
 8003980:	f04f 001f 	mov.w	r0, #31
 8003984:	fa00 f202 	lsl.w	r2, r0, r2
 8003988:	ea6f 0202 	mvn.w	r2, r2
 800398c:	400a      	ands	r2, r1
 800398e:	611a      	str	r2, [r3, #16]
    Handle->PortRegs->IOCR0 |=  (uint32_t)(((uint32_t)Mode & 0x1FUL) << (3U+(Pin*8U)));
 8003990:	687b      	ldr	r3, [r7, #4]
 8003992:	685b      	ldr	r3, [r3, #4]
 8003994:	687a      	ldr	r2, [r7, #4]
 8003996:	6852      	ldr	r2, [r2, #4]
 8003998:	6911      	ldr	r1, [r2, #16]
 800399a:	78fa      	ldrb	r2, [r7, #3]
 800399c:	f002 001f 	and.w	r0, r2, #31
 80039a0:	7bfa      	ldrb	r2, [r7, #15]
 80039a2:	ea4f 02c2 	mov.w	r2, r2, lsl #3
 80039a6:	f102 0203 	add.w	r2, r2, #3
 80039aa:	fa00 f202 	lsl.w	r2, r0, r2
 80039ae:	430a      	orrs	r2, r1
 80039b0:	611a      	str	r2, [r3, #16]
 80039b2:	e088      	b.n	8003ac6 <IO004_EnableOutputDriver+0x172>
  } else if ((Pin >= 4U) && (Pin <= 7U))
 80039b4:	7bfb      	ldrb	r3, [r7, #15]
 80039b6:	2b03      	cmp	r3, #3
 80039b8:	d92a      	bls.n	8003a10 <IO004_EnableOutputDriver+0xbc>
 80039ba:	7bfb      	ldrb	r3, [r7, #15]
 80039bc:	2b07      	cmp	r3, #7
 80039be:	d827      	bhi.n	8003a10 <IO004_EnableOutputDriver+0xbc>
  {
    Pin = Pin - 4U;
 80039c0:	7bfb      	ldrb	r3, [r7, #15]
 80039c2:	f1a3 0304 	sub.w	r3, r3, #4
 80039c6:	73fb      	strb	r3, [r7, #15]
    Handle->PortRegs->IOCR4  =  (uint32_t)(Handle->PortRegs->IOCR4 & ~(0x0000001FUL << (3U+(Pin*8U))));
 80039c8:	687b      	ldr	r3, [r7, #4]
 80039ca:	685b      	ldr	r3, [r3, #4]
 80039cc:	687a      	ldr	r2, [r7, #4]
 80039ce:	6852      	ldr	r2, [r2, #4]
 80039d0:	6951      	ldr	r1, [r2, #20]
 80039d2:	7bfa      	ldrb	r2, [r7, #15]
 80039d4:	ea4f 02c2 	mov.w	r2, r2, lsl #3
 80039d8:	f102 0203 	add.w	r2, r2, #3
 80039dc:	f04f 001f 	mov.w	r0, #31
 80039e0:	fa00 f202 	lsl.w	r2, r0, r2
 80039e4:	ea6f 0202 	mvn.w	r2, r2
 80039e8:	400a      	ands	r2, r1
 80039ea:	615a      	str	r2, [r3, #20]
    Handle->PortRegs->IOCR4 |=  (uint32_t)(((uint32_t)Mode & 0x1FUL) << (3U+(Pin*8U)));
 80039ec:	687b      	ldr	r3, [r7, #4]
 80039ee:	685b      	ldr	r3, [r3, #4]
 80039f0:	687a      	ldr	r2, [r7, #4]
 80039f2:	6852      	ldr	r2, [r2, #4]
 80039f4:	6951      	ldr	r1, [r2, #20]
 80039f6:	78fa      	ldrb	r2, [r7, #3]
 80039f8:	f002 001f 	and.w	r0, r2, #31
 80039fc:	7bfa      	ldrb	r2, [r7, #15]
 80039fe:	ea4f 02c2 	mov.w	r2, r2, lsl #3
 8003a02:	f102 0203 	add.w	r2, r2, #3
 8003a06:	fa00 f202 	lsl.w	r2, r0, r2
 8003a0a:	430a      	orrs	r2, r1
 8003a0c:	615a      	str	r2, [r3, #20]
 8003a0e:	e05a      	b.n	8003ac6 <IO004_EnableOutputDriver+0x172>
  } else if ((Pin >= 8U) && (Pin <= 11U))
 8003a10:	7bfb      	ldrb	r3, [r7, #15]
 8003a12:	2b07      	cmp	r3, #7
 8003a14:	d92a      	bls.n	8003a6c <IO004_EnableOutputDriver+0x118>
 8003a16:	7bfb      	ldrb	r3, [r7, #15]
 8003a18:	2b0b      	cmp	r3, #11
 8003a1a:	d827      	bhi.n	8003a6c <IO004_EnableOutputDriver+0x118>
  {
    Pin = Pin - 8U;
 8003a1c:	7bfb      	ldrb	r3, [r7, #15]
 8003a1e:	f1a3 0308 	sub.w	r3, r3, #8
 8003a22:	73fb      	strb	r3, [r7, #15]
    Handle->PortRegs->IOCR8  =  (uint32_t)(Handle->PortRegs->IOCR8 & ~(0x0000001FUL << (3U+(Pin*8U))));
 8003a24:	687b      	ldr	r3, [r7, #4]
 8003a26:	685b      	ldr	r3, [r3, #4]
 8003a28:	687a      	ldr	r2, [r7, #4]
 8003a2a:	6852      	ldr	r2, [r2, #4]
 8003a2c:	6991      	ldr	r1, [r2, #24]
 8003a2e:	7bfa      	ldrb	r2, [r7, #15]
 8003a30:	ea4f 02c2 	mov.w	r2, r2, lsl #3
 8003a34:	f102 0203 	add.w	r2, r2, #3
 8003a38:	f04f 001f 	mov.w	r0, #31
 8003a3c:	fa00 f202 	lsl.w	r2, r0, r2
 8003a40:	ea6f 0202 	mvn.w	r2, r2
 8003a44:	400a      	ands	r2, r1
 8003a46:	619a      	str	r2, [r3, #24]
    Handle->PortRegs->IOCR8 |=  (uint32_t)(((uint32_t)Mode & 0x1FUL) << (3U+(Pin*8U)));
 8003a48:	687b      	ldr	r3, [r7, #4]
 8003a4a:	685b      	ldr	r3, [r3, #4]
 8003a4c:	687a      	ldr	r2, [r7, #4]
 8003a4e:	6852      	ldr	r2, [r2, #4]
 8003a50:	6991      	ldr	r1, [r2, #24]
 8003a52:	78fa      	ldrb	r2, [r7, #3]
 8003a54:	f002 001f 	and.w	r0, r2, #31
 8003a58:	7bfa      	ldrb	r2, [r7, #15]
 8003a5a:	ea4f 02c2 	mov.w	r2, r2, lsl #3
 8003a5e:	f102 0203 	add.w	r2, r2, #3
 8003a62:	fa00 f202 	lsl.w	r2, r0, r2
 8003a66:	430a      	orrs	r2, r1
 8003a68:	619a      	str	r2, [r3, #24]
 8003a6a:	e02c      	b.n	8003ac6 <IO004_EnableOutputDriver+0x172>
  } else if ((Pin >= 12U) && (Pin <= 15U))
 8003a6c:	7bfb      	ldrb	r3, [r7, #15]
 8003a6e:	2b0b      	cmp	r3, #11
 8003a70:	d929      	bls.n	8003ac6 <IO004_EnableOutputDriver+0x172>
 8003a72:	7bfb      	ldrb	r3, [r7, #15]
 8003a74:	2b0f      	cmp	r3, #15
 8003a76:	d826      	bhi.n	8003ac6 <IO004_EnableOutputDriver+0x172>
  {
    Pin = Pin - 12U;
 8003a78:	7bfb      	ldrb	r3, [r7, #15]
 8003a7a:	f1a3 030c 	sub.w	r3, r3, #12
 8003a7e:	73fb      	strb	r3, [r7, #15]
    Handle->PortRegs->IOCR12  =  (uint32_t)(Handle->PortRegs->IOCR12 & ~(0x0000001FUL << (3U+(Pin*8U))));
 8003a80:	687b      	ldr	r3, [r7, #4]
 8003a82:	685b      	ldr	r3, [r3, #4]
 8003a84:	687a      	ldr	r2, [r7, #4]
 8003a86:	6852      	ldr	r2, [r2, #4]
 8003a88:	69d1      	ldr	r1, [r2, #28]
 8003a8a:	7bfa      	ldrb	r2, [r7, #15]
 8003a8c:	ea4f 02c2 	mov.w	r2, r2, lsl #3
 8003a90:	f102 0203 	add.w	r2, r2, #3
 8003a94:	f04f 001f 	mov.w	r0, #31
 8003a98:	fa00 f202 	lsl.w	r2, r0, r2
 8003a9c:	ea6f 0202 	mvn.w	r2, r2
 8003aa0:	400a      	ands	r2, r1
 8003aa2:	61da      	str	r2, [r3, #28]
    Handle->PortRegs->IOCR12 |=  (uint32_t)(((uint32_t)Mode & 0x1FUL) << (3U+(Pin*8U)));
 8003aa4:	687b      	ldr	r3, [r7, #4]
 8003aa6:	685b      	ldr	r3, [r3, #4]
 8003aa8:	687a      	ldr	r2, [r7, #4]
 8003aaa:	6852      	ldr	r2, [r2, #4]
 8003aac:	69d1      	ldr	r1, [r2, #28]
 8003aae:	78fa      	ldrb	r2, [r7, #3]
 8003ab0:	f002 001f 	and.w	r0, r2, #31
 8003ab4:	7bfa      	ldrb	r2, [r7, #15]
 8003ab6:	ea4f 02c2 	mov.w	r2, r2, lsl #3
 8003aba:	f102 0203 	add.w	r2, r2, #3
 8003abe:	fa00 f202 	lsl.w	r2, r0, r2
 8003ac2:	430a      	orrs	r2, r1
 8003ac4:	61da      	str	r2, [r3, #28]
  }
  else
  {
	  /*Not supposed to be here */
  }
}
 8003ac6:	f107 0714 	add.w	r7, r7, #20
 8003aca:	46bd      	mov	sp, r7
 8003acc:	bc80      	pop	{r7}
 8003ace:	4770      	bx	lr

08003ad0 <NVIC_SetPriorityGrouping>:
  priority bits (__NVIC_PRIO_BITS), the smallest possible priority group is set.

    \param [in]      PriorityGroup  Priority grouping field.
 */
__STATIC_INLINE void NVIC_SetPriorityGrouping(uint32_t PriorityGroup)
{
 8003ad0:	b480      	push	{r7}
 8003ad2:	b085      	sub	sp, #20
 8003ad4:	af00      	add	r7, sp, #0
 8003ad6:	6078      	str	r0, [r7, #4]
  uint32_t reg_value;
  uint32_t PriorityGroupTmp = (PriorityGroup & (uint32_t)0x07);               /* only values 0..7 are used          */
 8003ad8:	687b      	ldr	r3, [r7, #4]
 8003ada:	f003 0307 	and.w	r3, r3, #7
 8003ade:	60fb      	str	r3, [r7, #12]

  reg_value  =  SCB->AIRCR;                                                   /* read old register configuration    */
 8003ae0:	f44f 436d 	mov.w	r3, #60672	; 0xed00
 8003ae4:	f2ce 0300 	movt	r3, #57344	; 0xe000
 8003ae8:	68db      	ldr	r3, [r3, #12]
 8003aea:	60bb      	str	r3, [r7, #8]
  reg_value &= ~(SCB_AIRCR_VECTKEY_Msk | SCB_AIRCR_PRIGROUP_Msk);             /* clear bits to change               */
 8003aec:	68ba      	ldr	r2, [r7, #8]
 8003aee:	f64f 03ff 	movw	r3, #63743	; 0xf8ff
 8003af2:	4013      	ands	r3, r2
 8003af4:	60bb      	str	r3, [r7, #8]
  reg_value  =  (reg_value                                 |
                ((uint32_t)0x5FA << SCB_AIRCR_VECTKEY_Pos) |
                (PriorityGroupTmp << 8));                                     /* Insert write key and priorty group */
 8003af6:	68fb      	ldr	r3, [r7, #12]
 8003af8:	ea4f 2203 	mov.w	r2, r3, lsl #8
  uint32_t PriorityGroupTmp = (PriorityGroup & (uint32_t)0x07);               /* only values 0..7 are used          */

  reg_value  =  SCB->AIRCR;                                                   /* read old register configuration    */
  reg_value &= ~(SCB_AIRCR_VECTKEY_Msk | SCB_AIRCR_PRIGROUP_Msk);             /* clear bits to change               */
  reg_value  =  (reg_value                                 |
                ((uint32_t)0x5FA << SCB_AIRCR_VECTKEY_Pos) |
 8003afc:	68bb      	ldr	r3, [r7, #8]
 8003afe:	4313      	orrs	r3, r2
  uint32_t reg_value;
  uint32_t PriorityGroupTmp = (PriorityGroup & (uint32_t)0x07);               /* only values 0..7 are used          */

  reg_value  =  SCB->AIRCR;                                                   /* read old register configuration    */
  reg_value &= ~(SCB_AIRCR_VECTKEY_Msk | SCB_AIRCR_PRIGROUP_Msk);             /* clear bits to change               */
  reg_value  =  (reg_value                                 |
 8003b00:	f043 63bf 	orr.w	r3, r3, #100139008	; 0x5f80000
 8003b04:	f443 3300 	orr.w	r3, r3, #131072	; 0x20000
 8003b08:	60bb      	str	r3, [r7, #8]
                ((uint32_t)0x5FA << SCB_AIRCR_VECTKEY_Pos) |
                (PriorityGroupTmp << 8));                                     /* Insert write key and priorty group */
  SCB->AIRCR =  reg_value;
 8003b0a:	f44f 436d 	mov.w	r3, #60672	; 0xed00
 8003b0e:	f2ce 0300 	movt	r3, #57344	; 0xe000
 8003b12:	68ba      	ldr	r2, [r7, #8]
 8003b14:	60da      	str	r2, [r3, #12]
}
 8003b16:	f107 0714 	add.w	r7, r7, #20
 8003b1a:	46bd      	mov	sp, r7
 8003b1c:	bc80      	pop	{r7}
 8003b1e:	4770      	bx	lr

08003b20 <DAVE_Init>:
// @Parameters    None
//
//****************************************************************************

void DAVE_Init(void)
{
 8003b20:	b580      	push	{r7, lr}
 8003b22:	af00      	add	r7, sp, #0
          
    //  NVIC Priority Grouping
    NVIC_SetPriorityGrouping(1);
 8003b24:	f04f 0001 	mov.w	r0, #1
 8003b28:	f7ff ffd2 	bl	8003ad0 <NVIC_SetPriorityGrouping>

//****************************************************************************
// @Initialization of APPs Init Functions
//****************************************************************************
	//  MUX configurations
	DAVE_MUX_PreInit(); 
 8003b2c:	f000 f90c 	bl	8003d48 <DAVE_MUX_PreInit>
	//  Initialization of app 'IO004'		     
	IO004_Init();
 8003b30:	f7ff fc38 	bl	80033a4 <IO004_Init>
	 
	//  Initialization of app 'CLK001'		     
	CLK001_Init();
 8003b34:	f000 fb8e 	bl	8004254 <CLK001_Init>
	 
	//  Initialization of app 'UART001'		     
	UART001_Init();
 8003b38:	f7ff f916 	bl	8002d68 <UART001_Init>
	
      
	//  MUX configurations
	DAVE_MUX_Init();	
 8003b3c:	f000 f808 	bl	8003b50 <DAVE_MUX_Init>
} //  End of function DAVE_Init
 8003b40:	bd80      	pop	{r7, pc}
 8003b42:	bf00      	nop

08003b44 <SystemInit_DAVE3>:
// @Parameters    None
//
//****************************************************************************

void SystemInit_DAVE3(void)
{
 8003b44:	b580      	push	{r7, lr}
 8003b46:	af00      	add	r7, sp, #0
	// CLK Initialisation
	CLK001_Init();
 8003b48:	f000 fb84 	bl	8004254 <CLK001_Init>
} //  End of function SystemInit_DAVE3
 8003b4c:	bd80      	pop	{r7, pc}
 8003b4e:	bf00      	nop

08003b50 <DAVE_MUX_Init>:
** Description      : This is the Mux configuration                           **
**                                                                            **
*******************************************************************************/
           
void DAVE_MUX_Init(void)
{  
 8003b50:	b480      	push	{r7}
 8003b52:	b087      	sub	sp, #28
 8003b54:	af00      	add	r7, sp, #0
//********* MODULE USIC CONFIGURATIONS *************************	        
        
           
   /* Disable mode before configuring all USIC registers to avoid unintended edges */   
      /* Variable to store the CCR_MODE values for various USIC channels */ 
      uint32_t UsicCcrMode[6] = {0};
 8003b56:	463b      	mov	r3, r7
 8003b58:	f04f 0200 	mov.w	r2, #0
 8003b5c:	601a      	str	r2, [r3, #0]
 8003b5e:	f103 0304 	add.w	r3, r3, #4
 8003b62:	f04f 0200 	mov.w	r2, #0
 8003b66:	601a      	str	r2, [r3, #0]
 8003b68:	f103 0304 	add.w	r3, r3, #4
 8003b6c:	f04f 0200 	mov.w	r2, #0
 8003b70:	601a      	str	r2, [r3, #0]
 8003b72:	f103 0304 	add.w	r3, r3, #4
 8003b76:	f04f 0200 	mov.w	r2, #0
 8003b7a:	601a      	str	r2, [r3, #0]
 8003b7c:	f103 0304 	add.w	r3, r3, #4
 8003b80:	f04f 0200 	mov.w	r2, #0
 8003b84:	601a      	str	r2, [r3, #0]
 8003b86:	f103 0304 	add.w	r3, r3, #4
 8003b8a:	f04f 0200 	mov.w	r2, #0
 8003b8e:	601a      	str	r2, [r3, #0]
 8003b90:	f103 0304 	add.w	r3, r3, #4
                 
    UsicCcrMode[2] |= (uint32_t) RD_REG(USIC1_CH0->CCR, USIC_CH_CCR_MODE_Msk, USIC_CH_CCR_MODE_Pos);   
 8003b94:	68ba      	ldr	r2, [r7, #8]
 8003b96:	f04f 0300 	mov.w	r3, #0
 8003b9a:	f6c4 0302 	movt	r3, #18434	; 0x4802
 8003b9e:	6c1b      	ldr	r3, [r3, #64]	; 0x40
 8003ba0:	f003 030f 	and.w	r3, r3, #15
 8003ba4:	4313      	orrs	r3, r2
 8003ba6:	60bb      	str	r3, [r7, #8]
    WR_REG(USIC1_CH0->CCR, USIC_CH_CCR_MODE_Msk, USIC_CH_CCR_MODE_Pos,0);
 8003ba8:	f04f 0300 	mov.w	r3, #0
 8003bac:	f6c4 0302 	movt	r3, #18434	; 0x4802
 8003bb0:	f04f 0200 	mov.w	r2, #0
 8003bb4:	f6c4 0202 	movt	r2, #18434	; 0x4802
 8003bb8:	6c12      	ldr	r2, [r2, #64]	; 0x40
 8003bba:	f022 020f 	bic.w	r2, r2, #15
 8003bbe:	641a      	str	r2, [r3, #64]	; 0x40
   /*USIC 0 Channel 0 Mux Related SFR/Bitfields Configurations*/ 									  					 				 				 		       				              				  					    					 					   				  					 				 				       				  										 									 					 					  									      					              					  						    					      
       						
   /*USIC 0 Channel 1 Mux Related SFR/Bitfields Configurations*/ 									  					 				 				 		       				              				  					    					 					   				  					 				 				       				  										 									 					 					  									      					              					  						    					      
         						
   /*USIC 1 Channel 0 Mux Related SFR/Bitfields Configurations*/ 						         
 WR_REG(USIC1_CH0->DX0CR, USIC_CH_DX0CR_DSEL_Msk, USIC_CH_DX0CR_DSEL_Pos,1); 
 8003bc0:	f04f 0300 	mov.w	r3, #0
 8003bc4:	f6c4 0302 	movt	r3, #18434	; 0x4802
 8003bc8:	f04f 0200 	mov.w	r2, #0
 8003bcc:	f6c4 0202 	movt	r2, #18434	; 0x4802
 8003bd0:	69d2      	ldr	r2, [r2, #28]
 8003bd2:	f022 0207 	bic.w	r2, r2, #7
 8003bd6:	f042 0201 	orr.w	r2, r2, #1
 8003bda:	61da      	str	r2, [r3, #28]
  			  					 				 				 		       				              				  					    					 					   				  					 				 				       				  										 									 					 					  									      					              					  						    					      
                 
   // Data Pointer & Buffer Size for Transmitter Buffer Control  
 WR_REG(USIC1_CH0->TBCTR, USIC_CH_TBCTR_DPTRSIZE_Msk, USIC_CH_TBCTR_DPTRSIZE_Pos,0x01000002);		/*    DPTR = 2,  SIZE = 1 */ 
 8003bdc:	f04f 0300 	mov.w	r3, #0
 8003be0:	f6c4 0302 	movt	r3, #18434	; 0x4802
 8003be4:	f04f 0200 	mov.w	r2, #0
 8003be8:	f6c4 0202 	movt	r2, #18434	; 0x4802
 8003bec:	f8d2 2108 	ldr.w	r2, [r2, #264]	; 0x108
 8003bf0:	f022 62e0 	bic.w	r2, r2, #117440512	; 0x7000000
 8003bf4:	f022 023f 	bic.w	r2, r2, #63	; 0x3f
 8003bf8:	f042 7280 	orr.w	r2, r2, #16777216	; 0x1000000
 8003bfc:	f042 0202 	orr.w	r2, r2, #2
 8003c00:	f8c3 2108 	str.w	r2, [r3, #264]	; 0x108
         
  // Data Pointer & Buffer Size for Receiver Buffer Control  
 WR_REG(USIC1_CH0->RBCTR, USIC_CH_RBCTR_DPTRSIZE_Msk, USIC_CH_RBCTR_DPTRSIZE_Pos,0x01000000);		/*    DPTR = 0,  SIZE = 1 */ 
 8003c04:	f04f 0300 	mov.w	r3, #0
 8003c08:	f6c4 0302 	movt	r3, #18434	; 0x4802
 8003c0c:	f04f 0200 	mov.w	r2, #0
 8003c10:	f6c4 0202 	movt	r2, #18434	; 0x4802
 8003c14:	f8d2 210c 	ldr.w	r2, [r2, #268]	; 0x10c
 8003c18:	f022 62e0 	bic.w	r2, r2, #117440512	; 0x7000000
 8003c1c:	f022 023f 	bic.w	r2, r2, #63	; 0x3f
 8003c20:	f042 7280 	orr.w	r2, r2, #16777216	; 0x1000000
 8003c24:	f8c3 210c 	str.w	r2, [r3, #268]	; 0x10c
   /*USIC 2 Channel 1 Mux Related SFR/Bitfields Configurations*/ 									  					 				 				 		       				              				  					    					 					   				  					 				 				       				  										 									 					 					  									      					              					  						    					      
         
  
  /* Enable mode after configuring all USIC registers to avoid unintended edges */  
              
   WR_REG(USIC1_CH0->CCR, USIC_CH_CCR_MODE_Msk, USIC_CH_CCR_MODE_Pos,UsicCcrMode[2]);
 8003c28:	f04f 0300 	mov.w	r3, #0
 8003c2c:	f6c4 0302 	movt	r3, #18434	; 0x4802
 8003c30:	68ba      	ldr	r2, [r7, #8]
 8003c32:	f002 010f 	and.w	r1, r2, #15
 8003c36:	f04f 0200 	mov.w	r2, #0
 8003c3a:	f6c4 0202 	movt	r2, #18434	; 0x4802
 8003c3e:	6c12      	ldr	r2, [r2, #64]	; 0x40
 8003c40:	f022 020f 	bic.w	r2, r2, #15
 8003c44:	430a      	orrs	r2, r1
 8003c46:	641a      	str	r2, [r3, #64]	; 0x40
   	 
            	         
                                          

/*        PORT Macro definitions for IOCR_OE, IOCR_PCR & HWSEL_HW     */                                      
  WR_REG(PORT0->IOCR0, PORT_IOCR_PC0_OE_Msk, PORT_IOCR_PC0_OE_Pos, PORT_IOCR_OE1);                /*    P0.0 : PORT0_IOCR0_PC0_OE */					   
 8003c48:	f44f 4300 	mov.w	r3, #32768	; 0x8000
 8003c4c:	f6c4 0302 	movt	r3, #18434	; 0x4802
 8003c50:	f44f 4200 	mov.w	r2, #32768	; 0x8000
 8003c54:	f6c4 0202 	movt	r2, #18434	; 0x4802
 8003c58:	6912      	ldr	r2, [r2, #16]
 8003c5a:	f042 0280 	orr.w	r2, r2, #128	; 0x80
 8003c5e:	611a      	str	r2, [r3, #16]
					                         
  WR_REG(PORT0->IOCR0, PORT_IOCR_PC1_OE_Msk, PORT_IOCR_PC1_OE_Pos, PORT_IOCR_OE1);                /*    P0.1 : PORT0_IOCR0_PC1_OE */					   
 8003c60:	f44f 4300 	mov.w	r3, #32768	; 0x8000
 8003c64:	f6c4 0302 	movt	r3, #18434	; 0x4802
 8003c68:	f44f 4200 	mov.w	r2, #32768	; 0x8000
 8003c6c:	f6c4 0202 	movt	r2, #18434	; 0x4802
 8003c70:	6912      	ldr	r2, [r2, #16]
 8003c72:	f442 4200 	orr.w	r2, r2, #32768	; 0x8000
 8003c76:	611a      	str	r2, [r3, #16]
					                         
  WR_REG(PORT0->IOCR0, PORT_IOCR_PC2_OE_Msk, PORT_IOCR_PC2_OE_Pos, PORT_IOCR_OE1);                /*    P0.2 : PORT0_IOCR0_PC2_OE */					   
 8003c78:	f44f 4300 	mov.w	r3, #32768	; 0x8000
 8003c7c:	f6c4 0302 	movt	r3, #18434	; 0x4802
 8003c80:	f44f 4200 	mov.w	r2, #32768	; 0x8000
 8003c84:	f6c4 0202 	movt	r2, #18434	; 0x4802
 8003c88:	6912      	ldr	r2, [r2, #16]
 8003c8a:	f442 0200 	orr.w	r2, r2, #8388608	; 0x800000
 8003c8e:	611a      	str	r2, [r3, #16]
					                         
  WR_REG(PORT0->IOCR4, PORT_IOCR_PC0_OE_Msk, PORT_IOCR_PC0_OE_Pos, PORT_IOCR_OE1);                /*    P0.4 : PORT0_IOCR4_PC4_OE */					   
 8003c90:	f44f 4300 	mov.w	r3, #32768	; 0x8000
 8003c94:	f6c4 0302 	movt	r3, #18434	; 0x4802
 8003c98:	f44f 4200 	mov.w	r2, #32768	; 0x8000
 8003c9c:	f6c4 0202 	movt	r2, #18434	; 0x4802
 8003ca0:	6952      	ldr	r2, [r2, #20]
 8003ca2:	f042 0280 	orr.w	r2, r2, #128	; 0x80
 8003ca6:	615a      	str	r2, [r3, #20]
					                         
  WR_REG(PORT0->IOCR4, PORT_IOCR_PC2_OE_Msk, PORT_IOCR_PC2_OE_Pos, PORT_IOCR_OE1);                /*    P0.6 : PORT0_IOCR4_PC6_OE */					   
 8003ca8:	f44f 4300 	mov.w	r3, #32768	; 0x8000
 8003cac:	f6c4 0302 	movt	r3, #18434	; 0x4802
 8003cb0:	f44f 4200 	mov.w	r2, #32768	; 0x8000
 8003cb4:	f6c4 0202 	movt	r2, #18434	; 0x4802
 8003cb8:	6952      	ldr	r2, [r2, #20]
 8003cba:	f442 0200 	orr.w	r2, r2, #8388608	; 0x800000
 8003cbe:	615a      	str	r2, [r3, #20]
					                         
  WR_REG(PORT1->IOCR0, PORT_IOCR_PC0_OE_Msk, PORT_IOCR_PC0_OE_Pos, PORT_IOCR_OE1);                /*    P1.0 : PORT1_IOCR0_PC0_OE */					   
 8003cc0:	f44f 4301 	mov.w	r3, #33024	; 0x8100
 8003cc4:	f6c4 0302 	movt	r3, #18434	; 0x4802
 8003cc8:	f44f 4201 	mov.w	r2, #33024	; 0x8100
 8003ccc:	f6c4 0202 	movt	r2, #18434	; 0x4802
 8003cd0:	6912      	ldr	r2, [r2, #16]
 8003cd2:	f042 0280 	orr.w	r2, r2, #128	; 0x80
 8003cd6:	611a      	str	r2, [r3, #16]
					                         
  WR_REG(PORT1->IOCR0, PORT_IOCR_PC1_OE_Msk, PORT_IOCR_PC1_OE_Pos, PORT_IOCR_OE1);                /*    P1.1 : PORT1_IOCR0_PC1_OE */					   
 8003cd8:	f44f 4301 	mov.w	r3, #33024	; 0x8100
 8003cdc:	f6c4 0302 	movt	r3, #18434	; 0x4802
 8003ce0:	f44f 4201 	mov.w	r2, #33024	; 0x8100
 8003ce4:	f6c4 0202 	movt	r2, #18434	; 0x4802
 8003ce8:	6912      	ldr	r2, [r2, #16]
 8003cea:	f442 4200 	orr.w	r2, r2, #32768	; 0x8000
 8003cee:	611a      	str	r2, [r3, #16]
					                         
  WR_REG(PORT2->IOCR12, 0xb80000U, PORT_IOCR_PC2_PCR_Pos, 0x12U);                /*P2.14 : PORT2_IOCR12_PC14_PCR and PORT2_IOCR12_PC14_OE */					   
 8003cf0:	f44f 4302 	mov.w	r3, #33280	; 0x8200
 8003cf4:	f6c4 0302 	movt	r3, #18434	; 0x4802
 8003cf8:	f44f 4202 	mov.w	r2, #33280	; 0x8200
 8003cfc:	f6c4 0202 	movt	r2, #18434	; 0x4802
 8003d00:	69d2      	ldr	r2, [r2, #28]
 8003d02:	f422 0238 	bic.w	r2, r2, #12058624	; 0xb80000
 8003d06:	f442 0210 	orr.w	r2, r2, #9437184	; 0x900000
 8003d0a:	61da      	str	r2, [r3, #28]
					                         
  WR_REG(PORT3->IOCR0, PORT_IOCR_PC0_OE_Msk, PORT_IOCR_PC0_OE_Pos, PORT_IOCR_OE1);                /*    P3.0 : PORT3_IOCR0_PC0_OE */					   
 8003d0c:	f44f 4303 	mov.w	r3, #33536	; 0x8300
 8003d10:	f6c4 0302 	movt	r3, #18434	; 0x4802
 8003d14:	f44f 4203 	mov.w	r2, #33536	; 0x8300
 8003d18:	f6c4 0202 	movt	r2, #18434	; 0x4802
 8003d1c:	6912      	ldr	r2, [r2, #16]
 8003d1e:	f042 0280 	orr.w	r2, r2, #128	; 0x80
 8003d22:	611a      	str	r2, [r3, #16]
					                         
  WR_REG(PORT3->IOCR4, PORT_IOCR_PC0_OE_Msk, PORT_IOCR_PC0_OE_Pos, PORT_IOCR_OE1);                /*    P3.4 : PORT3_IOCR4_PC4_OE */					   
 8003d24:	f44f 4303 	mov.w	r3, #33536	; 0x8300
 8003d28:	f6c4 0302 	movt	r3, #18434	; 0x4802
 8003d2c:	f44f 4203 	mov.w	r2, #33536	; 0x8300
 8003d30:	f6c4 0202 	movt	r2, #18434	; 0x4802
 8003d34:	6952      	ldr	r2, [r2, #20]
 8003d36:	f042 0280 	orr.w	r2, r2, #128	; 0x80
 8003d3a:	615a      	str	r2, [r3, #20]
					      
}
 8003d3c:	f107 071c 	add.w	r7, r7, #28
 8003d40:	46bd      	mov	sp, r7
 8003d42:	bc80      	pop	{r7}
 8003d44:	4770      	bx	lr
 8003d46:	bf00      	nop

08003d48 <DAVE_MUX_PreInit>:
** Description      : This is the Mux configuration                           **
**                                                                            **
*******************************************************************************/
 
void DAVE_MUX_PreInit(void)
{        
 8003d48:	b480      	push	{r7}
 8003d4a:	af00      	add	r7, sp, #0

/*        PORT Macro definitions for IOCR_OE, IOCR_PCR & HWSEL_HW     */                   
}
 8003d4c:	46bd      	mov	sp, r7
 8003d4e:	bc80      	pop	{r7}
 8003d50:	4770      	bx	lr
 8003d52:	bf00      	nop

08003d54 <CLK001_Delay>:
  * @note   -  
  * @param  number of loops
  * @retval None
  */
static void CLK001_Delay(uint32_t time_1)
{
 8003d54:	b480      	push	{r7}
 8003d56:	b085      	sub	sp, #20
 8003d58:	af00      	add	r7, sp, #0
 8003d5a:	6078      	str	r0, [r7, #4]
  volatile uint32_t i;
  for(i=0UL; i < time_1;i++)
 8003d5c:	f04f 0300 	mov.w	r3, #0
 8003d60:	60fb      	str	r3, [r7, #12]
 8003d62:	e007      	b.n	8003d74 <CLK001_Delay+0x20>
 8003d64:	bf00      	nop
 8003d66:	bf00      	nop
 8003d68:	bf00      	nop
 8003d6a:	bf00      	nop
 8003d6c:	68fb      	ldr	r3, [r7, #12]
 8003d6e:	f103 0301 	add.w	r3, r3, #1
 8003d72:	60fb      	str	r3, [r7, #12]
 8003d74:	68fa      	ldr	r2, [r7, #12]
 8003d76:	687b      	ldr	r3, [r7, #4]
 8003d78:	429a      	cmp	r2, r3
 8003d7a:	d3f3      	bcc.n	8003d64 <CLK001_Delay+0x10>
  {
    __NOP();__NOP();__NOP();__NOP();
  }
}
 8003d7c:	f107 0714 	add.w	r7, r7, #20
 8003d80:	46bd      	mov	sp, r7
 8003d82:	bc80      	pop	{r7}
 8003d84:	4770      	bx	lr
 8003d86:	bf00      	nop

08003d88 <CLK001_SysClk_Valid>:
  * @note   -  
  * @param  None
  * @retval PASS/FAIL
  */
static uint32_t CLK001_SysClk_Valid(void)
{
 8003d88:	b480      	push	{r7}
 8003d8a:	b083      	sub	sp, #12
 8003d8c:	af00      	add	r7, sp, #0
  uint32_t MAIN_clock_status = 1UL;
 8003d8e:	f04f 0301 	mov.w	r3, #1
 8003d92:	607b      	str	r3, [r7, #4]

  /* check if PLL is switched on */
  if((SCU_PLL->PLLCON0 & (SCU_PLL_PLLCON0_VCOPWD_Msk | 
 8003d94:	f244 7310 	movw	r3, #18192	; 0x4710
 8003d98:	f2c5 0300 	movt	r3, #20480	; 0x5000
 8003d9c:	685a      	ldr	r2, [r3, #4]
 8003d9e:	f04f 0302 	mov.w	r3, #2
 8003da2:	f2c0 0301 	movt	r3, #1
 8003da6:	4013      	ands	r3, r2
 8003da8:	2b00      	cmp	r3, #0
 8003daa:	d002      	beq.n	8003db2 <CLK001_SysClk_Valid+0x2a>
      SCU_PLL_PLLCON0_PLLPWD_Msk))!= 0UL)
  {
    MAIN_clock_status=0UL;
 8003dac:	f04f 0300 	mov.w	r3, #0
 8003db0:	607b      	str	r3, [r7, #4]
  }
  return(MAIN_clock_status);
 8003db2:	687b      	ldr	r3, [r7, #4]
}
 8003db4:	4618      	mov	r0, r3
 8003db6:	f107 070c 	add.w	r7, r7, #12
 8003dba:	46bd      	mov	sp, r7
 8003dbc:	bc80      	pop	{r7}
 8003dbe:	4770      	bx	lr

08003dc0 <CLK001_BackupClkTrim>:

static void CLK001_BackupClkTrim (void)
{
 8003dc0:	b580      	push	{r7, lr}
 8003dc2:	af00      	add	r7, sp, #0
  #if ((CLK001_TRIM_OPTION == CLK001_CLOCK_TRIM_AUTOMATIC) && \
       (CLK001_STANDBY_CLOCK == CLK001_HIB_CLOCK_FOSI))
  {
    /* check if HIB Domain enabled  */
    if((SCU_POWER->PWRSTAT & SCU_POWER_PWRSTAT_HIBEN_Msk) == 0UL)
 8003dc4:	f44f 4384 	mov.w	r3, #16896	; 0x4200
 8003dc8:	f2c5 0300 	movt	r3, #20480	; 0x5000
 8003dcc:	681b      	ldr	r3, [r3, #0]
 8003dce:	f003 0301 	and.w	r3, r3, #1
 8003dd2:	2b00      	cmp	r3, #0
 8003dd4:	d10b      	bne.n	8003dee <CLK001_BackupClkTrim+0x2e>
    {
      /*enable Hibernate domain*/
      SCU_POWER->PWRSET |= (uint32_t)SCU_POWER_PWRSET_HIB_Msk;
 8003dd6:	f44f 4384 	mov.w	r3, #16896	; 0x4200
 8003dda:	f2c5 0300 	movt	r3, #20480	; 0x5000
 8003dde:	f44f 4284 	mov.w	r2, #16896	; 0x4200
 8003de2:	f2c5 0200 	movt	r2, #20480	; 0x5000
 8003de6:	6852      	ldr	r2, [r2, #4]
 8003de8:	f042 0201 	orr.w	r2, r2, #1
 8003dec:	605a      	str	r2, [r3, #4]
    }

    /* check if HIB Domain is not in reset state  */
    if ((SCU_RESET->RSTSTAT & SCU_RESET_RSTSTAT_HIBRS_Msk) != 0UL)
 8003dee:	f44f 4388 	mov.w	r3, #17408	; 0x4400
 8003df2:	f2c5 0300 	movt	r3, #20480	; 0x5000
 8003df6:	681b      	ldr	r3, [r3, #0]
 8003df8:	f403 7300 	and.w	r3, r3, #512	; 0x200
 8003dfc:	2b00      	cmp	r3, #0
 8003dfe:	d00b      	beq.n	8003e18 <CLK001_BackupClkTrim+0x58>
    {
	    /*de-assert hibernate reset*/
      SCU_RESET->RSTCLR |= (uint32_t)SCU_RESET_RSTCLR_HIBRS_Msk;
 8003e00:	f44f 4388 	mov.w	r3, #17408	; 0x4400
 8003e04:	f2c5 0300 	movt	r3, #20480	; 0x5000
 8003e08:	f44f 4288 	mov.w	r2, #17408	; 0x4400
 8003e0c:	f2c5 0200 	movt	r2, #20480	; 0x5000
 8003e10:	6892      	ldr	r2, [r2, #8]
 8003e12:	f442 7200 	orr.w	r2, r2, #512	; 0x200
 8003e16:	609a      	str	r2, [r3, #8]
    }

    SCU_PLL->PLLCON0 &= (uint32_t)~SCU_PLL_PLLCON0_FOTR_Msk;
 8003e18:	f244 7310 	movw	r3, #18192	; 0x4710
 8003e1c:	f2c5 0300 	movt	r3, #20480	; 0x5000
 8003e20:	f244 7210 	movw	r2, #18192	; 0x4710
 8003e24:	f2c5 0200 	movt	r2, #20480	; 0x5000
 8003e28:	6852      	ldr	r2, [r2, #4]
 8003e2a:	f422 1280 	bic.w	r2, r2, #1048576	; 0x100000
 8003e2e:	605a      	str	r2, [r3, #4]
    /*insert ~50us delay @ maximum back up clock freq */
    CLK001_Delay(CLK001_DELAY_CNT_50US_50MHZ);
 8003e30:	f04f 0064 	mov.w	r0, #100	; 0x64
 8003e34:	f7ff ff8e 	bl	8003d54 <CLK001_Delay>
    SCU_PLL->PLLCON0 |= (uint32_t)SCU_PLL_PLLCON0_AOTREN_Msk;
 8003e38:	f244 7310 	movw	r3, #18192	; 0x4710
 8003e3c:	f2c5 0300 	movt	r3, #20480	; 0x5000
 8003e40:	f244 7210 	movw	r2, #18192	; 0x4710
 8003e44:	f2c5 0200 	movt	r2, #20480	; 0x5000
 8003e48:	6852      	ldr	r2, [r2, #4]
 8003e4a:	f442 2200 	orr.w	r2, r2, #524288	; 0x80000
 8003e4e:	605a      	str	r2, [r3, #4]
  #else /*trimming option is factory trimming*/
  {
    SCU_PLL->PLLCON0 |= (uint32_t)SCU_PLL_PLLCON0_FOTR_Msk;
  }
  #endif /*end of trimming options*/
}
 8003e50:	bd80      	pop	{r7, pc}
 8003e52:	bf00      	nop

08003e54 <CLK001_SetMainPLLClkSrc>:

#if (CLK001_CLOCK_SYS_SRC == CLK001_CLOCK_SRC_PLL)
static uint32_t CLK001_SetMainPLLClkSrc(void)
{
 8003e54:	b580      	push	{r7, lr}
 8003e56:	b082      	sub	sp, #8
 8003e58:	af00      	add	r7, sp, #0
  uint32_t Return_status;
  Return_status = 1UL;
 8003e5a:	f04f 0301 	mov.w	r3, #1
 8003e5e:	607b      	str	r3, [r7, #4]
       (CLK001_PLL_CLOCK_INPUT != CLK001_CLOCK_BACK_UP_CLOCK)))
    uint32_t timeout_count;
  #endif
  
  /* enable PLL first */
  SCU_PLL->PLLCON0 &= (uint32_t)~(SCU_PLL_PLLCON0_VCOPWD_Msk | 
 8003e60:	f244 7310 	movw	r3, #18192	; 0x4710
 8003e64:	f2c5 0300 	movt	r3, #20480	; 0x5000
 8003e68:	f244 7210 	movw	r2, #18192	; 0x4710
 8003e6c:	f2c5 0200 	movt	r2, #20480	; 0x5000
 8003e70:	6852      	ldr	r2, [r2, #4]
 8003e72:	f422 3280 	bic.w	r2, r2, #65536	; 0x10000
 8003e76:	f022 0202 	bic.w	r2, r2, #2
 8003e7a:	605a      	str	r2, [r3, #4]
  {
    /************************************************************************/
    /*    Use external crystal or digital input for PLL clock input         */
    /************************************************************************/ 
    /* Enable OSC_HP if not already on */
    if ((SCU_OSC->OSCHPCTRL & SCU_OSC_OSCHPCTRL_MODE_Msk) != 
 8003e7c:	f44f 438e 	mov.w	r3, #18176	; 0x4700
 8003e80:	f2c5 0300 	movt	r3, #20480	; 0x5000
 8003e84:	685b      	ldr	r3, [r3, #4]
 8003e86:	f003 0330 	and.w	r3, r3, #48	; 0x30
 8003e8a:	2b00      	cmp	r3, #0
 8003e8c:	d054      	beq.n	8003f38 <CLK001_SetMainPLLClkSrc+0xe4>
        ((uint32_t)CLK001_OSC_HP_MODE << SCU_OSC_OSCHPCTRL_MODE_Pos))
    {
      /*The OSC HP mode is guaranteed to  be = 11b at this point
       * so we can just clear the bit(s) as per the selected mode
       */
      SCU_OSC->OSCHPCTRL &= (((uint32_t)(~SCU_OSC_OSCHPCTRL_MODE_Msk)) | 
 8003e8e:	f44f 438e 	mov.w	r3, #18176	; 0x4700
 8003e92:	f2c5 0300 	movt	r3, #20480	; 0x5000
 8003e96:	f44f 428e 	mov.w	r2, #18176	; 0x4700
 8003e9a:	f2c5 0200 	movt	r2, #20480	; 0x5000
 8003e9e:	6852      	ldr	r2, [r2, #4]
 8003ea0:	f022 0230 	bic.w	r2, r2, #48	; 0x30
 8003ea4:	605a      	str	r2, [r3, #4]
           ((uint32_t)CLK001_OSC_HP_MODE << SCU_OSC_OSCHPCTRL_MODE_Pos));

      /* setup OSC WDG divider - at this point the bitfield would be 0
         hence we can OR with the desired value*/
      SCU_OSC->OSCHPCTRL |= ((uint32_t)((CLK001_CLOCK_CRYSTAL_FREQUENCY /
 8003ea6:	f44f 438e 	mov.w	r3, #18176	; 0x4700
 8003eaa:	f2c5 0300 	movt	r3, #20480	; 0x5000
 8003eae:	f44f 428e 	mov.w	r2, #18176	; 0x4700
 8003eb2:	f2c5 0200 	movt	r2, #20480	; 0x5000
 8003eb6:	6852      	ldr	r2, [r2, #4]
 8003eb8:	f442 3240 	orr.w	r2, r2, #196608	; 0x30000
 8003ebc:	605a      	str	r2, [r3, #4]
                     CLK001_SOSCWDG_FREF)-1UL) << SCU_OSC_OSCHPCTRL_OSCVAL_Pos);
      /* select external OSC as PLL input */
      SCU_PLL->PLLCON2 &= (uint32_t)~SCU_PLL_PLLCON2_PINSEL_Msk;
 8003ebe:	f244 7310 	movw	r3, #18192	; 0x4710
 8003ec2:	f2c5 0300 	movt	r3, #20480	; 0x5000
 8003ec6:	f244 7210 	movw	r2, #18192	; 0x4710
 8003eca:	f2c5 0200 	movt	r2, #20480	; 0x5000
 8003ece:	68d2      	ldr	r2, [r2, #12]
 8003ed0:	f022 0201 	bic.w	r2, r2, #1
 8003ed4:	60da      	str	r2, [r3, #12]
      /* restart OSC Watchdog */
      SCU_PLL->PLLCON0 &= (uint32_t)~SCU_PLL_PLLCON0_OSCRES_Msk;
 8003ed6:	f244 7310 	movw	r3, #18192	; 0x4710
 8003eda:	f2c5 0300 	movt	r3, #20480	; 0x5000
 8003ede:	f244 7210 	movw	r2, #18192	; 0x4710
 8003ee2:	f2c5 0200 	movt	r2, #20480	; 0x5000
 8003ee6:	6852      	ldr	r2, [r2, #4]
 8003ee8:	f422 3200 	bic.w	r2, r2, #131072	; 0x20000
 8003eec:	605a      	str	r2, [r3, #4]

      /* approximate loop count for 150ms @ max untrimmed Backup clock freq*/
      timeout_count = CLK001_LOOP_CNT_150MS; 
 8003eee:	f244 6350 	movw	r3, #18000	; 0x4650
 8003ef2:	603b      	str	r3, [r7, #0]
      do 
      {
        /* time out after ~150ms  */
        CLK001_Delay(CLK001_DELAY_CNT_8US_50MHZ);
 8003ef4:	f04f 000a 	mov.w	r0, #10
 8003ef8:	f7ff ff2c 	bl	8003d54 <CLK001_Delay>
        timeout_count--;
 8003efc:	683b      	ldr	r3, [r7, #0]
 8003efe:	f103 33ff 	add.w	r3, r3, #4294967295
 8003f02:	603b      	str	r3, [r7, #0]
      }while((((SCU_PLL->PLLSTAT) & CLK001_PLLSTAT_OSC_USABLE_MASK) != 
 8003f04:	f244 7310 	movw	r3, #18192	; 0x4710
 8003f08:	f2c5 0300 	movt	r3, #20480	; 0x5000
 8003f0c:	681b      	ldr	r3, [r3, #0]
 8003f0e:	f403 7360 	and.w	r3, r3, #896	; 0x380
                CLK001_PLLSTAT_OSC_USABLE_MASK) && (timeout_count !=0UL));
 8003f12:	f5b3 7f60 	cmp.w	r3, #896	; 0x380
 8003f16:	d002      	beq.n	8003f1e <CLK001_SetMainPLLClkSrc+0xca>
 8003f18:	683b      	ldr	r3, [r7, #0]
 8003f1a:	2b00      	cmp	r3, #0
 8003f1c:	d1ea      	bne.n	8003ef4 <CLK001_SetMainPLLClkSrc+0xa0>

      if (((SCU_PLL->PLLSTAT) & CLK001_PLLSTAT_OSC_USABLE_MASK) != 
 8003f1e:	f244 7310 	movw	r3, #18192	; 0x4710
 8003f22:	f2c5 0300 	movt	r3, #20480	; 0x5000
 8003f26:	681b      	ldr	r3, [r3, #0]
 8003f28:	f403 7360 	and.w	r3, r3, #896	; 0x380
 8003f2c:	f5b3 7f60 	cmp.w	r3, #896	; 0x380
 8003f30:	d002      	beq.n	8003f38 <CLK001_SetMainPLLClkSrc+0xe4>
            CLK001_PLLSTAT_OSC_USABLE_MASK)
      {
        /* Return Error */
      	Return_status = 0UL;
 8003f32:	f04f 0300 	mov.w	r3, #0
 8003f36:	607b      	str	r3, [r7, #4]
    /*select Backup Clock as input to PLL*/
    SCU_PLL->PLLCON2 |= (uint32_t)SCU_PLL_PLLCON2_PINSEL_Msk;
  }
  #endif /*end of PLL clock source check */

  return Return_status;
 8003f38:	687b      	ldr	r3, [r7, #4]
}
 8003f3a:	4618      	mov	r0, r3
 8003f3c:	f107 0708 	add.w	r7, r7, #8
 8003f40:	46bd      	mov	sp, r7
 8003f42:	bd80      	pop	{r7, pc}

08003f44 <CLK001_ConfigMainPLL>:

static uint32_t CLK001_ConfigMainPLL (void)
{
 8003f44:	b580      	push	{r7, lr}
 8003f46:	b082      	sub	sp, #8
 8003f48:	af00      	add	r7, sp, #0
  uint32_t Return_status;
  Return_status = 1UL;
 8003f4a:	f04f 0301 	mov.w	r3, #1
 8003f4e:	607b      	str	r3, [r7, #4]
  /*   Setup and lock the main PLL (PLL is in normal mode)                  */
  /**************************************************************************/
  #if ((CLK001_CLOCK_SYS_SRC == CLK001_CLOCK_SRC_PLL) && \
       (CLK001_CLOCK_PLL_MODE == CLK001_CLOCK_PLL_NORMAL))
  {
    if ((SCU_PLL->PLLSTAT & SCU_PLL_PLLSTAT_VCOLOCK_Msk)!= 
 8003f50:	f244 7310 	movw	r3, #18192	; 0x4710
 8003f54:	f2c5 0300 	movt	r3, #20480	; 0x5000
 8003f58:	681b      	ldr	r3, [r3, #0]
 8003f5a:	f003 0304 	and.w	r3, r3, #4
 8003f5e:	2b00      	cmp	r3, #0
 8003f60:	f040 8097 	bne.w	8004092 <CLK001_ConfigMainPLL+0x14e>
      /* System is still running from Backup clock */ 
      /*Calculation for stepping*/
      #if((CLK001_PLL_CLOCK_INPUT == CLK001_CLOCK_CRYSTAL)||\
          (CLK001_PLL_CLOCK_INPUT == CLK001_CLOCK_EXT_CLOCK))
      {
        VCO = (CLK001_CLOCK_CRYSTAL_FREQUENCY/ 
 8003f64:	f240 035c 	movw	r3, #92	; 0x5c
 8003f68:	f2c2 0300 	movt	r3, #8192	; 0x2000
 8003f6c:	f44f 5260 	mov.w	r2, #14336	; 0x3800
 8003f70:	f6c1 429c 	movt	r2, #7324	; 0x1c9c
 8003f74:	601a      	str	r2, [r3, #0]
      {
        VCO = (CLK001_CLOCK_BACK_UP/(CLK001_PLL_PDIV+1UL))*(CLK001_PLL_NDIV+1UL);
      }
      #endif /*End of PLL clock source check in normal mode*/

      stepping_K2DIV = (VCO/CLK001_PLL_FREQ_STEP1)-1UL;
 8003f76:	f240 035c 	movw	r3, #92	; 0x5c
 8003f7a:	f2c2 0300 	movt	r3, #8192	; 0x2000
 8003f7e:	681a      	ldr	r2, [r3, #0]
 8003f80:	f649 7381 	movw	r3, #40833	; 0x9f81
 8003f84:	f2c1 635e 	movt	r3, #5726	; 0x165e
 8003f88:	fba3 1302 	umull	r1, r3, r3, r2
 8003f8c:	ea4f 5353 	mov.w	r3, r3, lsr #21
 8003f90:	f103 32ff 	add.w	r2, r3, #4294967295
 8003f94:	f240 0360 	movw	r3, #96	; 0x60
 8003f98:	f2c2 0300 	movt	r3, #8192	; 0x2000
 8003f9c:	601a      	str	r2, [r3, #0]
           
      /* Go to bypass the Main PLL */
      SCU_PLL->PLLCON0 |= (uint32_t)SCU_PLL_PLLCON0_VCOBYP_Msk;
 8003f9e:	f244 7310 	movw	r3, #18192	; 0x4710
 8003fa2:	f2c5 0300 	movt	r3, #20480	; 0x5000
 8003fa6:	f244 7210 	movw	r2, #18192	; 0x4710
 8003faa:	f2c5 0200 	movt	r2, #20480	; 0x5000
 8003fae:	6852      	ldr	r2, [r2, #4]
 8003fb0:	f042 0201 	orr.w	r2, r2, #1
 8003fb4:	605a      	str	r2, [r3, #4]
      /* disconnect Oscillator from PLL */
      SCU_PLL->PLLCON0 |= (uint32_t)SCU_PLL_PLLCON0_FINDIS_Msk;
 8003fb6:	f244 7310 	movw	r3, #18192	; 0x4710
 8003fba:	f2c5 0300 	movt	r3, #20480	; 0x5000
 8003fbe:	f244 7210 	movw	r2, #18192	; 0x4710
 8003fc2:	f2c5 0200 	movt	r2, #20480	; 0x5000
 8003fc6:	6852      	ldr	r2, [r2, #4]
 8003fc8:	f042 0210 	orr.w	r2, r2, #16
 8003fcc:	605a      	str	r2, [r3, #4]
      /* Setup divider settings for main PLL */
      SCU_PLL->PLLCON1 =(((uint32_t)CLK001_PLL_K1DIV) | 
 8003fce:	f244 7310 	movw	r3, #18192	; 0x4710
 8003fd2:	f2c5 0300 	movt	r3, #20480	; 0x5000
               ((uint32_t)CLK001_PLL_NDIV<<SCU_PLL_PLLCON1_NDIV_Pos) | 
               ((uint32_t)stepping_K2DIV<<SCU_PLL_PLLCON1_K2DIV_Pos) | 
 8003fd6:	f240 0260 	movw	r2, #96	; 0x60
 8003fda:	f2c2 0200 	movt	r2, #8192	; 0x2000
 8003fde:	6812      	ldr	r2, [r2, #0]
 8003fe0:	ea4f 4202 	mov.w	r2, r2, lsl #16
 8003fe4:	f442 521c 	orr.w	r2, r2, #9984	; 0x2700
      /* Go to bypass the Main PLL */
      SCU_PLL->PLLCON0 |= (uint32_t)SCU_PLL_PLLCON0_VCOBYP_Msk;
      /* disconnect Oscillator from PLL */
      SCU_PLL->PLLCON0 |= (uint32_t)SCU_PLL_PLLCON0_FINDIS_Msk;
      /* Setup divider settings for main PLL */
      SCU_PLL->PLLCON1 =(((uint32_t)CLK001_PLL_K1DIV) | 
 8003fe8:	609a      	str	r2, [r3, #8]
               ((uint32_t)CLK001_PLL_NDIV<<SCU_PLL_PLLCON1_NDIV_Pos) | 
               ((uint32_t)stepping_K2DIV<<SCU_PLL_PLLCON1_K2DIV_Pos) | 
               ((uint32_t)CLK001_PLL_PDIV<<SCU_PLL_PLLCON1_PDIV_Pos));
      /* Set OSCDISCDIS */
      SCU_PLL->PLLCON0 |= (uint32_t)SCU_PLL_PLLCON0_OSCDISCDIS_Msk;
 8003fea:	f244 7310 	movw	r3, #18192	; 0x4710
 8003fee:	f2c5 0300 	movt	r3, #20480	; 0x5000
 8003ff2:	f244 7210 	movw	r2, #18192	; 0x4710
 8003ff6:	f2c5 0200 	movt	r2, #20480	; 0x5000
 8003ffa:	6852      	ldr	r2, [r2, #4]
 8003ffc:	f042 0240 	orr.w	r2, r2, #64	; 0x40
 8004000:	605a      	str	r2, [r3, #4]
      /* connect Oscillator to PLL */
      SCU_PLL->PLLCON0 &= (uint32_t)~SCU_PLL_PLLCON0_FINDIS_Msk;
 8004002:	f244 7310 	movw	r3, #18192	; 0x4710
 8004006:	f2c5 0300 	movt	r3, #20480	; 0x5000
 800400a:	f244 7210 	movw	r2, #18192	; 0x4710
 800400e:	f2c5 0200 	movt	r2, #20480	; 0x5000
 8004012:	6852      	ldr	r2, [r2, #4]
 8004014:	f022 0210 	bic.w	r2, r2, #16
 8004018:	605a      	str	r2, [r3, #4]
      /* restart PLL Lock detection */
      SCU_PLL->PLLCON0 |= (uint32_t)SCU_PLL_PLLCON0_RESLD_Msk;
 800401a:	f244 7310 	movw	r3, #18192	; 0x4710
 800401e:	f2c5 0300 	movt	r3, #20480	; 0x5000
 8004022:	f244 7210 	movw	r2, #18192	; 0x4710
 8004026:	f2c5 0200 	movt	r2, #20480	; 0x5000
 800402a:	6852      	ldr	r2, [r2, #4]
 800402c:	f442 2280 	orr.w	r2, r2, #262144	; 0x40000
 8004030:	605a      	str	r2, [r3, #4]
      /* wait for PLL Lock */
      /* Timeout for wait loop ~150ms */
      /*approximate loop count for 150ms @ Backup Clock freq*/
      timeout_count = CLK001_LOOP_CNT_150MS;
 8004032:	f244 6350 	movw	r3, #18000	; 0x4650
 8004036:	603b      	str	r3, [r7, #0]
      do
      {
        CLK001_Delay(CLK001_DELAY_CNT_8US_50MHZ);  /*~8us Delay*/
 8004038:	f04f 000a 	mov.w	r0, #10
 800403c:	f7ff fe8a 	bl	8003d54 <CLK001_Delay>
        timeout_count--;
 8004040:	683b      	ldr	r3, [r7, #0]
 8004042:	f103 33ff 	add.w	r3, r3, #4294967295
 8004046:	603b      	str	r3, [r7, #0]
      } while (((SCU_PLL->PLLSTAT & SCU_PLL_PLLSTAT_VCOLOCK_Msk)!= 
 8004048:	f244 7310 	movw	r3, #18192	; 0x4710
 800404c:	f2c5 0300 	movt	r3, #20480	; 0x5000
 8004050:	681b      	ldr	r3, [r3, #0]
 8004052:	f003 0304 	and.w	r3, r3, #4
		             SCU_PLL_PLLSTAT_VCOLOCK_Msk)&& (timeout_count !=0UL));
 8004056:	2b00      	cmp	r3, #0
 8004058:	d102      	bne.n	8004060 <CLK001_ConfigMainPLL+0x11c>
 800405a:	683b      	ldr	r3, [r7, #0]
 800405c:	2b00      	cmp	r3, #0
 800405e:	d1eb      	bne.n	8004038 <CLK001_ConfigMainPLL+0xf4>

      if ((SCU_PLL->PLLSTAT & SCU_PLL_PLLSTAT_VCOLOCK_Msk)== 
 8004060:	f244 7310 	movw	r3, #18192	; 0x4710
 8004064:	f2c5 0300 	movt	r3, #20480	; 0x5000
 8004068:	681b      	ldr	r3, [r3, #0]
 800406a:	f003 0304 	and.w	r3, r3, #4
 800406e:	2b00      	cmp	r3, #0
 8004070:	d00c      	beq.n	800408c <CLK001_ConfigMainPLL+0x148>
           SCU_PLL_PLLSTAT_VCOLOCK_Msk)
      {
        /* Disable bypass- put PLL clock back */
        SCU_PLL->PLLCON0 &= (uint32_t)~SCU_PLL_PLLCON0_VCOBYP_Msk;
 8004072:	f244 7310 	movw	r3, #18192	; 0x4710
 8004076:	f2c5 0300 	movt	r3, #20480	; 0x5000
 800407a:	f244 7210 	movw	r2, #18192	; 0x4710
 800407e:	f2c5 0200 	movt	r2, #20480	; 0x5000
 8004082:	6852      	ldr	r2, [r2, #4]
 8004084:	f022 0201 	bic.w	r2, r2, #1
 8004088:	605a      	str	r2, [r3, #4]
 800408a:	e002      	b.n	8004092 <CLK001_ConfigMainPLL+0x14e>
      }
      else
      {
        Return_status =0UL;
 800408c:	f04f 0300 	mov.w	r3, #0
 8004090:	607b      	str	r3, [r7, #4]
    /* Setup K1 divider for main PLL */
    SCU_PLL->PLLCON1 = CLK001_PLL_K1DIV;
  }
  #endif /*end of Prescaler mode settings*/

  return Return_status;
 8004092:	687b      	ldr	r3, [r7, #4]
}
 8004094:	4618      	mov	r0, r3
 8004096:	f107 0708 	add.w	r7, r7, #8
 800409a:	46bd      	mov	sp, r7
 800409c:	bd80      	pop	{r7, pc}
 800409e:	bf00      	nop

080040a0 <CLK001_FreqStepupMainPLL>:

static uint32_t CLK001_FreqStepupMainPLL(void)
{
 80040a0:	b580      	push	{r7, lr}
 80040a2:	b082      	sub	sp, #8
 80040a4:	af00      	add	r7, sp, #0
  uint32_t Return_status;
  Return_status = 1UL;
 80040a6:	f04f 0301 	mov.w	r3, #1
 80040aa:	607b      	str	r3, [r7, #4]
	/***************************************************************************/
	#if ((CLK001_CLOCK_SYS_SRC == CLK001_CLOCK_SRC_PLL) && \
	     (CLK001_CLOCK_PLL_MODE == CLK001_CLOCK_PLL_NORMAL))
	{
	  /* Reset OSCDISCDIS */
	  SCU_PLL->PLLCON0 &= (uint32_t)~SCU_PLL_PLLCON0_OSCDISCDIS_Msk;
 80040ac:	f244 7310 	movw	r3, #18192	; 0x4710
 80040b0:	f2c5 0300 	movt	r3, #20480	; 0x5000
 80040b4:	f244 7210 	movw	r2, #18192	; 0x4710
 80040b8:	f2c5 0200 	movt	r2, #20480	; 0x5000
 80040bc:	6852      	ldr	r2, [r2, #4]
 80040be:	f022 0240 	bic.w	r2, r2, #64	; 0x40
 80040c2:	605a      	str	r2, [r3, #4]

    #if((CLK001_PLL_CLOCK_INPUT == CLK001_CLOCK_CRYSTAL)|| \
        (CLK001_PLL_CLOCK_INPUT == CLK001_CLOCK_EXT_CLOCK))
    {
      VCO = (CLK001_CLOCK_CRYSTAL_FREQUENCY/ 
 80040c4:	f240 035c 	movw	r3, #92	; 0x5c
 80040c8:	f2c2 0300 	movt	r3, #8192	; 0x2000
 80040cc:	f44f 5260 	mov.w	r2, #14336	; 0x3800
 80040d0:	f6c1 429c 	movt	r2, #7324	; 0x1c9c
 80040d4:	601a      	str	r2, [r3, #0]
	  #if (CLK001_CLOCK_FSYS > CLK001_PLL_FREQ_STEP2)
	  {
	    /*********************************************************/
	    /* Delay for next K2 step ~50s */
	    /*********************************************************/
	    CLK001_Delay(CLK001_DELAY_CNT_50US_50MHZ); /*~50us Backup clock*/
 80040d6:	f04f 0064 	mov.w	r0, #100	; 0x64
 80040da:	f7ff fe3b 	bl	8003d54 <CLK001_Delay>

	    /*calculation for stepping*/
	    stepping_K2DIV = (VCO/CLK001_PLL_FREQ_STEP2)-1UL;
 80040de:	f240 035c 	movw	r3, #92	; 0x5c
 80040e2:	f2c2 0300 	movt	r3, #8192	; 0x2000
 80040e6:	681b      	ldr	r3, [r3, #0]
 80040e8:	ea4f 2213 	mov.w	r2, r3, lsr #8
 80040ec:	f245 43c7 	movw	r3, #21703	; 0x54c7
 80040f0:	f2c0 131e 	movt	r3, #286	; 0x11e
 80040f4:	fba3 1302 	umull	r1, r3, r3, r2
 80040f8:	ea4f 2393 	mov.w	r3, r3, lsr #10
 80040fc:	f103 32ff 	add.w	r2, r3, #4294967295
 8004100:	f240 0360 	movw	r3, #96	; 0x60
 8004104:	f2c2 0300 	movt	r3, #8192	; 0x2000
 8004108:	601a      	str	r2, [r3, #0]

	    /*Setup divider settings for main PLL */
	    SCU_PLL->PLLCON1 =(((uint32_t)CLK001_PLL_K1DIV) | 
 800410a:	f244 7310 	movw	r3, #18192	; 0x4710
 800410e:	f2c5 0300 	movt	r3, #20480	; 0x5000
	               ((uint32_t)CLK001_PLL_NDIV<<SCU_PLL_PLLCON1_NDIV_Pos)|
	               ((uint32_t)stepping_K2DIV<<SCU_PLL_PLLCON1_K2DIV_Pos)|
 8004112:	f240 0260 	movw	r2, #96	; 0x60
 8004116:	f2c2 0200 	movt	r2, #8192	; 0x2000
 800411a:	6812      	ldr	r2, [r2, #0]
 800411c:	ea4f 4202 	mov.w	r2, r2, lsl #16
 8004120:	f442 521c 	orr.w	r2, r2, #9984	; 0x2700

	    /*calculation for stepping*/
	    stepping_K2DIV = (VCO/CLK001_PLL_FREQ_STEP2)-1UL;

	    /*Setup divider settings for main PLL */
	    SCU_PLL->PLLCON1 =(((uint32_t)CLK001_PLL_K1DIV) | 
 8004124:	609a      	str	r2, [r3, #8]
	  #if (CLK001_CLOCK_FSYS > CLK001_PLL_FREQ_STEP3)
	  {
	    /*********************************************************/
	    /* Delay for next K2 step ~50us */
	    /*********************************************************/
	    CLK001_Delay(CLK001_DELAY_CNT_50US_50MHZ); /*~50?s @ 60MHz clock*/
 8004126:	f04f 0064 	mov.w	r0, #100	; 0x64
 800412a:	f7ff fe13 	bl	8003d54 <CLK001_Delay>

	    /* calculation for stepping*/
	    stepping_K2DIV = (VCO/CLK001_PLL_FREQ_STEP3)-1UL;
 800412e:	f240 035c 	movw	r3, #92	; 0x5c
 8004132:	f2c2 0300 	movt	r3, #8192	; 0x2000
 8004136:	681b      	ldr	r3, [r3, #0]
 8004138:	ea4f 12d3 	mov.w	r2, r3, lsr #7
 800413c:	f24e 332f 	movw	r3, #58159	; 0xe32f
 8004140:	f2c0 03be 	movt	r3, #190	; 0xbe
 8004144:	fba3 1302 	umull	r1, r3, r3, r2
 8004148:	ea4f 23d3 	mov.w	r3, r3, lsr #11
 800414c:	f103 32ff 	add.w	r2, r3, #4294967295
 8004150:	f240 0360 	movw	r3, #96	; 0x60
 8004154:	f2c2 0300 	movt	r3, #8192	; 0x2000
 8004158:	601a      	str	r2, [r3, #0]

	    /* Setup Divider settings for main PLL */

	    SCU_PLL->PLLCON1 = (((uint32_t)CLK001_PLL_K1DIV) | 
 800415a:	f244 7310 	movw	r3, #18192	; 0x4710
 800415e:	f2c5 0300 	movt	r3, #20480	; 0x5000
	               ((uint32_t)CLK001_PLL_NDIV<<SCU_PLL_PLLCON1_NDIV_Pos)|
	               ((uint32_t)stepping_K2DIV<<SCU_PLL_PLLCON1_K2DIV_Pos)| 
 8004162:	f240 0260 	movw	r2, #96	; 0x60
 8004166:	f2c2 0200 	movt	r2, #8192	; 0x2000
 800416a:	6812      	ldr	r2, [r2, #0]
 800416c:	ea4f 4202 	mov.w	r2, r2, lsl #16
 8004170:	f442 521c 	orr.w	r2, r2, #9984	; 0x2700
	    /* calculation for stepping*/
	    stepping_K2DIV = (VCO/CLK001_PLL_FREQ_STEP3)-1UL;

	    /* Setup Divider settings for main PLL */

	    SCU_PLL->PLLCON1 = (((uint32_t)CLK001_PLL_K1DIV) | 
 8004174:	609a      	str	r2, [r3, #8]
	  #endif /*end of check if PLL target frequency is more than 90 MHz*/

	  /*********************************************************/
	  /* Delay for next K2 step ~50s */
	  /*********************************************************/
    CLK001_Delay(CLK001_DELAY_CNT_50US_90MHZ); /*~50us @ 90 MHz clock*/
 8004176:	f04f 0096 	mov.w	r0, #150	; 0x96
 800417a:	f7ff fdeb 	bl	8003d54 <CLK001_Delay>

    /* Setup Divider settings for main PLL */
	  SCU_PLL->PLLCON1 = (((uint32_t)CLK001_PLL_K1DIV) | 
 800417e:	f244 7310 	movw	r3, #18192	; 0x4710
 8004182:	f2c5 0300 	movt	r3, #20480	; 0x5000
 8004186:	f44f 521c 	mov.w	r2, #9984	; 0x2700
 800418a:	f2c0 0203 	movt	r2, #3
 800418e:	609a      	str	r2, [r3, #8]
	            ((uint32_t)CLK001_PLL_NDIV<<SCU_PLL_PLLCON1_NDIV_Pos)  | 
	            ((uint32_t)CLK001_PLL_K2DIV<<SCU_PLL_PLLCON1_K2DIV_Pos)| 
	            ((uint32_t)CLK001_PLL_PDIV<<SCU_PLL_PLLCON1_PDIV_Pos));

	  if((((SCU_PLL->PLLCON1 & SCU_PLL_PLLCON1_PDIV_Msk)>>SCU_PLL_PLLCON1_PDIV_Pos) != CLK001_PLL_PDIV) || \
 8004190:	f244 7310 	movw	r3, #18192	; 0x4710
 8004194:	f2c5 0300 	movt	r3, #20480	; 0x5000
 8004198:	689b      	ldr	r3, [r3, #8]
 800419a:	f003 6370 	and.w	r3, r3, #251658240	; 0xf000000
 800419e:	ea4f 6313 	mov.w	r3, r3, lsr #24
 80041a2:	2b00      	cmp	r3, #0
 80041a4:	d11e      	bne.n	80041e4 <CLK001_FreqStepupMainPLL+0x144>
	       (((SCU_PLL->PLLCON1 & SCU_PLL_PLLCON1_NDIV_Msk)>>SCU_PLL_PLLCON1_NDIV_Pos) != CLK001_PLL_NDIV) || \
 80041a6:	f244 7310 	movw	r3, #18192	; 0x4710
 80041aa:	f2c5 0300 	movt	r3, #20480	; 0x5000
 80041ae:	689b      	ldr	r3, [r3, #8]
 80041b0:	f403 43fe 	and.w	r3, r3, #32512	; 0x7f00
 80041b4:	ea4f 2313 	mov.w	r3, r3, lsr #8
	  SCU_PLL->PLLCON1 = (((uint32_t)CLK001_PLL_K1DIV) | 
	            ((uint32_t)CLK001_PLL_NDIV<<SCU_PLL_PLLCON1_NDIV_Pos)  | 
	            ((uint32_t)CLK001_PLL_K2DIV<<SCU_PLL_PLLCON1_K2DIV_Pos)| 
	            ((uint32_t)CLK001_PLL_PDIV<<SCU_PLL_PLLCON1_PDIV_Pos));

	  if((((SCU_PLL->PLLCON1 & SCU_PLL_PLLCON1_PDIV_Msk)>>SCU_PLL_PLLCON1_PDIV_Pos) != CLK001_PLL_PDIV) || \
 80041b8:	2b27      	cmp	r3, #39	; 0x27
 80041ba:	d113      	bne.n	80041e4 <CLK001_FreqStepupMainPLL+0x144>
	       (((SCU_PLL->PLLCON1 & SCU_PLL_PLLCON1_NDIV_Msk)>>SCU_PLL_PLLCON1_NDIV_Pos) != CLK001_PLL_NDIV) || \
	       (((SCU_PLL->PLLCON1 & SCU_PLL_PLLCON1_K1DIV_Msk)>>SCU_PLL_PLLCON1_K1DIV_Pos) != CLK001_PLL_K1DIV) || \
 80041bc:	f244 7310 	movw	r3, #18192	; 0x4710
 80041c0:	f2c5 0300 	movt	r3, #20480	; 0x5000
 80041c4:	689b      	ldr	r3, [r3, #8]
 80041c6:	f003 037f 	and.w	r3, r3, #127	; 0x7f
	            ((uint32_t)CLK001_PLL_NDIV<<SCU_PLL_PLLCON1_NDIV_Pos)  | 
	            ((uint32_t)CLK001_PLL_K2DIV<<SCU_PLL_PLLCON1_K2DIV_Pos)| 
	            ((uint32_t)CLK001_PLL_PDIV<<SCU_PLL_PLLCON1_PDIV_Pos));

	  if((((SCU_PLL->PLLCON1 & SCU_PLL_PLLCON1_PDIV_Msk)>>SCU_PLL_PLLCON1_PDIV_Pos) != CLK001_PLL_PDIV) || \
	       (((SCU_PLL->PLLCON1 & SCU_PLL_PLLCON1_NDIV_Msk)>>SCU_PLL_PLLCON1_NDIV_Pos) != CLK001_PLL_NDIV) || \
 80041ca:	2b00      	cmp	r3, #0
 80041cc:	d10a      	bne.n	80041e4 <CLK001_FreqStepupMainPLL+0x144>
	       (((SCU_PLL->PLLCON1 & SCU_PLL_PLLCON1_K1DIV_Msk)>>SCU_PLL_PLLCON1_K1DIV_Pos) != CLK001_PLL_K1DIV) || \
	       (((SCU_PLL->PLLCON1 & SCU_PLL_PLLCON1_K2DIV_Msk)>>SCU_PLL_PLLCON1_K2DIV_Pos) != CLK001_PLL_K2DIV))
 80041ce:	f244 7310 	movw	r3, #18192	; 0x4710
 80041d2:	f2c5 0300 	movt	r3, #20480	; 0x5000
 80041d6:	689b      	ldr	r3, [r3, #8]
 80041d8:	f403 03fe 	and.w	r3, r3, #8323072	; 0x7f0000
 80041dc:	ea4f 4313 	mov.w	r3, r3, lsr #16
	            ((uint32_t)CLK001_PLL_K2DIV<<SCU_PLL_PLLCON1_K2DIV_Pos)| 
	            ((uint32_t)CLK001_PLL_PDIV<<SCU_PLL_PLLCON1_PDIV_Pos));

	  if((((SCU_PLL->PLLCON1 & SCU_PLL_PLLCON1_PDIV_Msk)>>SCU_PLL_PLLCON1_PDIV_Pos) != CLK001_PLL_PDIV) || \
	       (((SCU_PLL->PLLCON1 & SCU_PLL_PLLCON1_NDIV_Msk)>>SCU_PLL_PLLCON1_NDIV_Pos) != CLK001_PLL_NDIV) || \
	       (((SCU_PLL->PLLCON1 & SCU_PLL_PLLCON1_K1DIV_Msk)>>SCU_PLL_PLLCON1_K1DIV_Pos) != CLK001_PLL_K1DIV) || \
 80041e0:	2b03      	cmp	r3, #3
 80041e2:	d002      	beq.n	80041ea <CLK001_FreqStepupMainPLL+0x14a>
	       (((SCU_PLL->PLLCON1 & SCU_PLL_PLLCON1_K2DIV_Msk)>>SCU_PLL_PLLCON1_K2DIV_Pos) != CLK001_PLL_K2DIV))
	  {
	    Return_status =0U;
 80041e4:	f04f 0300 	mov.w	r3, #0
 80041e8:	607b      	str	r3, [r7, #4]
	  }

	  /* clear request for System OCS Watchdog Trap and System VCO Lock Trap  */
	  SCU_TRAP->TRAPCLR = SCU_TRAP_TRAPCLR_SOSCWDGT_Msk |
 80041ea:	f244 1360 	movw	r3, #16736	; 0x4160
 80041ee:	f2c5 0300 	movt	r3, #20480	; 0x5000
 80041f2:	f04f 0205 	mov.w	r2, #5
 80041f6:	60da      	str	r2, [r3, #12]
	                      SCU_TRAP_TRAPCLR_SVCOLCKT_Msk;
	}/*end PLL frequency stepping...*/
	#endif /*end of PLL frequency stepping in case of PLL normal mode*/

  return Return_status;
 80041f8:	687b      	ldr	r3, [r7, #4]
}
 80041fa:	4618      	mov	r0, r3
 80041fc:	f107 0708 	add.w	r7, r7, #8
 8004200:	46bd      	mov	sp, r7
 8004202:	bd80      	pop	{r7, pc}

08004204 <CLK001_SysClk_Init>:
  * @note   -  
  * @param  None
  * @retval PASS/FAIL
  */
static uint32_t CLK001_SysClk_Init(void)
{
 8004204:	b580      	push	{r7, lr}
 8004206:	b082      	sub	sp, #8
 8004208:	af00      	add	r7, sp, #0
	uint32_t Return_status = 1UL;
 800420a:	f04f 0301 	mov.w	r3, #1
 800420e:	607b      	str	r3, [r7, #4]

  /*Back up clock trimming*/
  CLK001_BackupClkTrim();
 8004210:	f7ff fdd6 	bl	8003dc0 <CLK001_BackupClkTrim>

  /*insert ~50us delay @ maximum back up clock freq after trimming is enabled*/
  CLK001_Delay(CLK001_DELAY_CNT_50US_50MHZ);
 8004214:	f04f 0064 	mov.w	r0, #100	; 0x64
 8004218:	f7ff fd9c 	bl	8003d54 <CLK001_Delay>
  /*system clock = PLL */
  #else/*(CLK001_CLOCK_SYS_SRC == CLK001_CLOCK_SRC_PLL)*/
  {
	/* Select PLL Clock source: External Crystal Oscillator or External Digital
	 Clock Backup Clock */
	Return_status = CLK001_SetMainPLLClkSrc();
 800421c:	f7ff fe1a 	bl	8003e54 <CLK001_SetMainPLLClkSrc>
 8004220:	6078      	str	r0, [r7, #4]
	/* Configure a PLL clock */
	Return_status = CLK001_ConfigMainPLL();
 8004222:	f7ff fe8f 	bl	8003f44 <CLK001_ConfigMainPLL>
 8004226:	6078      	str	r0, [r7, #4]

	/* Switch system clock to PLL */
    SCU_CLK->SYSCLKCR |=  (CLK001_CLOCK_SRC_PLL << SCU_CLK_SYSCLKCR_SYSSEL_Pos);
 8004228:	f44f 438c 	mov.w	r3, #17920	; 0x4600
 800422c:	f2c5 0300 	movt	r3, #20480	; 0x5000
 8004230:	f44f 428c 	mov.w	r2, #17920	; 0x4600
 8004234:	f2c5 0200 	movt	r2, #20480	; 0x5000
 8004238:	68d2      	ldr	r2, [r2, #12]
 800423a:	f442 3280 	orr.w	r2, r2, #65536	; 0x10000
 800423e:	60da      	str	r2, [r3, #12]
    #endif
  #endif

#if (CLK001_CLOCK_SYS_SRC == CLK001_CLOCK_SRC_PLL)
	  /* PLL frequency stepping...*/
  Return_status = CLK001_FreqStepupMainPLL();
 8004240:	f7ff ff2e 	bl	80040a0 <CLK001_FreqStepupMainPLL>
 8004244:	6078      	str	r0, [r7, #4]
#endif

  /*return success*/
  return Return_status;
 8004246:	687b      	ldr	r3, [r7, #4]
}
 8004248:	4618      	mov	r0, r3
 800424a:	f107 0708 	add.w	r7, r7, #8
 800424e:	46bd      	mov	sp, r7
 8004250:	bd80      	pop	{r7, pc}
 8004252:	bf00      	nop

08004254 <CLK001_Init>:
  * @note   -  
  * @param  None
  * @retval None
  */
void CLK001_Init(void)
{
 8004254:	b580      	push	{r7, lr}
 8004256:	b082      	sub	sp, #8
 8004258:	af00      	add	r7, sp, #0
  uint32_t SysClkinitialized;
  SysClkinitialized = 0UL; /* Default Value */
 800425a:	f04f 0300 	mov.w	r3, #0
 800425e:	607b      	str	r3, [r7, #4]
  /*  Function to check the clock status based on UI configuration */
  if(CLK001_SysClk_Valid() == 0UL)
 8004260:	f7ff fd92 	bl	8003d88 <CLK001_SysClk_Valid>
 8004264:	4603      	mov	r3, r0
 8004266:	2b00      	cmp	r3, #0
 8004268:	d105      	bne.n	8004276 <CLK001_Init+0x22>
  {   
    /*  Function to initialize the System Clock based on UI configuration */
	  SysClkinitialized |= CLK001_SysClk_Init();
 800426a:	f7ff ffcb 	bl	8004204 <CLK001_SysClk_Init>
 800426e:	4603      	mov	r3, r0
 8004270:	687a      	ldr	r2, [r7, #4]
 8004272:	4313      	orrs	r3, r2
 8004274:	607b      	str	r3, [r7, #4]
    /*  Function to initialize the External clock pin */
    CLK001_ExtClk_Init();
  #endif

  /* Update the clock variable */
  SystemCoreClockUpdate();
 8004276:	f7fc fc8b 	bl	8000b90 <SystemCoreClockUpdate>
}
 800427a:	f107 0708 	add.w	r7, r7, #8
 800427e:	46bd      	mov	sp, r7
 8004280:	bd80      	pop	{r7, pc}
 8004282:	bf00      	nop

08004284 <AllowPLLInitByStartup>:
 * loading.
 *
 * Return 0 to disallow CStart from performing clock tree setup.
 */
uint32_t AllowPLLInitByStartup(void)
{
 8004284:	b480      	push	{r7}
 8004286:	af00      	add	r7, sp, #0
	/*
	 * Let the CStart know that there is no more a need to perform clock tree
	 * initialization.
	 */
	return 0UL;
 8004288:	f04f 0300 	mov.w	r3, #0
}
 800428c:	4618      	mov	r0, r3
 800428e:	46bd      	mov	sp, r7
 8004290:	bc80      	pop	{r7}
 8004292:	4770      	bx	lr

08004294 <__libc_init_array>:
 8004294:	b5f8      	push	{r3, r4, r5, r6, r7, lr}
 8004296:	4f20      	ldr	r7, [pc, #128]	; (8004318 <__libc_init_array+0x84>)
 8004298:	4c20      	ldr	r4, [pc, #128]	; (800431c <__libc_init_array+0x88>)
 800429a:	1b38      	subs	r0, r7, r4
 800429c:	1087      	asrs	r7, r0, #2
 800429e:	d017      	beq.n	80042d0 <__libc_init_array+0x3c>
 80042a0:	1e7a      	subs	r2, r7, #1
 80042a2:	6823      	ldr	r3, [r4, #0]
 80042a4:	2501      	movs	r5, #1
 80042a6:	f002 0601 	and.w	r6, r2, #1
 80042aa:	4798      	blx	r3
 80042ac:	42af      	cmp	r7, r5
 80042ae:	d00f      	beq.n	80042d0 <__libc_init_array+0x3c>
 80042b0:	b12e      	cbz	r6, 80042be <__libc_init_array+0x2a>
 80042b2:	f854 1f04 	ldr.w	r1, [r4, #4]!
 80042b6:	2502      	movs	r5, #2
 80042b8:	4788      	blx	r1
 80042ba:	42af      	cmp	r7, r5
 80042bc:	d008      	beq.n	80042d0 <__libc_init_array+0x3c>
 80042be:	6860      	ldr	r0, [r4, #4]
 80042c0:	4780      	blx	r0
 80042c2:	3502      	adds	r5, #2
 80042c4:	68a2      	ldr	r2, [r4, #8]
 80042c6:	1d26      	adds	r6, r4, #4
 80042c8:	4790      	blx	r2
 80042ca:	3408      	adds	r4, #8
 80042cc:	42af      	cmp	r7, r5
 80042ce:	d1f6      	bne.n	80042be <__libc_init_array+0x2a>
 80042d0:	4f13      	ldr	r7, [pc, #76]	; (8004320 <__libc_init_array+0x8c>)
 80042d2:	4c14      	ldr	r4, [pc, #80]	; (8004324 <__libc_init_array+0x90>)
 80042d4:	f7fe f954 	bl	8002580 <_init>
 80042d8:	1b3b      	subs	r3, r7, r4
 80042da:	109f      	asrs	r7, r3, #2
 80042dc:	d018      	beq.n	8004310 <__libc_init_array+0x7c>
 80042de:	1e7d      	subs	r5, r7, #1
 80042e0:	6821      	ldr	r1, [r4, #0]
 80042e2:	f005 0601 	and.w	r6, r5, #1
 80042e6:	2501      	movs	r5, #1
 80042e8:	4788      	blx	r1
 80042ea:	42af      	cmp	r7, r5
 80042ec:	d011      	beq.n	8004312 <__libc_init_array+0x7e>
 80042ee:	b12e      	cbz	r6, 80042fc <__libc_init_array+0x68>
 80042f0:	f854 0f04 	ldr.w	r0, [r4, #4]!
 80042f4:	2502      	movs	r5, #2
 80042f6:	4780      	blx	r0
 80042f8:	42af      	cmp	r7, r5
 80042fa:	d00b      	beq.n	8004314 <__libc_init_array+0x80>
 80042fc:	6862      	ldr	r2, [r4, #4]
 80042fe:	4790      	blx	r2
 8004300:	3502      	adds	r5, #2
 8004302:	68a3      	ldr	r3, [r4, #8]
 8004304:	1d26      	adds	r6, r4, #4
 8004306:	4798      	blx	r3
 8004308:	3408      	adds	r4, #8
 800430a:	42af      	cmp	r7, r5
 800430c:	d1f6      	bne.n	80042fc <__libc_init_array+0x68>
 800430e:	bdf8      	pop	{r3, r4, r5, r6, r7, pc}
 8004310:	bdf8      	pop	{r3, r4, r5, r6, r7, pc}
 8004312:	bdf8      	pop	{r3, r4, r5, r6, r7, pc}
 8004314:	bdf8      	pop	{r3, r4, r5, r6, r7, pc}
 8004316:	bf00      	nop
 8004318:	08004328 	.word	0x08004328
 800431c:	08004328 	.word	0x08004328
 8004320:	08004328 	.word	0x08004328
 8004324:	08004328 	.word	0x08004328
